
/Users/chipmc/Documents/Maker/Particle/Projects/LoRA-Particle-Node/target/2.3.0/boron/LoRA-Particle-Node.elf:     file format elf32-littlearm

Sections:
Idx Name          Size      VMA       LMA       File off  Algn
  0 .module_info  00000018  000d4000  000d4000  00004000  2**0
                  CONTENTS, ALLOC, LOAD, READONLY, DATA
  1 .dynalib      00000004  000d4018  000d4018  00004018  2**2
                  CONTENTS, ALLOC, LOAD, READONLY, DATA
  2 .text         00009c30  000d4020  000d4020  00004020  2**3
                  CONTENTS, ALLOC, LOAD, READONLY, CODE
  3 .backup       00000004  2003f400  000ddc50  0000f400  2**2
                  CONTENTS, ALLOC, LOAD, DATA
  4 .data         000001cc  2003db94  000ddc54  0001db94  2**2
                  CONTENTS, ALLOC, LOAD, DATA
  5 .bss          00000a90  2003dd60  2003dd60  0002dd60  2**3
                  ALLOC
  6 .module_info_suffix 0000002c  000dde20  000dde20  0001de20  2**1
                  CONTENTS, ALLOC, LOAD, DATA
  7 .module_info_crc 00000004  000dde4c  000dde4c  0001de4c  2**0
                  CONTENTS, ALLOC, LOAD, READONLY, DATA
  8 .debug_info   00308439  00000000  00000000  0001de50  2**0
                  CONTENTS, READONLY, DEBUGGING
  9 .debug_abbrev 0002d0c7  00000000  00000000  00326289  2**0
                  CONTENTS, READONLY, DEBUGGING
 10 .debug_loc    00049720  00000000  00000000  00353350  2**0
                  CONTENTS, READONLY, DEBUGGING
 11 .debug_aranges 00003e80  00000000  00000000  0039ca70  2**0
                  CONTENTS, READONLY, DEBUGGING
 12 .debug_ranges 0000bf80  00000000  00000000  003a08f0  2**0
                  CONTENTS, READONLY, DEBUGGING
 13 .debug_macro  00054514  00000000  00000000  003ac870  2**0
                  CONTENTS, READONLY, DEBUGGING
 14 .debug_line   00073aff  00000000  00000000  00400d84  2**0
                  CONTENTS, READONLY, DEBUGGING
 15 .debug_str    0012ed3e  00000000  00000000  00474883  2**0
                  CONTENTS, READONLY, DEBUGGING
 16 .debug_frame  0000b404  00000000  00000000  005a35c4  2**2
                  CONTENTS, READONLY, DEBUGGING

Disassembly of section .text:

000d4020 <module_user_pre_init>:
/**
 * Initializes this user module. Returns the start of the heap.
 */
void* module_user_pre_init() {

    if ( (&link_global_data_start!=&link_global_data_initial_values) && (link_global_data_size != 0))
   d4020:	4809      	ldr	r0, [pc, #36]	; (d4048 <module_user_pre_init+0x28>)
   d4022:	490a      	ldr	r1, [pc, #40]	; (d404c <module_user_pre_init+0x2c>)
   d4024:	4288      	cmp	r0, r1
void* module_user_pre_init() {
   d4026:	b508      	push	{r3, lr}
    if ( (&link_global_data_start!=&link_global_data_initial_values) && (link_global_data_size != 0))
   d4028:	d005      	beq.n	d4036 <module_user_pre_init+0x16>
   d402a:	4a09      	ldr	r2, [pc, #36]	; (d4050 <module_user_pre_init+0x30>)
   d402c:	4282      	cmp	r2, r0
   d402e:	d002      	beq.n	d4036 <module_user_pre_init+0x16>
    {
        memcpy(&link_global_data_start, &link_global_data_initial_values, link_global_data_size);
   d4030:	1a12      	subs	r2, r2, r0
   d4032:	f008 fc2f 	bl	dc894 <memcpy>
    }

    memset(&link_bss_location, 0, link_bss_size );
   d4036:	4807      	ldr	r0, [pc, #28]	; (d4054 <module_user_pre_init+0x34>)
   d4038:	4a07      	ldr	r2, [pc, #28]	; (d4058 <module_user_pre_init+0x38>)
   d403a:	2100      	movs	r1, #0
   d403c:	1a12      	subs	r2, r2, r0
   d403e:	f008 fc51 	bl	dc8e4 <memset>
    return &link_global_data_start;
}
   d4042:	4801      	ldr	r0, [pc, #4]	; (d4048 <module_user_pre_init+0x28>)
   d4044:	bd08      	pop	{r3, pc}
   d4046:	bf00      	nop
   d4048:	2003db94 	.word	0x2003db94
   d404c:	000ddc54 	.word	0x000ddc54
   d4050:	2003dd60 	.word	0x2003dd60
   d4054:	2003dd60 	.word	0x2003dd60
   d4058:	2003e7ed 	.word	0x2003e7ed

000d405c <module_user_init>:
extern constructor_ptr_t link_constructors_location[];
extern constructor_ptr_t link_constructors_end;
#define link_constructors_size   ((unsigned long)&link_constructors_end  -  (unsigned long)&link_constructors_location )

void module_user_init()
{
   d405c:	b570      	push	{r4, r5, r6, lr}
    module_user_init_hook();

    // invoke constructors
    int ctor_num;
    for (ctor_num=0; ctor_num < link_constructors_size/sizeof(constructor_ptr_t); ctor_num++ )
   d405e:	4e07      	ldr	r6, [pc, #28]	; (d407c <module_user_init+0x20>)
   d4060:	4c07      	ldr	r4, [pc, #28]	; (d4080 <module_user_init+0x24>)
    module_user_init_hook();
   d4062:	f007 fe35 	bl	dbcd0 <module_user_init_hook>
    for (ctor_num=0; ctor_num < link_constructors_size/sizeof(constructor_ptr_t); ctor_num++ )
   d4066:	1ba4      	subs	r4, r4, r6
   d4068:	08a4      	lsrs	r4, r4, #2
   d406a:	2500      	movs	r5, #0
   d406c:	42a5      	cmp	r5, r4
   d406e:	d100      	bne.n	d4072 <module_user_init+0x16>
    {
        link_constructors_location[ctor_num]();
    }
}
   d4070:	bd70      	pop	{r4, r5, r6, pc}
        link_constructors_location[ctor_num]();
   d4072:	f856 3b04 	ldr.w	r3, [r6], #4
   d4076:	4798      	blx	r3
    for (ctor_num=0; ctor_num < link_constructors_size/sizeof(constructor_ptr_t); ctor_num++ )
   d4078:	3501      	adds	r5, #1
   d407a:	e7f7      	b.n	d406c <module_user_init+0x10>
   d407c:	000ddc10 	.word	0x000ddc10
   d4080:	000ddc4c 	.word	0x000ddc4c

000d4084 <module_user_setup>:

/**
 * Export these functions with a fuller name so they don't clash with the setup/loop wrappers in the system module.
 */
void module_user_setup() {
    setup();
   d4084:	f000 b966 	b.w	d4354 <setup>

000d4088 <module_user_loop>:
}

void module_user_loop() {
   d4088:	b508      	push	{r3, lr}
    loop();
   d408a:	f000 faa3 	bl	d45d4 <loop>
    _post_loop();
}
   d408e:	e8bd 4008 	ldmia.w	sp!, {r3, lr}
    _post_loop();
   d4092:	f007 bdd5 	b.w	dbc40 <_post_loop>

000d4096 <_Znwj>:
 * Implement C++ new/delete operators using the heap
 */

void *operator new(size_t size)
{
	return malloc(size);
   d4096:	f004 bee3 	b.w	d8e60 <malloc>

000d409a <_Znaj>:
   d409a:	f004 bee1 	b.w	d8e60 <malloc>

000d409e <_ZdlPv>:
	return malloc(size);
}

void operator delete(void *p)
{
	free(p);
   d409e:	f004 bee7 	b.w	d8e70 <free>
	...

000d40a4 <__cxa_pure_virtual>:
char* strerror(int errnum) {
    return (char*)"";
}

/* Default implementation for call made to pure virtual function. */
void __cxa_pure_virtual() {
   d40a4:	b508      	push	{r3, lr}
  PANIC(PureVirtualCall,"Call on pure virtual");
   d40a6:	4a03      	ldr	r2, [pc, #12]	; (d40b4 <__cxa_pure_virtual+0x10>)
   d40a8:	2100      	movs	r1, #0
   d40aa:	200c      	movs	r0, #12
   d40ac:	f004 fda6 	bl	d8bfc <panic_>
  while (1);
   d40b0:	e7fe      	b.n	d40b0 <__cxa_pure_virtual+0xc>
   d40b2:	bf00      	nop
   d40b4:	000d887d 	.word	0x000d887d

000d40b8 <__cxa_guard_acquire>:

/* Provide default implemenation for __cxa_guard_acquire() and
 * __cxa_guard_release(). Note: these must be revisited if a multitasking
 * OS is ported to this platform. */
__extension__ typedef int __guard __attribute__((mode (__DI__)));
int __cxa_guard_acquire(__guard *g) {return !*(char *)(g);};
   d40b8:	7800      	ldrb	r0, [r0, #0]
   d40ba:	fab0 f080 	clz	r0, r0
   d40be:	0940      	lsrs	r0, r0, #5
   d40c0:	4770      	bx	lr

000d40c2 <__cxa_guard_release>:
void __cxa_guard_release (__guard *g) {*(char *)g = 1;};
   d40c2:	2301      	movs	r3, #1
   d40c4:	7003      	strb	r3, [r0, #0]
   d40c6:	4770      	bx	lr

000d40c8 <_Z13userSwitchISRv>:
	}
	Log.info(stateTransitionString);
}

void userSwitchISR() {
  userSwitchDectected = true;                                            // The the flag for the user switch interrupt
   d40c8:	4b01      	ldr	r3, [pc, #4]	; (d40d0 <_Z13userSwitchISRv+0x8>)
   d40ca:	2201      	movs	r2, #1
   d40cc:	701a      	strb	r2, [r3, #0]
}
   d40ce:	4770      	bx	lr
   d40d0:	2003dee9 	.word	0x2003dee9

000d40d4 <_ZN8MB85RC64D1Ev>:
	size_t memorySize;
	int addr; // This is just 0-7, the (0b1010000 of the 7-bit address is ORed in later)

};

class MB85RC64 : public MB85RC {
   d40d4:	b510      	push	{r4, lr}
   d40d6:	4b03      	ldr	r3, [pc, #12]	; (d40e4 <_ZN8MB85RC64D1Ev+0x10>)
   d40d8:	6003      	str	r3, [r0, #0]
   d40da:	4604      	mov	r4, r0
   d40dc:	f002 fff1 	bl	d70c2 <_ZN6MB85RCD1Ev>
   d40e0:	4620      	mov	r0, r4
   d40e2:	bd10      	pop	{r4, pc}
   d40e4:	000dce44 	.word	0x000dce44

000d40e8 <_ZN8MB85RC64D0Ev>:
   d40e8:	b510      	push	{r4, lr}
   d40ea:	4604      	mov	r4, r0
   d40ec:	f7ff fff2 	bl	d40d4 <_ZN8MB85RC64D1Ev>
   d40f0:	4620      	mov	r0, r4
   d40f2:	2110      	movs	r1, #16
   d40f4:	f007 ff42 	bl	dbf7c <_ZdlPvj>
   d40f8:	4620      	mov	r0, r4
   d40fa:	bd10      	pop	{r4, pc}

000d40fc <_ZN8particle24SystemSleepConfiguration4gpioEt13InterruptMode>:
            config_.flags |= f.value();
        }
        return *this;
    }

    SystemSleepConfiguration& gpio(pin_t pin, InterruptMode mode) {
   d40fc:	b5f8      	push	{r3, r4, r5, r6, r7, lr}
        if (valid_) {
   d40fe:	7d03      	ldrb	r3, [r0, #20]
    SystemSleepConfiguration& gpio(pin_t pin, InterruptMode mode) {
   d4100:	4605      	mov	r5, r0
   d4102:	460f      	mov	r7, r1
   d4104:	4616      	mov	r6, r2
        if (valid_) {
   d4106:	b18b      	cbz	r3, d412c <_ZN8particle24SystemSleepConfiguration4gpioEt13InterruptMode+0x30>
        return wakeupSourceFeatured(type, config_->wakeup_sources);
   d4108:	6803      	ldr	r3, [r0, #0]
   d410a:	68db      	ldr	r3, [r3, #12]
        if (!start) {
   d410c:	b183      	cbz	r3, d4130 <_ZN8particle24SystemSleepConfiguration4gpioEt13InterruptMode+0x34>
            if (start->type == type) {
   d410e:	889a      	ldrh	r2, [r3, #4]
   d4110:	2a01      	cmp	r2, #1
   d4112:	d006      	beq.n	d4122 <_ZN8particle24SystemSleepConfiguration4gpioEt13InterruptMode+0x26>
            start = start->next;
   d4114:	689b      	ldr	r3, [r3, #8]
        while (start) {
   d4116:	e7f9      	b.n	d410c <_ZN8particle24SystemSleepConfiguration4gpioEt13InterruptMode+0x10>
                auto gpioWakeup = reinterpret_cast<hal_wakeup_source_gpio_t*>(wakeup);
                if (gpioWakeup->pin == pin) {
                    gpioWakeup->mode = mode;
                    return *this;
                }
                wakeup = wakeupSourceFeatured(HAL_WAKEUP_SOURCE_TYPE_GPIO, wakeup->next);
   d4118:	689b      	ldr	r3, [r3, #8]
        if (!start) {
   d411a:	b14b      	cbz	r3, d4130 <_ZN8particle24SystemSleepConfiguration4gpioEt13InterruptMode+0x34>
            if (start->type == type) {
   d411c:	889a      	ldrh	r2, [r3, #4]
   d411e:	2a01      	cmp	r2, #1
   d4120:	d1fa      	bne.n	d4118 <_ZN8particle24SystemSleepConfiguration4gpioEt13InterruptMode+0x1c>
            while (wakeup) {
   d4122:	b12b      	cbz	r3, d4130 <_ZN8particle24SystemSleepConfiguration4gpioEt13InterruptMode+0x34>
                if (gpioWakeup->pin == pin) {
   d4124:	899a      	ldrh	r2, [r3, #12]
   d4126:	42ba      	cmp	r2, r7
   d4128:	d1f6      	bne.n	d4118 <_ZN8particle24SystemSleepConfiguration4gpioEt13InterruptMode+0x1c>
                    gpioWakeup->mode = mode;
   d412a:	739e      	strb	r6, [r3, #14]
            wakeupSource->pin = pin;
            wakeupSource->mode = mode;
            config_.wakeup_sources = reinterpret_cast<hal_wakeup_source_base_t*>(wakeupSource);
        }
        return *this;
    }
   d412c:	4628      	mov	r0, r5
   d412e:	bdf8      	pop	{r3, r4, r5, r6, r7, pc}
            auto wakeupSource = new(std::nothrow) hal_wakeup_source_gpio_t();
   d4130:	490a      	ldr	r1, [pc, #40]	; (d415c <_ZN8particle24SystemSleepConfiguration4gpioEt13InterruptMode+0x60>)
   d4132:	2010      	movs	r0, #16
   d4134:	f007 ff24 	bl	dbf80 <_ZnwjRKSt9nothrow_t>
   d4138:	4604      	mov	r4, r0
   d413a:	b168      	cbz	r0, d4158 <_ZN8particle24SystemSleepConfiguration4gpioEt13InterruptMode+0x5c>
   d413c:	2210      	movs	r2, #16
   d413e:	2100      	movs	r1, #0
   d4140:	f008 fbd0 	bl	dc8e4 <memset>
            wakeupSource->base.size = sizeof(hal_wakeup_source_gpio_t);
   d4144:	4b06      	ldr	r3, [pc, #24]	; (d4160 <_ZN8particle24SystemSleepConfiguration4gpioEt13InterruptMode+0x64>)
   d4146:	6023      	str	r3, [r4, #0]
            wakeupSource->base.type = HAL_WAKEUP_SOURCE_TYPE_GPIO;
   d4148:	2301      	movs	r3, #1
   d414a:	80a3      	strh	r3, [r4, #4]
            wakeupSource->base.next = config_.wakeup_sources;
   d414c:	692b      	ldr	r3, [r5, #16]
   d414e:	60a3      	str	r3, [r4, #8]
            wakeupSource->pin = pin;
   d4150:	81a7      	strh	r7, [r4, #12]
            wakeupSource->mode = mode;
   d4152:	73a6      	strb	r6, [r4, #14]
            config_.wakeup_sources = reinterpret_cast<hal_wakeup_source_base_t*>(wakeupSource);
   d4154:	612c      	str	r4, [r5, #16]
   d4156:	e7e9      	b.n	d412c <_ZN8particle24SystemSleepConfiguration4gpioEt13InterruptMode+0x30>
                valid_ = false;
   d4158:	7528      	strb	r0, [r5, #20]
                return *this;
   d415a:	e7e7      	b.n	d412c <_ZN8particle24SystemSleepConfiguration4gpioEt13InterruptMode+0x30>
   d415c:	000ddab4 	.word	0x000ddab4
   d4160:	00030010 	.word	0x00030010

000d4164 <_ZNK5spark6Logger4infoEPKcz>:
    va_start(args, fmt);
    log(LOG_LEVEL_TRACE, fmt, args);
    va_end(args);
}

inline void spark::Logger::info(const char *fmt, ...) const {
   d4164:	b40e      	push	{r1, r2, r3}
   d4166:	b510      	push	{r4, lr}
   d4168:	b08d      	sub	sp, #52	; 0x34
   d416a:	aa0f      	add	r2, sp, #60	; 0x3c
    va_list args;
    va_start(args, fmt);
    log(LOG_LEVEL_INFO, fmt, args);
   d416c:	6801      	ldr	r1, [r0, #0]
inline void spark::Logger::info(const char *fmt, ...) const {
   d416e:	f852 4b04 	ldr.w	r4, [r2], #4
    va_start(args, fmt);
   d4172:	9203      	str	r2, [sp, #12]
}

inline void spark::Logger::log(LogLevel level, const char *fmt, va_list args) const {
    LogAttributes attr;
    attr.size = sizeof(LogAttributes);
    attr.flags = 0;
   d4174:	2300      	movs	r3, #0
   d4176:	2020      	movs	r0, #32
   d4178:	e9cd 0304 	strd	r0, r3, [sp, #16]
    log_message_v(level, name_, &attr, nullptr, fmt, args);
   d417c:	e9cd 4200 	strd	r4, r2, [sp]
   d4180:	201e      	movs	r0, #30
   d4182:	aa04      	add	r2, sp, #16
   d4184:	f004 fd4a 	bl	d8c1c <log_message_v>
}
   d4188:	b00d      	add	sp, #52	; 0x34
   d418a:	e8bd 4010 	ldmia.w	sp!, {r4, lr}
   d418e:	b003      	add	sp, #12
   d4190:	4770      	bx	lr
	...

000d4194 <_ZN14LocalTimeRangeC1E12LocalTimeHMSS0_>:
     * 
     * Note that 24:00:00 is not a valid time. You should generally use inclusive times such that
     * 23:59:59 is the end of the day.
     * 
     */
    LocalTimeRange(LocalTimeHMS hmsStart, LocalTimeHMS hmsEnd = LocalTimeHMS("23:59:59")) : LocalTimeRestrictedDate(LocalTimeDayOfWeek::MASK_ALL), hmsStart(hmsStart), hmsEnd(hmsEnd) {
   d4194:	b510      	push	{r4, lr}
    LocalTimeDayOfWeek(uint8_t mask) : dayOfWeekMask(mask) {
   d4196:	247f      	movs	r4, #127	; 0x7f
   d4198:	7004      	strb	r4, [r0, #0]
	pointer _M_start;
	pointer _M_finish;
	pointer _M_end_of_storage;

	_Vector_impl_data() _GLIBCXX_NOEXCEPT
	: _M_start(), _M_finish(), _M_end_of_storage()
   d419a:	2400      	movs	r4, #0
   d419c:	e9c0 4401 	strd	r4, r4, [r0, #4]
   d41a0:	e9c0 4403 	strd	r4, r4, [r0, #12]
   d41a4:	e9c0 4405 	strd	r4, r4, [r0, #20]
class LocalTimeHMS {
   d41a8:	6849      	ldr	r1, [r1, #4]
   d41aa:	4c03      	ldr	r4, [pc, #12]	; (d41b8 <_ZN14LocalTimeRangeC1E12LocalTimeHMSS0_+0x24>)
   d41ac:	6852      	ldr	r2, [r2, #4]
   d41ae:	61c4      	str	r4, [r0, #28]
   d41b0:	e9c0 1408 	strd	r1, r4, [r0, #32]
   d41b4:	6282      	str	r2, [r0, #40]	; 0x28
    }
   d41b6:	bd10      	pop	{r4, pc}
   d41b8:	000dd4d0 	.word	0x000dd4d0

000d41bc <_ZN14LocalTimeRangeD1Ev>:
class LocalTimeRange : public LocalTimeRestrictedDate {
   d41bc:	b510      	push	{r4, lr}
   d41be:	4604      	mov	r4, r0
   d41c0:	3024      	adds	r0, #36	; 0x24
   d41c2:	f001 fcfd 	bl	d5bc0 <_ZN12LocalTimeHMSD1Ev>
   d41c6:	f104 001c 	add.w	r0, r4, #28
   d41ca:	f001 fcf9 	bl	d5bc0 <_ZN12LocalTimeHMSD1Ev>
      { }
#endif

      ~_Vector_base() _GLIBCXX_NOEXCEPT
      {
	_M_deallocate(_M_impl._M_start,
   d41ce:	6920      	ldr	r0, [r4, #16]

      void
      _M_deallocate(pointer __p, size_t __n)
      {
	typedef __gnu_cxx::__alloc_traits<_Tp_alloc_type> _Tr;
	if (__p)
   d41d0:	b108      	cbz	r0, d41d6 <_ZN14LocalTimeRangeD1Ev+0x1a>
	  {
	    ::operator delete(__p, std::align_val_t(alignof(_Tp)));
	    return;
	  }
#endif
	::operator delete(__p);
   d41d2:	f7ff ff64 	bl	d409e <_ZdlPv>
	_M_deallocate(_M_impl._M_start,
   d41d6:	6860      	ldr	r0, [r4, #4]
	if (__p)
   d41d8:	b108      	cbz	r0, d41de <_ZN14LocalTimeRangeD1Ev+0x22>
   d41da:	f7ff ff60 	bl	d409e <_ZdlPv>
   d41de:	4620      	mov	r0, r4
   d41e0:	bd10      	pop	{r4, pc}
	...

000d41e4 <_Z22publishStateTransitionv>:
{
   d41e4:	b5f0      	push	{r4, r5, r6, r7, lr}
	snprintf(stateTransitionString, sizeof(stateTransitionString), "From %s to %s", stateNames[oldState],stateNames[state]);
   d41e6:	4d25      	ldr	r5, [pc, #148]	; (d427c <_Z22publishStateTransitionv+0x98>)
   d41e8:	4c25      	ldr	r4, [pc, #148]	; (d4280 <_Z22publishStateTransitionv+0x9c>)
   d41ea:	4b26      	ldr	r3, [pc, #152]	; (d4284 <_Z22publishStateTransitionv+0xa0>)
   d41ec:	782a      	ldrb	r2, [r5, #0]
   d41ee:	7821      	ldrb	r1, [r4, #0]
{
   d41f0:	b08f      	sub	sp, #60	; 0x3c
	snprintf(stateTransitionString, sizeof(stateTransitionString), "From %s to %s", stateNames[oldState],stateNames[state]);
   d41f2:	eb03 1202 	add.w	r2, r3, r2, lsl #4
   d41f6:	9200      	str	r2, [sp, #0]
   d41f8:	eb03 1301 	add.w	r3, r3, r1, lsl #4
   d41fc:	4a22      	ldr	r2, [pc, #136]	; (d4288 <_Z22publishStateTransitionv+0xa4>)
   d41fe:	2128      	movs	r1, #40	; 0x28
   d4200:	a804      	add	r0, sp, #16
   d4202:	f004 fe55 	bl	d8eb0 <snprintf>
	oldState = state;
   d4206:	782b      	ldrb	r3, [r5, #0]
   d4208:	7023      	strb	r3, [r4, #0]
    static void sleep(Spark_Sleep_TypeDef sleepMode, long seconds=0) __attribute__ ((deprecated("Please use System.sleep() instead.")))
    { SystemClass::sleep(sleepMode, seconds); }
    static void sleep(uint16_t wakeUpPin, InterruptMode edgeTriggerMode, long seconds=0) __attribute__ ((deprecated("Please use System.sleep() instead.")))
    { SystemClass::sleep(wakeUpPin, edgeTriggerMode, seconds); }

    static bool connected(void) { return spark_cloud_flag_connected(); }
   d420a:	f004 fda1 	bl	d8d50 <spark_cloud_flag_connected>
	if (Particle.connected()) {
   d420e:	2800      	cmp	r0, #0
   d4210:	d02e      	beq.n	d4270 <_Z22publishStateTransitionv+0x8c>
		if (millis() - lastPublish > 1000) {
   d4212:	4c1e      	ldr	r4, [pc, #120]	; (d428c <_Z22publishStateTransitionv+0xa8>)

#ifdef __cplusplus
extern "C" {
#endif

inline system_tick_t millis(void) { return HAL_Timer_Get_Milli_Seconds(); }
   d4214:	f004 fb3a 	bl	d888c <HAL_Timer_Get_Milli_Seconds>
   d4218:	e9d4 3200 	ldrd	r3, r2, [r4]
   d421c:	1ac6      	subs	r6, r0, r3
   d421e:	eb62 0742 	sbc.w	r7, r2, r2, lsl #1
   d4222:	f44f 727a 	mov.w	r2, #1000	; 0x3e8
   d4226:	2300      	movs	r3, #0
   d4228:	42b2      	cmp	r2, r6
   d422a:	41bb      	sbcs	r3, r7
   d422c:	da20      	bge.n	d4270 <_Z22publishStateTransitionv+0x8c>
   d422e:	f004 fb2d 	bl	d888c <HAL_Timer_Get_Milli_Seconds>
			lastPublish = millis();
   d4232:	2300      	movs	r3, #0
   d4234:	6063      	str	r3, [r4, #4]
inline particle::Flags<TagT, ValueT>::Flags(Flag<TagT, ValueT> flag) :
        val_(flag.value()) {
}

template<typename TagT, typename ValueT>
inline particle::Flags<TagT, ValueT>::Flags(ValueT val) :
   d4236:	4b16      	ldr	r3, [pc, #88]	; (d4290 <_Z22publishStateTransitionv+0xac>)
   d4238:	6020      	str	r0, [r4, #0]
   d423a:	781b      	ldrb	r3, [r3, #0]
        return publish_event(eventName, eventData, ttl, flags1 | flags2);
   d423c:	f88d 3000 	strb.w	r3, [sp]
   d4240:	4914      	ldr	r1, [pc, #80]	; (d4294 <_Z22publishStateTransitionv+0xb0>)
   d4242:	233c      	movs	r3, #60	; 0x3c
   d4244:	aa04      	add	r2, sp, #16
   d4246:	a802      	add	r0, sp, #8
   d4248:	f005 f918 	bl	d947c <_ZN10CloudClass13publish_eventEPKcS1_iN8particle5FlagsI15PublishFlagTypehEE>
      // Does not throw if __r._M_get_use_count() == 0, caller must check.
      explicit __shared_count(const __weak_count<_Lp>& __r, std::nothrow_t);

      ~__shared_count() noexcept
      {
	if (_M_pi != nullptr)
   d424c:	9c03      	ldr	r4, [sp, #12]
   d424e:	b17c      	cbz	r4, d4270 <_Z22publishStateTransitionv+0x8c>
      if (--_M_use_count == 0)
   d4250:	6863      	ldr	r3, [r4, #4]
   d4252:	3b01      	subs	r3, #1
   d4254:	6063      	str	r3, [r4, #4]
   d4256:	b95b      	cbnz	r3, d4270 <_Z22publishStateTransitionv+0x8c>
          _M_dispose();
   d4258:	6823      	ldr	r3, [r4, #0]
   d425a:	4620      	mov	r0, r4
   d425c:	689b      	ldr	r3, [r3, #8]
   d425e:	4798      	blx	r3
          if (--_M_weak_count == 0)
   d4260:	68a3      	ldr	r3, [r4, #8]
   d4262:	3b01      	subs	r3, #1
   d4264:	60a3      	str	r3, [r4, #8]
   d4266:	b91b      	cbnz	r3, d4270 <_Z22publishStateTransitionv+0x8c>
            _M_destroy();
   d4268:	6823      	ldr	r3, [r4, #0]
   d426a:	4620      	mov	r0, r4
   d426c:	68db      	ldr	r3, [r3, #12]
   d426e:	4798      	blx	r3
	Log.info(stateTransitionString);
   d4270:	4809      	ldr	r0, [pc, #36]	; (d4298 <_Z22publishStateTransitionv+0xb4>)
   d4272:	a904      	add	r1, sp, #16
   d4274:	f7ff ff76 	bl	d4164 <_ZNK5spark6Logger4infoEPKcz>
}
   d4278:	b00f      	add	sp, #60	; 0x3c
   d427a:	bdf0      	pop	{r4, r5, r6, r7, pc}
   d427c:	2003dee8 	.word	0x2003dee8
   d4280:	2003deb0 	.word	0x2003deb0
   d4284:	2003db94 	.word	0x2003db94
   d4288:	000dccf4 	.word	0x000dccf4
   d428c:	2003dd68 	.word	0x2003dd68
   d4290:	2003dd60 	.word	0x2003dd60
   d4294:	000dcd02 	.word	0x000dcd02
   d4298:	2003e570 	.word	0x2003e570

000d429c <_GLOBAL__sub_I___appProductID>:
			return secondsToReturn;
		}
		else return 0;
    }
	else return 0;
   d429c:	b538      	push	{r3, r4, r5, lr}
        val_(val) {
   d429e:	4b24      	ldr	r3, [pc, #144]	; (d4330 <_GLOBAL__sub_I___appProductID+0x94>)
   d42a0:	2501      	movs	r5, #1
   d42a2:	701d      	strb	r5, [r3, #0]
#include "spark_protocol_functions.h"


struct __ApplicationProductID {
    __ApplicationProductID(product_id_t id) {
        spark_protocol_set_product_id(spark_protocol_instance(), id);
   d42a4:	f007 fd46 	bl	dbd34 <spark_protocol_instance>
   d42a8:	2300      	movs	r3, #0
   d42aa:	461a      	mov	r2, r3
   d42ac:	210d      	movs	r1, #13
   d42ae:	f007 fd49 	bl	dbd44 <spark_protocol_set_product_id>
    }
};

struct __ApplicationProductVersion {
    __ApplicationProductVersion(product_firmware_version_t version) {
        spark_protocol_set_product_firmware_version(spark_protocol_instance(), version);
   d42b2:	f007 fd3f 	bl	dbd34 <spark_protocol_instance>
   d42b6:	2300      	movs	r3, #0
   d42b8:	461a      	mov	r2, r3
   d42ba:	4619      	mov	r1, r3
   d42bc:	f007 fd4a 	bl	dbd54 <spark_protocol_set_product_firmware_version>
        : config_(config) {
   d42c0:	4b1c      	ldr	r3, [pc, #112]	; (d4334 <_GLOBAL__sub_I___appProductID+0x98>)
   d42c2:	461a      	mov	r2, r3
   d42c4:	1d19      	adds	r1, r3, #4
   d42c6:	f842 1b09 	str.w	r1, [r2], #9
              valid_(true) {
   d42ca:	2400      	movs	r4, #0
   d42cc:	f8a3 4009 	strh.w	r4, [r3, #9]
   d42d0:	7094      	strb	r4, [r2, #2]
        config_.size = sizeof(hal_sleep_config_t);
   d42d2:	4a19      	ldr	r2, [pc, #100]	; (d4338 <_GLOBAL__sub_I___appProductID+0x9c>)
              valid_(true) {
   d42d4:	751d      	strb	r5, [r3, #20]
        config_.wakeup_sources = nullptr;
   d42d6:	e9c3 4403 	strd	r4, r4, [r3, #12]
        config_.size = sizeof(hal_sleep_config_t);
   d42da:	605a      	str	r2, [r3, #4]
        config_.mode = HAL_SLEEP_MODE_NONE;
   d42dc:	721c      	strb	r4, [r3, #8]
MB85RC64 fram(Wire, 0);                             // Rickkas' FRAM library
   d42de:	f007 fe05 	bl	dbeec <_Z19__fetch_global_Wirev>
	 *
	 * @param addr The address 0-7 based on the setting of A0, A1 and A2.
	 *
	 * You typically create one of these objects as a global variable.
	 */
	MB85RC64(TwoWire &wire, int addr = 0) : MB85RC(wire, 8192, addr) {};
   d42e2:	4d16      	ldr	r5, [pc, #88]	; (d433c <_GLOBAL__sub_I___appProductID+0xa0>)
   d42e4:	4601      	mov	r1, r0
   d42e6:	4623      	mov	r3, r4
   d42e8:	f44f 5200 	mov.w	r2, #8192	; 0x2000
   d42ec:	4628      	mov	r0, r5
   d42ee:	f002 fef5 	bl	d70dc <_ZN6MB85RCC1ER7TwoWireji>
   d42f2:	4b13      	ldr	r3, [pc, #76]	; (d4340 <_GLOBAL__sub_I___appProductID+0xa4>)
   d42f4:	602b      	str	r3, [r5, #0]
AB1805 ab1805(Wire);                                // Rickkas' RTC / Watchdog library
   d42f6:	f007 fdf9 	bl	dbeec <_Z19__fetch_global_Wirev>
class LocalTimeSchedule {
public:
    /**
     * @brief Construct a new, empty schedule
     */
    LocalTimeSchedule() {
   d42fa:	4d12      	ldr	r5, [pc, #72]	; (d4344 <_GLOBAL__sub_I___appProductID+0xa8>)
   d42fc:	4601      	mov	r1, r0
   d42fe:	2269      	movs	r2, #105	; 0x69
   d4300:	4811      	ldr	r0, [pc, #68]	; (d4348 <_GLOBAL__sub_I___appProductID+0xac>)
   d4302:	f000 ff93 	bl	d522c <_ZN6AB1805C1ER7TwoWireh>
   d4306:	4628      	mov	r0, r5
   d4308:	4910      	ldr	r1, [pc, #64]	; (d434c <_GLOBAL__sub_I___appProductID+0xb0>)
   d430a:	f007 f8de 	bl	db4ca <_ZN6StringC1EPKc>
   d430e:	2300      	movs	r3, #0
};

/**
 * @brief Perform time conversions. This is the main class you will need.
 */
class LocalTimeConvert {
   d4310:	480f      	ldr	r0, [pc, #60]	; (d4350 <_GLOBAL__sub_I___appProductID+0xb4>)
    LocalTimeSchedule() {
   d4312:	612c      	str	r4, [r5, #16]
   d4314:	2200      	movs	r2, #0
   d4316:	e9c5 2306 	strd	r2, r3, [r5, #24]
	: _M_start(), _M_finish(), _M_end_of_storage()
   d431a:	e9c5 4408 	strd	r4, r4, [r5, #32]
class LocalTimeConvert {
   d431e:	2306      	movs	r3, #6
   d4320:	f840 3b04 	str.w	r3, [r0], #4
   d4324:	62ac      	str	r4, [r5, #40]	; 0x28
   d4326:	e8bd 4038 	ldmia.w	sp!, {r3, r4, r5, lr}
   d432a:	f001 bf25 	b.w	d6178 <_ZN22LocalTimePosixTimezoneC1Ev>
   d432e:	bf00      	nop
   d4330:	2003dd60 	.word	0x2003dd60
   d4334:	2003dd94 	.word	0x2003dd94
   d4338:	00030010 	.word	0x00030010
   d433c:	2003ddac 	.word	0x2003ddac
   d4340:	000dce44 	.word	0x000dce44
   d4344:	2003deb8 	.word	0x2003deb8
   d4348:	2003dd74 	.word	0x2003dd74
   d434c:	000dd935 	.word	0x000dd935
   d4350:	2003ddc0 	.word	0x2003ddc0

000d4354 <setup>:
void setup() {
   d4354:	b530      	push	{r4, r5, lr}
     * This is used during chip detection as FOUT goes high after the AB1805
     * is initialized. While FOUT is low, the I2C interface is not yet ready.
     * 
     * The FOUT/nIRQ pin is also used for one-time and periodic interrupts.
     */
    AB1805 &withFOUT(pin_t pin) { foutPin = pin; return *this; };
   d4356:	4c5a      	ldr	r4, [pc, #360]	; (d44c0 <setup+0x16c>)
   d4358:	b09f      	sub	sp, #124	; 0x7c
	delay(5000);	// Wait for serial 
   d435a:	f241 3088 	movw	r0, #5000	; 0x1388
   d435e:	f004 fdef 	bl	d8f40 <delay>
    initializePinModes();                           // Sets the pinModes
   d4362:	f000 fb6b 	bl	d4a3c <_Z18initializePinModesv>
    initializePowerCfg();                           // Sets the power configuration for solar
   d4366:	f000 fb81 	bl	d4a6c <_Z18initializePowerCfgv>
    storageObjectStart();                           // Sets up the storage for system and current status in storage_objects.h
   d436a:	f000 fde5 	bl	d4f38 <_Z18storageObjectStartv>
   d436e:	2308      	movs	r3, #8
        ab1805.withFOUT(D8).setup();                // The carrier board has D8 connected to FOUT for wake interrupts
   d4370:	4620      	mov	r0, r4
   d4372:	2101      	movs	r1, #1
   d4374:	8163      	strh	r3, [r4, #10]
   d4376:	f001 faeb 	bl	d5950 <_ZN6AB18055setupEb>
        ab1805.resetConfig();                       // Reset the AB1805 configuration to default values
   d437a:	2100      	movs	r1, #0
   d437c:	4620      	mov	r0, r4
   d437e:	f001 f8c9 	bl	d5514 <_ZN6AB180511resetConfigEm>
        ab1805.setWDT(AB1805::WATCHDOG_MAX_SECONDS);// Enable watchdog
   d4382:	217c      	movs	r1, #124	; 0x7c
   d4384:	4620      	mov	r0, r4
   d4386:	f001 f841 	bl	d540c <_ZN6AB18056setWDTEi>
	initializeLoRA();								// Start the LoRA radio
   d438a:	f000 fa25 	bl	d47d8 <_Z14initializeLoRAv>
	LocalTime::instance().withConfig(LocalTimePosixTimezone("EST5EDT,M3.2.0/2:00:00,M11.1.0/2:00:00"));			// East coast of the US
   d438e:	f002 f961 	bl	d6654 <_ZN9LocalTime8instanceEv>
   d4392:	494c      	ldr	r1, [pc, #304]	; (d44c4 <setup+0x170>)
   d4394:	4604      	mov	r4, r0
   d4396:	a808      	add	r0, sp, #32
   d4398:	f001 ffa0 	bl	d62dc <_ZN22LocalTimePosixTimezoneC1EPKc>
class LocalTimePosixTimezone {
   d439c:	a909      	add	r1, sp, #36	; 0x24
   d439e:	f104 0008 	add.w	r0, r4, #8
   d43a2:	f007 f8ce 	bl	db542 <_ZN6StringaSERKS_>
class LocalTimeHMS {
   d43a6:	9b0e      	ldr	r3, [sp, #56]	; 0x38
   d43a8:	61e3      	str	r3, [r4, #28]
class LocalTimePosixTimezone {
   d43aa:	a90f      	add	r1, sp, #60	; 0x3c
   d43ac:	f104 0020 	add.w	r0, r4, #32
   d43b0:	f007 f8c7 	bl	db542 <_ZN6StringaSERKS_>
class LocalTimeHMS {
   d43b4:	9b14      	ldr	r3, [sp, #80]	; 0x50
   d43b6:	6363      	str	r3, [r4, #52]	; 0x34
class LocalTimeChange {
   d43b8:	9b16      	ldr	r3, [sp, #88]	; 0x58
   d43ba:	63e3      	str	r3, [r4, #60]	; 0x3c
class LocalTimeHMS {
   d43bc:	9b18      	ldr	r3, [sp, #96]	; 0x60
   d43be:	6463      	str	r3, [r4, #68]	; 0x44
class LocalTimeChange {
   d43c0:	9b1a      	ldr	r3, [sp, #104]	; 0x68
   d43c2:	64e3      	str	r3, [r4, #76]	; 0x4c
class LocalTimeHMS {
   d43c4:	9b1c      	ldr	r3, [sp, #112]	; 0x70
   d43c6:	6563      	str	r3, [r4, #84]	; 0x54
class LocalTimePosixTimezone {
   d43c8:	f89d 3074 	ldrb.w	r3, [sp, #116]	; 0x74
   d43cc:	f884 3058 	strb.w	r3, [r4, #88]	; 0x58
   d43d0:	a808      	add	r0, sp, #32
   d43d2:	f001 fc0d 	bl	d5bf0 <_ZN22LocalTimePosixTimezoneD1Ev>
     * @brief Use the current time as the time to start with
     * 
     * This does not start the conversion; you must also call the convert() method after setting
     * all of the settings you want to use.
     */
    LocalTimeConvert &withCurrentTime() { this->time = Time.now(); return *this; };
   d43d6:	f007 faea 	bl	db9ae <_ZN9TimeClass3nowEv>
   d43da:	4c3b      	ldr	r4, [pc, #236]	; (d44c8 <setup+0x174>)
   d43dc:	17c1      	asrs	r1, r0, #31
   d43de:	e9c4 0118 	strd	r0, r1, [r4, #96]	; 0x60
	localTimeConvert_NOW.withCurrentTime().convert();  				        // Convert to local time for use later
   d43e2:	4620      	mov	r0, r4
   d43e4:	f002 f9ae 	bl	d6744 <_ZN16LocalTimeConvert7convertEv>
  	publishSchedule.withMinuteOfHour(sysStatus.frequencyMinutes, LocalTimeRange(LocalTimeHMS("06:00:00"), LocalTimeHMS("22:59:59")));	 // Publish every 15 minutes from 6am to 10pm
   d43e8:	4b38      	ldr	r3, [pc, #224]	; (d44cc <setup+0x178>)
   d43ea:	4939      	ldr	r1, [pc, #228]	; (d44d0 <setup+0x17c>)
   d43ec:	8b5d      	ldrh	r5, [r3, #26]
   d43ee:	a803      	add	r0, sp, #12
   d43f0:	f001 fd98 	bl	d5f24 <_ZN12LocalTimeHMSC1EPKc>
   d43f4:	4937      	ldr	r1, [pc, #220]	; (d44d4 <setup+0x180>)
   d43f6:	a805      	add	r0, sp, #20
   d43f8:	f001 fd94 	bl	d5f24 <_ZN12LocalTimeHMSC1EPKc>
   d43fc:	aa05      	add	r2, sp, #20
   d43fe:	a903      	add	r1, sp, #12
   d4400:	a808      	add	r0, sp, #32
   d4402:	f7ff fec7 	bl	d4194 <_ZN14LocalTimeRangeC1E12LocalTimeHMSS0_>
   d4406:	4629      	mov	r1, r5
   d4408:	aa08      	add	r2, sp, #32
   d440a:	4833      	ldr	r0, [pc, #204]	; (d44d8 <setup+0x184>)
   d440c:	f002 fe3f 	bl	d708e <_ZN17LocalTimeSchedule16withMinuteOfHourEi14LocalTimeRange>
   d4410:	a808      	add	r0, sp, #32
   d4412:	f7ff fed3 	bl	d41bc <_ZN14LocalTimeRangeD1Ev>
   d4416:	a805      	add	r0, sp, #20
   d4418:	f001 fbd2 	bl	d5bc0 <_ZN12LocalTimeHMSD1Ev>
   d441c:	a803      	add	r0, sp, #12
   d441e:	f001 fbcf 	bl	d5bc0 <_ZN12LocalTimeHMSD1Ev>
  	Log.info("Startup complete at %s with battery %4.2f", localTimeConvert_NOW.format(TIME_FORMAT_ISO8601_FULL).c_str(), System.batteryCharge());
   d4422:	4b2e      	ldr	r3, [pc, #184]	; (d44dc <setup+0x188>)
   d4424:	4621      	mov	r1, r4
   d4426:	681a      	ldr	r2, [r3, #0]
   d4428:	a808      	add	r0, sp, #32
   d442a:	f002 f86d 	bl	d6508 <_ZN16LocalTimeConvert6formatEPKc>
        AbstractDiagnosticData(id, name, type) {
}

template<typename UnderlyingTypeT>
inline int AbstractTypeDiagnosticData<UnderlyingTypeT>::get(DiagnosticDataId id, UnderlyingTypeT& val) {
    const diag_source* src = nullptr;
   d442e:	2200      	movs	r2, #0
    const int ret = diag_get_source(id, &src, nullptr);
   d4430:	a903      	add	r1, sp, #12
   d4432:	2003      	movs	r0, #3
   d4434:	9d08      	ldr	r5, [sp, #32]
    const diag_source* src = nullptr;
   d4436:	9203      	str	r2, [sp, #12]
    const int ret = diag_get_source(id, &src, nullptr);
   d4438:	f004 fc08 	bl	d8c4c <diag_get_source>
    if (ret != SYSTEM_ERROR_NONE) {
   d443c:	2800      	cmp	r0, #0
   d443e:	d13c      	bne.n	d44ba <setup+0x166>
        return ret;
    }
    return get(src, val);
   d4440:	9c03      	ldr	r4, [sp, #12]
    SPARK_ASSERT(src && src->callback);
   d4442:	b10c      	cbz	r4, d4448 <setup+0xf4>
   d4444:	6923      	ldr	r3, [r4, #16]
   d4446:	b923      	cbnz	r3, d4452 <setup+0xfe>
   d4448:	4a25      	ldr	r2, [pc, #148]	; (d44e0 <setup+0x18c>)
   d444a:	2100      	movs	r1, #0
   d444c:	200a      	movs	r0, #10
   d444e:	f004 fbd5 	bl	d8bfc <panic_>
    diag_source_get_cmd_data d = { sizeof(diag_source_get_cmd_data), 0 /* reserved */, data, size };
   d4452:	2300      	movs	r3, #0
   d4454:	f8ad 3016 	strh.w	r3, [sp, #22]
   d4458:	230c      	movs	r3, #12
   d445a:	f8ad 3014 	strh.w	r3, [sp, #20]
   d445e:	ab02      	add	r3, sp, #8
   d4460:	9306      	str	r3, [sp, #24]
   d4462:	2304      	movs	r3, #4
   d4464:	9307      	str	r3, [sp, #28]
    const int ret = src->callback(src, DIAG_SOURCE_CMD_GET, &d);
   d4466:	6923      	ldr	r3, [r4, #16]
   d4468:	aa05      	add	r2, sp, #20
   d446a:	2101      	movs	r1, #1
   d446c:	4620      	mov	r0, r4
   d446e:	4798      	blx	r3
        // XXX: we could potentially simply call FuelGauge::getNormalizedSoC(),
        // however in order to exactly match the vitals values sent to the cloud we are going to use
        // diagnostic source as well.
        particle::AbstractIntegerDiagnosticData::IntType val;
        int r = particle::AbstractIntegerDiagnosticData::get(DIAG_ID_SYSTEM_BATTERY_CHARGE, val);
        if (r) {
   d4470:	bb18      	cbnz	r0, d44ba <setup+0x166>
    StorageT value() const {
        return value_;
    }

    constexpr float toFloat() const {
        return static_cast<float>(value_) / constexpr_pow(2.0f, N);
   d4472:	f8bd 3008 	ldrh.w	r3, [sp, #8]
   d4476:	ee07 3a90 	vmov	s15, r3
   d447a:	eefb 7acc 	vcvt.f32.u32	s15, s15, #8
   d447e:	ee17 0a90 	vmov	r0, s15
   d4482:	f007 feef 	bl	dc264 <__aeabi_f2d>
   d4486:	462a      	mov	r2, r5
   d4488:	e9cd 0100 	strd	r0, r1, [sp]
   d448c:	4915      	ldr	r1, [pc, #84]	; (d44e4 <setup+0x190>)
   d448e:	4816      	ldr	r0, [pc, #88]	; (d44e8 <setup+0x194>)
   d4490:	f7ff fe68 	bl	d4164 <_ZNK5spark6Logger4infoEPKcz>
   d4494:	a808      	add	r0, sp, #32
   d4496:	f006 ffcd 	bl	db434 <_ZN6StringD1Ev>
  	attachInterrupt(BUTTON_PIN,userSwitchISR,CHANGE); // We may need to monitor the user switch to change behaviours / modes
   d449a:	4814      	ldr	r0, [pc, #80]	; (d44ec <setup+0x198>)
   d449c:	4914      	ldr	r1, [pc, #80]	; (d44f0 <setup+0x19c>)
   d449e:	8800      	ldrh	r0, [r0, #0]
   d44a0:	2200      	movs	r2, #0
   d44a2:	9200      	str	r2, [sp, #0]
   d44a4:	f04f 33ff 	mov.w	r3, #4294967295	; 0xffffffff
   d44a8:	f005 fb04 	bl	d9ab4 <_Z15attachInterrupttPFvvE13InterruptModeah>
	if (state == INITIALIZATION_STATE) state = LoRA_STATE;  // This is not a bad way to start - could also go to the LoRA_STATE
   d44ac:	4b11      	ldr	r3, [pc, #68]	; (d44f4 <setup+0x1a0>)
   d44ae:	781a      	ldrb	r2, [r3, #0]
   d44b0:	b90a      	cbnz	r2, d44b6 <setup+0x162>
   d44b2:	2204      	movs	r2, #4
   d44b4:	701a      	strb	r2, [r3, #0]
}
   d44b6:	b01f      	add	sp, #124	; 0x7c
   d44b8:	bd30      	pop	{r4, r5, pc}
            return -1.0f;
   d44ba:	eeff 7a00 	vmov.f32	s15, #240	; 0xbf800000 -1.0
   d44be:	e7de      	b.n	d447e <setup+0x12a>
   d44c0:	2003dd74 	.word	0x2003dd74
   d44c4:	000dcd13 	.word	0x000dcd13
   d44c8:	2003ddc0 	.word	0x2003ddc0
   d44cc:	2003e2c0 	.word	0x2003e2c0
   d44d0:	000dcd3a 	.word	0x000dcd3a
   d44d4:	000dcd43 	.word	0x000dcd43
   d44d8:	2003deb8 	.word	0x2003deb8
   d44dc:	2003dcf4 	.word	0x2003dcf4
   d44e0:	000d887d 	.word	0x000d887d
   d44e4:	000dcd4c 	.word	0x000dcd4c
   d44e8:	2003e570 	.word	0x2003e570
   d44ec:	000dcfe8 	.word	0x000dcfe8
   d44f0:	000d40c9 	.word	0x000d40c9
   d44f4:	2003dee8 	.word	0x2003dee8

000d44f8 <_Z21secondsUntilNextEventv.part.0>:
int secondsUntilNextEvent() {											// Time till next scheduled event
   d44f8:	b5f0      	push	{r4, r5, r6, r7, lr}
   d44fa:	b0c1      	sub	sp, #260	; 0x104
   d44fc:	f007 fa57 	bl	db9ae <_ZN9TimeClass3nowEv>
   d4500:	4e28      	ldr	r6, [pc, #160]	; (d45a4 <_Z21secondsUntilNextEventv.part.0+0xac>)
        Log.info("local time: %s", localTimeConvert_NOW.format(TIME_FORMAT_DEFAULT).c_str());
   d4502:	4f29      	ldr	r7, [pc, #164]	; (d45a8 <_Z21secondsUntilNextEventv.part.0+0xb0>)
   d4504:	17c1      	asrs	r1, r0, #31
   d4506:	e9c6 0118 	strd	r0, r1, [r6, #96]	; 0x60
        localTimeConvert_NOW.withCurrentTime().convert();
   d450a:	4630      	mov	r0, r6
   d450c:	f002 f91a 	bl	d6744 <_ZN16LocalTimeConvert7convertEv>
        Log.info("local time: %s", localTimeConvert_NOW.format(TIME_FORMAT_DEFAULT).c_str());
   d4510:	683a      	ldr	r2, [r7, #0]
   d4512:	4631      	mov	r1, r6
   d4514:	a804      	add	r0, sp, #16
   d4516:	f001 fff7 	bl	d6508 <_ZN16LocalTimeConvert6formatEPKc>
   d451a:	9a04      	ldr	r2, [sp, #16]
   d451c:	4923      	ldr	r1, [pc, #140]	; (d45ac <_Z21secondsUntilNextEventv.part.0+0xb4>)
   d451e:	4824      	ldr	r0, [pc, #144]	; (d45b0 <_Z21secondsUntilNextEventv.part.0+0xb8>)
   d4520:	f7ff fe20 	bl	d4164 <_ZNK5spark6Logger4infoEPKcz>
   d4524:	a804      	add	r0, sp, #16
   d4526:	f006 ff85 	bl	db434 <_ZN6StringD1Ev>
class LocalTimeConvert {
   d452a:	2306      	movs	r3, #6
   d452c:	a805      	add	r0, sp, #20
   d452e:	9304      	str	r3, [sp, #16]
   d4530:	f001 fe22 	bl	d6178 <_ZN22LocalTimePosixTimezoneC1Ev>
    LocalTimeConvert &withCurrentTime() { this->time = Time.now(); return *this; };
   d4534:	f007 fa3b 	bl	db9ae <_ZN9TimeClass3nowEv>
   d4538:	17c1      	asrs	r1, r0, #31
   d453a:	e9cd 011c 	strd	r0, r1, [sp, #112]	; 0x70
        localTimeConvert_NEXT.withCurrentTime().convert();
   d453e:	a804      	add	r0, sp, #16
   d4540:	f002 f900 	bl	d6744 <_ZN16LocalTimeConvert7convertEv>
		if (publishSchedule.getNextScheduledTime(localTimeConvert_NEXT)) {
   d4544:	481b      	ldr	r0, [pc, #108]	; (d45b4 <_Z21secondsUntilNextEventv.part.0+0xbc>)
   d4546:	a904      	add	r1, sp, #16
   d4548:	f002 fc4c 	bl	d6de4 <_ZNK17LocalTimeSchedule20getNextScheduledTimeER16LocalTimeConvert>
   d454c:	b340      	cbz	r0, d45a0 <_Z21secondsUntilNextEventv.part.0+0xa8>
			long unsigned secondsToReturn = constrain(localTimeConvert_NEXT.time - localTimeConvert_NOW.time, 0L, 86400L);	// Constrain to positive seconds less than or equal to a day.
   d454e:	e9d6 3118 	ldrd	r3, r1, [r6, #96]	; 0x60
   d4552:	9a1c      	ldr	r2, [sp, #112]	; 0x70
   d4554:	1ad4      	subs	r4, r2, r3
   d4556:	9b1d      	ldr	r3, [sp, #116]	; 0x74
typename std::common_type<T, U>::type
min (T a, U b) { return static_cast<typename std::common_type<T, U>::type>((a)<(b)?(a):(b)); }

template <typename T, typename U, typename V>
static inline
T constrain (T amt, U low, V high) { return ((amt)<(low)?(low):((amt)>(high)?(high):(amt))); }
   d4558:	4a17      	ldr	r2, [pc, #92]	; (d45b8 <_Z21secondsUntilNextEventv.part.0+0xc0>)
   d455a:	eb63 0501 	sbc.w	r5, r3, r1
   d455e:	42a2      	cmp	r2, r4
   d4560:	f04f 0300 	mov.w	r3, #0
   d4564:	eb73 0105 	sbcs.w	r1, r3, r5
   d4568:	bfbc      	itt	lt
   d456a:	4614      	movlt	r4, r2
   d456c:	461d      	movlt	r5, r3
   d456e:	2c00      	cmp	r4, #0
   d4570:	f175 0300 	sbcs.w	r3, r5, #0
   d4574:	bfb8      	it	lt
   d4576:	2400      	movlt	r4, #0
        	Log.info("time of next event is: %s which is %lu seconds away", localTimeConvert_NEXT.format(TIME_FORMAT_DEFAULT).c_str(), secondsToReturn);
   d4578:	683a      	ldr	r2, [r7, #0]
   d457a:	a904      	add	r1, sp, #16
   d457c:	4668      	mov	r0, sp
   d457e:	f001 ffc3 	bl	d6508 <_ZN16LocalTimeConvert6formatEPKc>
   d4582:	480b      	ldr	r0, [pc, #44]	; (d45b0 <_Z21secondsUntilNextEventv.part.0+0xb8>)
   d4584:	9a00      	ldr	r2, [sp, #0]
   d4586:	490d      	ldr	r1, [pc, #52]	; (d45bc <_Z21secondsUntilNextEventv.part.0+0xc4>)
   d4588:	4623      	mov	r3, r4
   d458a:	f7ff fdeb 	bl	d4164 <_ZNK5spark6Logger4infoEPKcz>
   d458e:	4668      	mov	r0, sp
   d4590:	f006 ff50 	bl	db434 <_ZN6StringD1Ev>
class LocalTimeConvert {
   d4594:	a805      	add	r0, sp, #20
   d4596:	f001 fb2b 	bl	d5bf0 <_ZN22LocalTimePosixTimezoneD1Ev>
   d459a:	4620      	mov	r0, r4
   d459c:	b041      	add	sp, #260	; 0x104
   d459e:	bdf0      	pop	{r4, r5, r6, r7, pc}
		else return 0;
   d45a0:	4604      	mov	r4, r0
   d45a2:	e7f7      	b.n	d4594 <_Z21secondsUntilNextEventv.part.0+0x9c>
   d45a4:	2003ddc0 	.word	0x2003ddc0
   d45a8:	2003dcf0 	.word	0x2003dcf0
   d45ac:	000dcd76 	.word	0x000dcd76
   d45b0:	2003e570 	.word	0x2003e570
   d45b4:	2003deb8 	.word	0x2003deb8
   d45b8:	00015180 	.word	0x00015180
   d45bc:	000dcd85 	.word	0x000dcd85

000d45c0 <_Z21secondsUntilNextEventv>:
int secondsUntilNextEvent() {											// Time till next scheduled event
   d45c0:	b508      	push	{r3, lr}
   if (Time.isValid()) {
   d45c2:	f007 f9d7 	bl	db974 <_ZN9TimeClass7isValidEv>
   d45c6:	b118      	cbz	r0, d45d0 <_Z21secondsUntilNextEventv+0x10>
   d45c8:	e8bd 4008 	ldmia.w	sp!, {r3, lr}
   d45cc:	f7ff bf94 	b.w	d44f8 <_Z21secondsUntilNextEventv.part.0>
   d45d0:	bd08      	pop	{r3, pc}
	...

000d45d4 <loop>:
void loop() {
   d45d4:	e92d 41f0 	stmdb	sp!, {r4, r5, r6, r7, r8, lr}
	switch (state) {
   d45d8:	4d6c      	ldr	r5, [pc, #432]	; (d478c <loop+0x1b8>)
   d45da:	782b      	ldrb	r3, [r5, #0]
   d45dc:	2b03      	cmp	r3, #3
void loop() {
   d45de:	b090      	sub	sp, #64	; 0x40
	switch (state) {
   d45e0:	d012      	beq.n	d4608 <loop+0x34>
   d45e2:	2b04      	cmp	r3, #4
   d45e4:	f000 8083 	beq.w	d46ee <loop+0x11a>
   d45e8:	2b02      	cmp	r3, #2
   d45ea:	d175      	bne.n	d46d8 <loop+0x104>
			if (state != oldState) publishStateTransition();                   // We will apply the back-offs before sending to ERROR state - so if we are here we will take action
   d45ec:	4b68      	ldr	r3, [pc, #416]	; (d4790 <loop+0x1bc>)
   d45ee:	781b      	ldrb	r3, [r3, #0]
   d45f0:	2b02      	cmp	r3, #2
   d45f2:	d001      	beq.n	d45f8 <loop+0x24>
   d45f4:	f7ff fdf6 	bl	d41e4 <_Z22publishStateTransitionv>
			if (publishSchedule.isScheduledTime()) state = LoRA_STATE;		   // See Time section in setup for schedule
   d45f8:	4866      	ldr	r0, [pc, #408]	; (d4794 <loop+0x1c0>)
   d45fa:	f002 fc29 	bl	d6e50 <_ZN17LocalTimeSchedule15isScheduledTimeEv>
   d45fe:	2800      	cmp	r0, #0
   d4600:	d06a      	beq.n	d46d8 <loop+0x104>
   d4602:	2304      	movs	r3, #4
			if ((millis() - startLoRAWindow) > 300000L) state = IDLE_STATE;	// This is a fail safe to make sure an off-line client won't prevent gatewat from checking in - and setting its clock
   d4604:	702b      	strb	r3, [r5, #0]
   d4606:	e067      	b.n	d46d8 <loop+0x104>
			if (state != oldState) publishStateTransition();                   // We will apply the back-offs before sending to ERROR state - so if we are here we will take action
   d4608:	4b61      	ldr	r3, [pc, #388]	; (d4790 <loop+0x1bc>)
   d460a:	781b      	ldrb	r3, [r3, #0]
   d460c:	2b03      	cmp	r3, #3
   d460e:	d001      	beq.n	d4614 <loop+0x40>
   d4610:	f7ff fde8 	bl	d41e4 <_Z22publishStateTransitionv>
     * @brief Stops the watchdog timer. Useful before entering sleep mode.
     * 
     * This is done automatically right before reset (using the reset system event)
     * so the watchdog won't trigger during a firmware update. 
     */
    bool stopWDT() { return setWDT(0); };
   d4614:	2100      	movs	r1, #0
   d4616:	4860      	ldr	r0, [pc, #384]	; (d4798 <loop+0x1c4>)
   d4618:	f000 fef8 	bl	d540c <_ZN6AB18056setWDTEi>
			int wakeInSeconds = secondsUntilNextEvent()-10;  		   		   // Subtracting ten seconds to reduce prospect of round tripping to IDLE
   d461c:	f7ff ffd0 	bl	d45c0 <_Z21secondsUntilNextEventv>
   d4620:	f1a0 070a 	sub.w	r7, r0, #10
			Log.info("Sleep for %i seconds", wakeInSeconds);
   d4624:	463a      	mov	r2, r7
   d4626:	495d      	ldr	r1, [pc, #372]	; (d479c <loop+0x1c8>)
   d4628:	485d      	ldr	r0, [pc, #372]	; (d47a0 <loop+0x1cc>)
   d462a:	f7ff fd9b 	bl	d4164 <_ZNK5spark6Logger4infoEPKcz>
        if (valid_) {
   d462e:	4b5d      	ldr	r3, [pc, #372]	; (d47a4 <loop+0x1d0>)
   d4630:	7d1a      	ldrb	r2, [r3, #20]
   d4632:	b10a      	cbz	r2, d4638 <loop+0x64>
            config_.mode = static_cast<hal_sleep_mode_t>(mode);
   d4634:	2202      	movs	r2, #2
   d4636:	721a      	strb	r2, [r3, #8]
				.gpio(BUTTON_PIN,CHANGE)
   d4638:	4b5b      	ldr	r3, [pc, #364]	; (d47a8 <loop+0x1d4>)
   d463a:	485a      	ldr	r0, [pc, #360]	; (d47a4 <loop+0x1d0>)
   d463c:	f8b3 8000 	ldrh.w	r8, [r3]
   d4640:	2200      	movs	r2, #0
   d4642:	4641      	mov	r1, r8
   d4644:	f7ff fd5a 	bl	d40fc <_ZN8particle24SystemSleepConfiguration4gpioEt13InterruptMode>

    SystemSleepConfiguration& duration(system_tick_t ms) {
        if (valid_) {
   d4648:	7d03      	ldrb	r3, [r0, #20]
   d464a:	4606      	mov	r6, r0
   d464c:	b1fb      	cbz	r3, d468e <loop+0xba>
        return wakeupSourceFeatured(type, config_->wakeup_sources);
   d464e:	6833      	ldr	r3, [r6, #0]
				.duration(wakeInSeconds * 1000L);
   d4650:	f44f 707a 	mov.w	r0, #1000	; 0x3e8
   d4654:	68db      	ldr	r3, [r3, #12]
   d4656:	4347      	muls	r7, r0
        if (!start) {
   d4658:	b12b      	cbz	r3, d4666 <loop+0x92>
            if (start->type == type) {
   d465a:	889a      	ldrh	r2, [r3, #4]
   d465c:	2a04      	cmp	r2, #4
   d465e:	f000 8092 	beq.w	d4786 <loop+0x1b2>
            start = start->next;
   d4662:	689b      	ldr	r3, [r3, #8]
        while (start) {
   d4664:	e7f8      	b.n	d4658 <loop+0x84>
            if (wakeup) {
                reinterpret_cast<hal_wakeup_source_rtc_t*>(wakeup)->ms = ms;
                return *this;
            }
            // Otherwise, configure RTC as wakeup source.
            auto wakeupSource = new(std::nothrow) hal_wakeup_source_rtc_t();
   d4666:	4951      	ldr	r1, [pc, #324]	; (d47ac <loop+0x1d8>)
   d4668:	2010      	movs	r0, #16
   d466a:	f007 fc89 	bl	dbf80 <_ZnwjRKSt9nothrow_t>
   d466e:	4604      	mov	r4, r0
   d4670:	2800      	cmp	r0, #0
   d4672:	f000 8086 	beq.w	d4782 <loop+0x1ae>
   d4676:	2210      	movs	r2, #16
   d4678:	2100      	movs	r1, #0
   d467a:	f008 f933 	bl	dc8e4 <memset>
            if (!wakeupSource) {
                valid_ = false;
                return *this;
            }
            wakeupSource->base.size = sizeof(hal_wakeup_source_rtc_t);
   d467e:	4b4c      	ldr	r3, [pc, #304]	; (d47b0 <loop+0x1dc>)
   d4680:	6023      	str	r3, [r4, #0]
            wakeupSource->base.version = HAL_SLEEP_VERSION;
            wakeupSource->base.type = HAL_WAKEUP_SOURCE_TYPE_RTC;
   d4682:	2304      	movs	r3, #4
   d4684:	80a3      	strh	r3, [r4, #4]
            wakeupSource->base.next = config_.wakeup_sources;
   d4686:	6933      	ldr	r3, [r6, #16]
            wakeupSource->ms = ms;
   d4688:	e9c4 3702 	strd	r3, r7, [r4, #8]
            config_.wakeup_sources = reinterpret_cast<hal_wakeup_source_base_t*>(wakeupSource);
   d468c:	6134      	str	r4, [r6, #16]
			SystemSleepResult result = System.sleep(config);                   // Put the device to sleep device continues operations from here
   d468e:	4945      	ldr	r1, [pc, #276]	; (d47a4 <loop+0x1d0>)
   d4690:	a802      	add	r0, sp, #8
   d4692:	f006 fff3 	bl	db67c <_ZN11SystemClass5sleepERKN8particle24SystemSleepConfigurationE>
     * sleep modes where executinon continues. You may also want to call `updateWakeReason()`.
     * 
     * It's safe to call resumeWDT() even if the WDT has never been set, it does nothing
     * in this case, leaving the watchdog off.
     */
    bool resumeWDT() { return setWDT(-1); };
   d4696:	4840      	ldr	r0, [pc, #256]	; (d4798 <loop+0x1c4>)
   d4698:	f04f 31ff 	mov.w	r1, #4294967295	; 0xffffffff
   d469c:	f000 feb6 	bl	d540c <_ZN6AB18056setWDTEi>
        if (wakeupReason() == SystemSleepWakeupReason::BY_GPIO) {
   d46a0:	9b02      	ldr	r3, [sp, #8]
        if (wakeupSource_) {
   d46a2:	b30b      	cbz	r3, d46e8 <loop+0x114>
        if (wakeupReason() == SystemSleepWakeupReason::BY_GPIO) {
   d46a4:	889a      	ldrh	r2, [r3, #4]
   d46a6:	2a01      	cmp	r2, #1
   d46a8:	d11e      	bne.n	d46e8 <loop+0x114>
            return reinterpret_cast<hal_wakeup_source_gpio_t*>(wakeupSource_)->pin;
   d46aa:	899b      	ldrh	r3, [r3, #12]
			if (result.wakeupPin() == BUTTON_PIN) {                            // If the user woke the device we need to get up - device was sleeping so we need to reset opening hours
   d46ac:	4598      	cmp	r8, r3
   d46ae:	d10d      	bne.n	d46cc <loop+0xf8>
				setLowPowerMode("0");                                          // We are waking the device for a reason
   d46b0:	4940      	ldr	r1, [pc, #256]	; (d47b4 <loop+0x1e0>)
   d46b2:	a805      	add	r0, sp, #20
   d46b4:	f006 ff09 	bl	db4ca <_ZN6StringC1EPKc>
   d46b8:	a805      	add	r0, sp, #20
   d46ba:	f000 fa4f 	bl	d4b5c <_Z15setLowPowerMode6String>
   d46be:	a805      	add	r0, sp, #20
   d46c0:	f006 feb8 	bl	db434 <_ZN6StringD1Ev>
				Log.info("Woke with user button - normal operations");
   d46c4:	493c      	ldr	r1, [pc, #240]	; (d47b8 <loop+0x1e4>)
   d46c6:	4836      	ldr	r0, [pc, #216]	; (d47a0 <loop+0x1cc>)
   d46c8:	f7ff fd4c 	bl	d4164 <_ZNK5spark6Logger4infoEPKcz>
        if (wakeupSource_) {
   d46cc:	9802      	ldr	r0, [sp, #8]
			state = IDLE_STATE;
   d46ce:	2302      	movs	r3, #2
   d46d0:	702b      	strb	r3, [r5, #0]
   d46d2:	b108      	cbz	r0, d46d8 <loop+0x104>
            free(wakeupSource_);
   d46d4:	f004 fbcc 	bl	d8e70 <free>
	ab1805.loop();                                  // Keeps the RTC synchronized with the Boron's clock
   d46d8:	482f      	ldr	r0, [pc, #188]	; (d4798 <loop+0x1c4>)
   d46da:	f001 fa19 	bl	d5b10 <_ZN6AB18054loopEv>
    storageObjectLoop();                            // Compares current system and current objects and stores if the hash changes (once / second) in storage_objects.h
   d46de:	f000 fbb5 	bl	d4e4c <_Z17storageObjectLoopv>
}
   d46e2:	b010      	add	sp, #64	; 0x40
   d46e4:	e8bd 81f0 	ldmia.w	sp!, {r4, r5, r6, r7, r8, pc}
            return std::numeric_limits<pin_t>::max();
   d46e8:	f64f 73ff 	movw	r3, #65535	; 0xffff
   d46ec:	e7de      	b.n	d46ac <loop+0xd8>
			if (state != oldState) {
   d46ee:	4b28      	ldr	r3, [pc, #160]	; (d4790 <loop+0x1bc>)
   d46f0:	4e32      	ldr	r6, [pc, #200]	; (d47bc <loop+0x1e8>)
   d46f2:	781b      	ldrb	r3, [r3, #0]
   d46f4:	2b04      	cmp	r3, #4
   d46f6:	d016      	beq.n	d4726 <loop+0x152>
				publishStateTransition();                   // We will apply the back-offs before sending to ERROR state - so if we are here we will take action
   d46f8:	f7ff fd74 	bl	d41e4 <_Z22publishStateTransitionv>
				takeMeasurements();
   d46fc:	f000 fd2c 	bl	d5158 <_Z16takeMeasurementsv>
   d4700:	f004 f8c4 	bl	d888c <HAL_Timer_Get_Milli_Seconds>
				startLoRAWindow = millis();              	// Mark when we enter this state - for timeouts
   d4704:	6030      	str	r0, [r6, #0]
				int randomDelay = random(10);
   d4706:	200a      	movs	r0, #10
   d4708:	f006 fdb9 	bl	db27e <_Z6randomi>
				Log.info("Node is preparing to send report with a randomDelay of %i", randomDelay);
   d470c:	492c      	ldr	r1, [pc, #176]	; (d47c0 <loop+0x1ec>)
   d470e:	4602      	mov	r2, r0
				int randomDelay = random(10);
   d4710:	4604      	mov	r4, r0
				Log.info("Node is preparing to send report with a randomDelay of %i", randomDelay);
   d4712:	4823      	ldr	r0, [pc, #140]	; (d47a0 <loop+0x1cc>)
   d4714:	f7ff fd26 	bl	d4164 <_ZNK5spark6Logger4infoEPKcz>
				delay(randomDelay *1000);
   d4718:	f44f 707a 	mov.w	r0, #1000	; 0x3e8
   d471c:	4360      	muls	r0, r4
   d471e:	f004 fc0f 	bl	d8f40 <delay>
				composeDataReportNode();							// Initiate send data report
   d4722:	f000 f885 	bl	d4830 <_Z21composeDataReportNodev>
			if (receiveAcknowledmentDataReportNode()) {					// Listen for acknowledgement
   d4726:	f000 f8f7 	bl	d4918 <_Z34receiveAcknowledmentDataReportNodev>
   d472a:	b308      	cbz	r0, d4770 <loop+0x19c>
				publishSchedule.withMinuteOfHour(sysStatus.frequencyMinutes, LocalTimeRange(LocalTimeHMS("06:00:00"), LocalTimeHMS("21:59:59")));	 // Publish every 15 minutes from 6am to 10pm
   d472c:	4b25      	ldr	r3, [pc, #148]	; (d47c4 <loop+0x1f0>)
   d472e:	4926      	ldr	r1, [pc, #152]	; (d47c8 <loop+0x1f4>)
   d4730:	8b5c      	ldrh	r4, [r3, #26]
   d4732:	4668      	mov	r0, sp
   d4734:	f001 fbf6 	bl	d5f24 <_ZN12LocalTimeHMSC1EPKc>
   d4738:	4924      	ldr	r1, [pc, #144]	; (d47cc <loop+0x1f8>)
   d473a:	a802      	add	r0, sp, #8
   d473c:	f001 fbf2 	bl	d5f24 <_ZN12LocalTimeHMSC1EPKc>
   d4740:	aa02      	add	r2, sp, #8
   d4742:	4669      	mov	r1, sp
   d4744:	a805      	add	r0, sp, #20
   d4746:	f7ff fd25 	bl	d4194 <_ZN14LocalTimeRangeC1E12LocalTimeHMSS0_>
   d474a:	aa05      	add	r2, sp, #20
   d474c:	4621      	mov	r1, r4
   d474e:	4811      	ldr	r0, [pc, #68]	; (d4794 <loop+0x1c0>)
   d4750:	f002 fc9d 	bl	d708e <_ZN17LocalTimeSchedule16withMinuteOfHourEi14LocalTimeRange>
   d4754:	a805      	add	r0, sp, #20
   d4756:	f7ff fd31 	bl	d41bc <_ZN14LocalTimeRangeD1Ev>
   d475a:	a802      	add	r0, sp, #8
   d475c:	f001 fa30 	bl	d5bc0 <_ZN12LocalTimeHMSD1Ev>
   d4760:	4668      	mov	r0, sp
   d4762:	f001 fa2d 	bl	d5bc0 <_ZN12LocalTimeHMSD1Ev>
				current.hourly = 0;							// Zero the hourly count
   d4766:	4b1a      	ldr	r3, [pc, #104]	; (d47d0 <loop+0x1fc>)
   d4768:	2200      	movs	r2, #0
   d476a:	839a      	strh	r2, [r3, #28]
				state = IDLE_STATE;
   d476c:	2302      	movs	r3, #2
   d476e:	702b      	strb	r3, [r5, #0]
   d4770:	f004 f88c 	bl	d888c <HAL_Timer_Get_Milli_Seconds>
			if ((millis() - startLoRAWindow) > 300000L) state = IDLE_STATE;	// This is a fail safe to make sure an off-line client won't prevent gatewat from checking in - and setting its clock
   d4774:	6833      	ldr	r3, [r6, #0]
   d4776:	1ac0      	subs	r0, r0, r3
   d4778:	4b16      	ldr	r3, [pc, #88]	; (d47d4 <loop+0x200>)
   d477a:	4298      	cmp	r0, r3
   d477c:	d9ac      	bls.n	d46d8 <loop+0x104>
   d477e:	2302      	movs	r3, #2
   d4780:	e740      	b.n	d4604 <loop+0x30>
                valid_ = false;
   d4782:	7530      	strb	r0, [r6, #20]
                return *this;
   d4784:	e783      	b.n	d468e <loop+0xba>
                reinterpret_cast<hal_wakeup_source_rtc_t*>(wakeup)->ms = ms;
   d4786:	60df      	str	r7, [r3, #12]
                return *this;
   d4788:	e781      	b.n	d468e <loop+0xba>
   d478a:	bf00      	nop
   d478c:	2003dee8 	.word	0x2003dee8
   d4790:	2003deb0 	.word	0x2003deb0
   d4794:	2003deb8 	.word	0x2003deb8
   d4798:	2003dd74 	.word	0x2003dd74
   d479c:	000dcdb9 	.word	0x000dcdb9
   d47a0:	2003e570 	.word	0x2003e570
   d47a4:	2003dd94 	.word	0x2003dd94
   d47a8:	000dcfe8 	.word	0x000dcfe8
   d47ac:	000ddab4 	.word	0x000ddab4
   d47b0:	00030010 	.word	0x00030010
   d47b4:	000dd478 	.word	0x000dd478
   d47b8:	000dcdce 	.word	0x000dcdce
   d47bc:	2003dd70 	.word	0x2003dd70
   d47c0:	000dcdf8 	.word	0x000dcdf8
   d47c4:	2003e2c0 	.word	0x2003e2c0
   d47c8:	000dcd3a 	.word	0x000dcd3a
   d47cc:	000dce32 	.word	0x000dce32
   d47d0:	2003e2a0 	.word	0x2003e2a0
   d47d4:	000493e0 	.word	0x000493e0

000d47d8 <_Z14initializeLoRAv>:
 * @brief Initialize the LoRA radio - this is a common step for nodes and gateways
 * 
 * @return true - initialization successful
 * @return false - initialization failed
 */
bool initializeLoRA() {
   d47d8:	b510      	push	{r4, lr}
 	// Set up the Radio Module
	if (!manager.init()) {
   d47da:	480e      	ldr	r0, [pc, #56]	; (d4814 <_Z14initializeLoRAv+0x3c>)
   d47dc:	f003 fad8 	bl	d7d90 <_ZN8RHRouter4initEv>
   d47e0:	4604      	mov	r4, r0
   d47e2:	b928      	cbnz	r0, d47f0 <_Z14initializeLoRAv+0x18>
		Log.info("init failed");	// Defaults after init are 434.0MHz, 0.05MHz AFC pull-in, modulation FSK_Rb2_4Fd36
   d47e4:	490c      	ldr	r1, [pc, #48]	; (d4818 <_Z14initializeLoRAv+0x40>)
   d47e6:	480d      	ldr	r0, [pc, #52]	; (d481c <_Z14initializeLoRAv+0x44>)
   d47e8:	f7ff fcbc 	bl	d4164 <_ZNK5spark6Logger4infoEPKcz>
	}
	driver.setFrequency(RF95_FREQ);					// Frequency is typically 868.0 or 915.0 in the Americas, or 433.0 in the EU - Are there more settings possible here?
	driver.setTxPower(23, false);                   // If you are using RFM95/96/97/98 modules which uses the PA_BOOST transmitter pin, then you can set transmitter powers from 5 to 23 dBm (13dBm default).  PA_BOOST?
	Log.info("LoRA Radio initialized as NodeNumber of %i and DeviceID of %i", sysStatus.nodeNumber, sysStatus.deviceID);
	return true;
}
   d47ec:	4620      	mov	r0, r4
   d47ee:	bd10      	pop	{r4, pc}
	driver.setFrequency(RF95_FREQ);					// Frequency is typically 868.0 or 915.0 in the Americas, or 433.0 in the EU - Are there more settings possible here?
   d47f0:	ed9f 0a0b 	vldr	s0, [pc, #44]	; d4820 <_Z14initializeLoRAv+0x48>
   d47f4:	480b      	ldr	r0, [pc, #44]	; (d4824 <_Z14initializeLoRAv+0x4c>)
   d47f6:	f003 fda3 	bl	d8340 <_ZN7RH_RF9512setFrequencyEf>
	driver.setTxPower(23, false);                   // If you are using RFM95/96/97/98 modules which uses the PA_BOOST transmitter pin, then you can set transmitter powers from 5 to 23 dBm (13dBm default).  PA_BOOST?
   d47fa:	480a      	ldr	r0, [pc, #40]	; (d4824 <_Z14initializeLoRAv+0x4c>)
   d47fc:	2200      	movs	r2, #0
   d47fe:	2117      	movs	r1, #23
   d4800:	f003 ff18 	bl	d8634 <_ZN7RH_RF9510setTxPowerEab>
	Log.info("LoRA Radio initialized as NodeNumber of %i and DeviceID of %i", sysStatus.nodeNumber, sysStatus.deviceID);
   d4804:	4a08      	ldr	r2, [pc, #32]	; (d4828 <_Z14initializeLoRAv+0x50>)
   d4806:	4909      	ldr	r1, [pc, #36]	; (d482c <_Z14initializeLoRAv+0x54>)
   d4808:	8813      	ldrh	r3, [r2, #0]
   d480a:	4804      	ldr	r0, [pc, #16]	; (d481c <_Z14initializeLoRAv+0x44>)
   d480c:	8852      	ldrh	r2, [r2, #2]
   d480e:	f7ff fca9 	bl	d4164 <_ZNK5spark6Logger4infoEPKcz>
	return true;
   d4812:	e7eb      	b.n	d47ec <_Z14initializeLoRAv+0x14>
   d4814:	2003e118 	.word	0x2003e118
   d4818:	000dce58 	.word	0x000dce58
   d481c:	2003e570 	.word	0x2003e570
   d4820:	4464c000 	.word	0x4464c000
   d4824:	2003dfe4 	.word	0x2003dfe4
   d4828:	2003e2c0 	.word	0x2003e2c0
   d482c:	000dce64 	.word	0x000dce64

000d4830 <_Z21composeDataReportNodev>:
}

// ************************************************************************
// *****                         Node Functions                       *****
// ************************************************************************
bool composeDataReportNode() {
   d4830:	b573      	push	{r0, r1, r4, r5, r6, lr}
	Log.info("Sending data report to Gateway");
   d4832:	492d      	ldr	r1, [pc, #180]	; (d48e8 <_Z21composeDataReportNodev+0xb8>)
   d4834:	482d      	ldr	r0, [pc, #180]	; (d48ec <_Z21composeDataReportNodev+0xbc>)
	digitalWrite(BLUE_LED,HIGH);

	static uint8_t msgCnt = 0;

	buf[0] = highByte(sysStatus.nodeNumber);								// to be replaced/updated
   d4836:	4c2e      	ldr	r4, [pc, #184]	; (d48f0 <_Z21composeDataReportNodev+0xc0>)
	Log.info("Sending data report to Gateway");
   d4838:	f7ff fc94 	bl	d4164 <_ZNK5spark6Logger4infoEPKcz>
	digitalWrite(BLUE_LED,HIGH);
   d483c:	4b2d      	ldr	r3, [pc, #180]	; (d48f4 <_Z21composeDataReportNodev+0xc4>)
   d483e:	881e      	ldrh	r6, [r3, #0]
   d4840:	2101      	movs	r1, #1
   d4842:	4630      	mov	r0, r6
   d4844:	f007 fadd 	bl	dbe02 <digitalWrite>
	buf[0] = highByte(sysStatus.nodeNumber);								// to be replaced/updated
   d4848:	4a2b      	ldr	r2, [pc, #172]	; (d48f8 <_Z21composeDataReportNodev+0xc8>)
   d484a:	8853      	ldrh	r3, [r2, #2]
	buf[1] = lowByte(sysStatus.nodeNumber);								// to be replaced/updated
   d484c:	7063      	strb	r3, [r4, #1]
	buf[0] = highByte(sysStatus.nodeNumber);								// to be replaced/updated
   d484e:	1219      	asrs	r1, r3, #8
	buf[2] = highByte(sysStatus.deviceID);					// Set for device
   d4850:	8813      	ldrh	r3, [r2, #0]
	buf[0] = highByte(sysStatus.nodeNumber);								// to be replaced/updated
   d4852:	7021      	strb	r1, [r4, #0]
	buf[3] = lowByte(sysStatus.deviceID);
   d4854:	70e3      	strb	r3, [r4, #3]
	buf[2] = highByte(sysStatus.deviceID);					// Set for device
   d4856:	1219      	asrs	r1, r3, #8
	buf[4] = 1;						// Set for code release - fix later
	buf[5] = highByte(current.hourly);
   d4858:	4b28      	ldr	r3, [pc, #160]	; (d48fc <_Z21composeDataReportNodev+0xcc>)
	buf[2] = highByte(sysStatus.deviceID);					// Set for device
   d485a:	70a1      	strb	r1, [r4, #2]
	buf[5] = highByte(current.hourly);
   d485c:	8b99      	ldrh	r1, [r3, #28]
	buf[6] = lowByte(current.hourly); 
   d485e:	71a1      	strb	r1, [r4, #6]
	buf[5] = highByte(current.hourly);
   d4860:	1208      	asrs	r0, r1, #8
	buf[7] = highByte(current.daily);
   d4862:	8bd9      	ldrh	r1, [r3, #30]
	buf[5] = highByte(current.hourly);
   d4864:	7160      	strb	r0, [r4, #5]
	buf[8] = lowByte(current.daily); 
   d4866:	7221      	strb	r1, [r4, #8]
	buf[7] = highByte(current.daily);
   d4868:	1208      	asrs	r0, r1, #8
	buf[9] = current.internalTempC;
   d486a:	7819      	ldrb	r1, [r3, #0]
   d486c:	7261      	strb	r1, [r4, #9]
	buf[10] = current.stateOfCharge;
   d486e:	6859      	ldr	r1, [r3, #4]
	buf[11] = current.batteryState;	
   d4870:	7a1b      	ldrb	r3, [r3, #8]
   d4872:	72e3      	strb	r3, [r4, #11]
	buf[12] = sysStatus.resetCount;
   d4874:	68d3      	ldr	r3, [r2, #12]
	buf[7] = highByte(current.daily);
   d4876:	71e0      	strb	r0, [r4, #7]
	buf[12] = sysStatus.resetCount;
   d4878:	7323      	strb	r3, [r4, #12]
	buf[4] = 1;						// Set for code release - fix later
   d487a:	2501      	movs	r5, #1
	buf[13] = sysStatus.lastAlertCode;
   d487c:	7f13      	ldrb	r3, [r2, #28]
	buf[14] = highByte(driver.lastRssi());
   d487e:	4820      	ldr	r0, [pc, #128]	; (d4900 <_Z21composeDataReportNodev+0xd0>)
	buf[10] = current.stateOfCharge;
   d4880:	72a1      	strb	r1, [r4, #10]
	buf[13] = sysStatus.lastAlertCode;
   d4882:	7363      	strb	r3, [r4, #13]
	buf[4] = 1;						// Set for code release - fix later
   d4884:	7125      	strb	r5, [r4, #4]
	buf[14] = highByte(driver.lastRssi());
   d4886:	f002 fdfe 	bl	d7486 <_ZN15RHGenericDriver8lastRssiEv>
   d488a:	1200      	asrs	r0, r0, #8
   d488c:	73a0      	strb	r0, [r4, #14]
	buf[15] = lowByte(driver.lastRssi()); 
   d488e:	481c      	ldr	r0, [pc, #112]	; (d4900 <_Z21composeDataReportNodev+0xd0>)
   d4890:	f002 fdf9 	bl	d7486 <_ZN15RHGenericDriver8lastRssiEv>
	buf[16] = msgCnt++;
   d4894:	4b1b      	ldr	r3, [pc, #108]	; (d4904 <_Z21composeDataReportNodev+0xd4>)
	buf[15] = lowByte(driver.lastRssi()); 
   d4896:	73e0      	strb	r0, [r4, #15]
	buf[16] = msgCnt++;
   d4898:	781a      	ldrb	r2, [r3, #0]

	// Send a message to manager_server
  	// A route to the destination will be automatically discovered.
	Log.info("sending message %d", buf[16]);
   d489a:	4814      	ldr	r0, [pc, #80]	; (d48ec <_Z21composeDataReportNodev+0xbc>)
	buf[16] = msgCnt++;
   d489c:	7422      	strb	r2, [r4, #16]
   d489e:	1951      	adds	r1, r2, r5
   d48a0:	7019      	strb	r1, [r3, #0]
	Log.info("sending message %d", buf[16]);
   d48a2:	4919      	ldr	r1, [pc, #100]	; (d4908 <_Z21composeDataReportNodev+0xd8>)
   d48a4:	f7ff fc5e 	bl	d4164 <_ZNK5spark6Logger4infoEPKcz>
	if (manager.sendtoWait(buf, 17, GATEWAY_ADDRESS, DATA_RPT) == RH_ROUTER_ERROR_NONE) {
   d48a8:	2303      	movs	r3, #3
   d48aa:	9300      	str	r3, [sp, #0]
   d48ac:	4621      	mov	r1, r4
   d48ae:	4817      	ldr	r0, [pc, #92]	; (d490c <_Z21composeDataReportNodev+0xdc>)
   d48b0:	2300      	movs	r3, #0
   d48b2:	2211      	movs	r2, #17
   d48b4:	f003 f804 	bl	d78c0 <_ZN6RHMesh10sendtoWaitEPhhhh>
   d48b8:	4604      	mov	r4, r0
   d48ba:	b950      	cbnz	r0, d48d2 <_Z21composeDataReportNodev+0xa2>
		// It has been reliably delivered to the next node.
		// Now wait for a reply from the ultimate server 
		Log.info("Data report send to gateway successfully");
   d48bc:	4914      	ldr	r1, [pc, #80]	; (d4910 <_Z21composeDataReportNodev+0xe0>)
   d48be:	480b      	ldr	r0, [pc, #44]	; (d48ec <_Z21composeDataReportNodev+0xbc>)
   d48c0:	f7ff fc50 	bl	d4164 <_ZNK5spark6Logger4infoEPKcz>
		digitalWrite(BLUE_LED, LOW);
   d48c4:	4630      	mov	r0, r6
   d48c6:	4621      	mov	r1, r4
   d48c8:	f007 fa9b 	bl	dbe02 <digitalWrite>
		return true;
   d48cc:	4628      	mov	r0, r5
	else {
		Log.info("Data report send to Gateway failed");
		digitalWrite(BLUE_LED, LOW);
		return false;
	}
}
   d48ce:	b002      	add	sp, #8
   d48d0:	bd70      	pop	{r4, r5, r6, pc}
		Log.info("Data report send to Gateway failed");
   d48d2:	4910      	ldr	r1, [pc, #64]	; (d4914 <_Z21composeDataReportNodev+0xe4>)
   d48d4:	4805      	ldr	r0, [pc, #20]	; (d48ec <_Z21composeDataReportNodev+0xbc>)
   d48d6:	f7ff fc45 	bl	d4164 <_ZNK5spark6Logger4infoEPKcz>
		digitalWrite(BLUE_LED, LOW);
   d48da:	4630      	mov	r0, r6
   d48dc:	2100      	movs	r1, #0
   d48de:	f007 fa90 	bl	dbe02 <digitalWrite>
		return false;
   d48e2:	2000      	movs	r0, #0
   d48e4:	e7f3      	b.n	d48ce <_Z21composeDataReportNodev+0x9e>
   d48e6:	bf00      	nop
   d48e8:	000dcee1 	.word	0x000dcee1
   d48ec:	2003e570 	.word	0x2003e570
   d48f0:	2003deeb 	.word	0x2003deeb
   d48f4:	000dcfe6 	.word	0x000dcfe6
   d48f8:	2003e2c0 	.word	0x2003e2c0
   d48fc:	2003e2a0 	.word	0x2003e2a0
   d4900:	2003dfe4 	.word	0x2003dfe4
   d4904:	2003deea 	.word	0x2003deea
   d4908:	000dcf00 	.word	0x000dcf00
   d490c:	2003e118 	.word	0x2003e118
   d4910:	000dcf13 	.word	0x000dcf13
   d4914:	000dcf3c 	.word	0x000dcf3c

000d4918 <_Z34receiveAcknowledmentDataReportNodev>:

bool receiveAcknowledmentDataReportNode() {
   d4918:	e92d 47f0 	stmdb	sp!, {r4, r5, r6, r7, r8, r9, sl, lr}
	if (manager.recvfromAckTimeout(buf, &len, 3000, &from,__null,__null,&messageFlag)) {
   d491c:	4f2c      	ldr	r7, [pc, #176]	; (d49d0 <_Z34receiveAcknowledmentDataReportNodev+0xb8>)
   d491e:	4d2d      	ldr	r5, [pc, #180]	; (d49d4 <_Z34receiveAcknowledmentDataReportNodev+0xbc>)
   d4920:	f8df a0d4 	ldr.w	sl, [pc, #212]	; d49f8 <_Z34receiveAcknowledmentDataReportNodev+0xe0>
   d4924:	f8df 90d4 	ldr.w	r9, [pc, #212]	; d49fc <_Z34receiveAcknowledmentDataReportNodev+0xe4>
   d4928:	482b      	ldr	r0, [pc, #172]	; (d49d8 <_Z34receiveAcknowledmentDataReportNodev+0xc0>)
bool receiveAcknowledmentDataReportNode() {
   d492a:	b08c      	sub	sp, #48	; 0x30
	if (manager.recvfromAckTimeout(buf, &len, 3000, &from,__null,__null,&messageFlag)) {
   d492c:	2400      	movs	r4, #0
   d492e:	e9cd 4a02 	strd	r4, sl, [sp, #8]
   d4932:	9404      	str	r4, [sp, #16]
   d4934:	9401      	str	r4, [sp, #4]
   d4936:	f8cd 9000 	str.w	r9, [sp]
   d493a:	f640 33b8 	movw	r3, #3000	; 0xbb8
   d493e:	463a      	mov	r2, r7
   d4940:	4629      	mov	r1, r5
   d4942:	f003 f8c3 	bl	d7acc <_ZN6RHMesh18recvfromAckTimeoutEPhS0_tS0_S0_S0_S0_S0_>
   d4946:	4606      	mov	r6, r0
   d4948:	2800      	cmp	r0, #0
   d494a:	d03b      	beq.n	d49c4 <_Z34receiveAcknowledmentDataReportNodev+0xac>
		buf[len] = 0;
   d494c:	783b      	ldrb	r3, [r7, #0]
		lora_state = (LoRA_State)messageFlag;
   d494e:	f8df 80b0 	ldr.w	r8, [pc, #176]	; d4a00 <_Z34receiveAcknowledmentDataReportNodev+0xe8>
		Log.info("Received from node %d with rssi=%d - a %s message of length %d", from, driver.lastRssi(), loraStateNames[lora_state] ,len);
   d4952:	f899 2000 	ldrb.w	r2, [r9]
		buf[len] = 0;
   d4956:	54ec      	strb	r4, [r5, r3]
		Log.info("Received from node %d with rssi=%d - a %s message of length %d", from, driver.lastRssi(), loraStateNames[lora_state] ,len);
   d4958:	4820      	ldr	r0, [pc, #128]	; (d49dc <_Z34receiveAcknowledmentDataReportNodev+0xc4>)
		lora_state = (LoRA_State)messageFlag;
   d495a:	f89a 3000 	ldrb.w	r3, [sl]
   d495e:	f888 3000 	strb.w	r3, [r8]
		Log.info("Received from node %d with rssi=%d - a %s message of length %d", from, driver.lastRssi(), loraStateNames[lora_state] ,len);
   d4962:	9207      	str	r2, [sp, #28]
   d4964:	f002 fd8f 	bl	d7486 <_ZN15RHGenericDriver8lastRssiEv>
   d4968:	7839      	ldrb	r1, [r7, #0]
   d496a:	9101      	str	r1, [sp, #4]
   d496c:	4603      	mov	r3, r0
   d496e:	491c      	ldr	r1, [pc, #112]	; (d49e0 <_Z34receiveAcknowledmentDataReportNodev+0xc8>)
   d4970:	f898 0000 	ldrb.w	r0, [r8]
   d4974:	9a07      	ldr	r2, [sp, #28]
		sysStatus.frequencyMinutes = ((buf[7] << 8) | buf[8]);
   d4976:	4f1b      	ldr	r7, [pc, #108]	; (d49e4 <_Z34receiveAcknowledmentDataReportNodev+0xcc>)
		Log.info("Received from node %d with rssi=%d - a %s message of length %d", from, driver.lastRssi(), loraStateNames[lora_state] ,len);
   d4978:	eb01 1100 	add.w	r1, r1, r0, lsl #4
   d497c:	9100      	str	r1, [sp, #0]
   d497e:	481a      	ldr	r0, [pc, #104]	; (d49e8 <_Z34receiveAcknowledmentDataReportNodev+0xd0>)
   d4980:	491a      	ldr	r1, [pc, #104]	; (d49ec <_Z34receiveAcknowledmentDataReportNodev+0xd4>)
   d4982:	f7ff fbef 	bl	d4164 <_ZNK5spark6Logger4infoEPKcz>
		sysStatus.frequencyMinutes = ((buf[7] << 8) | buf[8]);
   d4986:	79ea      	ldrb	r2, [r5, #7]
   d4988:	7a2b      	ldrb	r3, [r5, #8]
   d498a:	ea43 2302 	orr.w	r3, r3, r2, lsl #8
   d498e:	f8d5 2003 	ldr.w	r2, [r5, #3]
   d4992:	837b      	strh	r3, [r7, #26]
		uint32_t newTime = ((buf[3] << 24) | (buf[4] << 16) | (buf[5] << 8) | buf[6]);
   d4994:	ba12      	rev	r2, r2
		Time.setTime(newTime);  // Set time based on response from gateway
   d4996:	4610      	mov	r0, r2
   d4998:	4621      	mov	r1, r4
   d499a:	9207      	str	r2, [sp, #28]
   d499c:	f006 fef1 	bl	db782 <_ZN9TimeClass7setTimeEx>
		Log.info("Time set to %s and next report is in %u minutes", Time.timeStr(newTime).c_str(),sysStatus.frequencyMinutes);
   d49a0:	9a07      	ldr	r2, [sp, #28]
   d49a2:	4623      	mov	r3, r4
   d49a4:	a808      	add	r0, sp, #32
   d49a6:	f006 feff 	bl	db7a8 <_ZN9TimeClass7timeStrEx>
   d49aa:	480f      	ldr	r0, [pc, #60]	; (d49e8 <_Z34receiveAcknowledmentDataReportNodev+0xd0>)
   d49ac:	8b7b      	ldrh	r3, [r7, #26]
   d49ae:	9a08      	ldr	r2, [sp, #32]
   d49b0:	490f      	ldr	r1, [pc, #60]	; (d49f0 <_Z34receiveAcknowledmentDataReportNodev+0xd8>)
   d49b2:	f7ff fbd7 	bl	d4164 <_ZNK5spark6Logger4infoEPKcz>
   d49b6:	a808      	add	r0, sp, #32
   d49b8:	f006 fd3c 	bl	db434 <_ZN6StringD1Ev>
	}
	else {
		Log.info("No reply, are the gateways running?");
		return false;
	}
   d49bc:	4630      	mov	r0, r6
   d49be:	b00c      	add	sp, #48	; 0x30
   d49c0:	e8bd 87f0 	ldmia.w	sp!, {r4, r5, r6, r7, r8, r9, sl, pc}
		Log.info("No reply, are the gateways running?");
   d49c4:	490b      	ldr	r1, [pc, #44]	; (d49f4 <_Z34receiveAcknowledmentDataReportNodev+0xdc>)
   d49c6:	4808      	ldr	r0, [pc, #32]	; (d49e8 <_Z34receiveAcknowledmentDataReportNodev+0xd0>)
   d49c8:	f7ff fbcc 	bl	d4164 <_ZNK5spark6Logger4infoEPKcz>
		return false;
   d49cc:	e7f6      	b.n	d49bc <_Z34receiveAcknowledmentDataReportNodev+0xa4>
   d49ce:	bf00      	nop
   d49d0:	2003dc24 	.word	0x2003dc24
   d49d4:	2003deeb 	.word	0x2003deeb
   d49d8:	2003e118 	.word	0x2003e118
   d49dc:	2003dfe4 	.word	0x2003dfe4
   d49e0:	2003dc25 	.word	0x2003dc25
   d49e4:	2003e2c0 	.word	0x2003e2c0
   d49e8:	2003e570 	.word	0x2003e570
   d49ec:	000dcea2 	.word	0x000dcea2
   d49f0:	000dcf5f 	.word	0x000dcf5f
   d49f4:	000dcf8f 	.word	0x000dcf8f
   d49f8:	2003e250 	.word	0x2003e250
   d49fc:	2003e114 	.word	0x2003e114
   d4a00:	2003e115 	.word	0x2003e115

000d4a04 <_GLOBAL__sub_I_loraStateNames>:
   d4a04:	b510      	push	{r4, lr}
RH_RF95 driver(RFM95_CS, RFM95_INT);
   d4a06:	4a08      	ldr	r2, [pc, #32]	; (d4a28 <_GLOBAL__sub_I_loraStateNames+0x24>)
   d4a08:	4c08      	ldr	r4, [pc, #32]	; (d4a2c <_GLOBAL__sub_I_loraStateNames+0x28>)
   d4a0a:	4909      	ldr	r1, [pc, #36]	; (d4a30 <_GLOBAL__sub_I_loraStateNames+0x2c>)
   d4a0c:	7812      	ldrb	r2, [r2, #0]
   d4a0e:	7809      	ldrb	r1, [r1, #0]
   d4a10:	4b08      	ldr	r3, [pc, #32]	; (d4a34 <_GLOBAL__sub_I_loraStateNames+0x30>)
   d4a12:	4620      	mov	r0, r4
   d4a14:	f003 fc54 	bl	d82c0 <_ZN7RH_RF95C1EhhR12RHGenericSPI>
RHMesh manager(driver, NODE1_ADDRESS);
   d4a18:	4621      	mov	r1, r4
   d4a1a:	4807      	ldr	r0, [pc, #28]	; (d4a38 <_GLOBAL__sub_I_loraStateNames+0x34>)
   d4a1c:	e8bd 4010 	ldmia.w	sp!, {r4, lr}
RHMesh manager(driver, NODE1_ADDRESS);
   d4a20:	220a      	movs	r2, #10
   d4a22:	f002 bf43 	b.w	d78ac <_ZN6RHMeshC1ER15RHGenericDriverh>
   d4a26:	bf00      	nop
   d4a28:	000dcfec 	.word	0x000dcfec
   d4a2c:	2003dfe4 	.word	0x2003dfe4
   d4a30:	000dcfea 	.word	0x000dcfea
   d4a34:	2003e308 	.word	0x2003e308
   d4a38:	2003e118 	.word	0x2003e118

000d4a3c <_Z18initializePinModesv>:
const pin_t TMP36_SENSE_PIN   = A4;
const pin_t BUTTON_PIN        = D4;
const pin_t BLUE_LED          = D7;
const pin_t WAKEUP_PIN        = D8;

bool initializePinModes() {
   d4a3c:	b508      	push	{r3, lr}
    Log.info("Initalizing the pinModes");
   d4a3e:	4909      	ldr	r1, [pc, #36]	; (d4a64 <_Z18initializePinModesv+0x28>)
   d4a40:	4809      	ldr	r0, [pc, #36]	; (d4a68 <_Z18initializePinModesv+0x2c>)
   d4a42:	f7ff fb8f 	bl	d4164 <_ZNK5spark6Logger4infoEPKcz>
    // Define as inputs or outputs
    pinMode(BUTTON_PIN,INPUT_PULLUP);               // User button on the carrier board - active LOW
   d4a46:	2102      	movs	r1, #2
   d4a48:	2004      	movs	r0, #4
   d4a4a:	f007 f9c9 	bl	dbde0 <pinMode>
    pinMode(WAKEUP_PIN,INPUT);                      // This pin is active HIGH
   d4a4e:	2100      	movs	r1, #0
   d4a50:	2008      	movs	r0, #8
   d4a52:	f007 f9c5 	bl	dbde0 <pinMode>
    pinMode(BLUE_LED,OUTPUT);                       // On the Boron itself
   d4a56:	2101      	movs	r1, #1
   d4a58:	2007      	movs	r0, #7
   d4a5a:	f007 f9c1 	bl	dbde0 <pinMode>
    return true;
}
   d4a5e:	2001      	movs	r0, #1
   d4a60:	bd08      	pop	{r3, pc}
   d4a62:	bf00      	nop
   d4a64:	000dcfb3 	.word	0x000dcfb3
   d4a68:	2003e570 	.word	0x2003e570

000d4a6c <_Z18initializePowerCfgv>:

bool initializePowerCfg() {
   d4a6c:	b510      	push	{r4, lr}
    Log.info("Initializing Power Config");
   d4a6e:	4918      	ldr	r1, [pc, #96]	; (d4ad0 <_Z18initializePowerCfgv+0x64>)
   d4a70:	4818      	ldr	r0, [pc, #96]	; (d4ad4 <_Z18initializePowerCfgv+0x68>)
bool initializePowerCfg() {
   d4a72:	b090      	sub	sp, #64	; 0x40

class SystemPowerConfiguration {
public:

    SystemPowerConfiguration()
            : conf_{} {
   d4a74:	2420      	movs	r4, #32
    Log.info("Initializing Power Config");
   d4a76:	f7ff fb75 	bl	d4164 <_ZNK5spark6Logger4infoEPKcz>
   d4a7a:	4622      	mov	r2, r4
   d4a7c:	2100      	movs	r1, #0
   d4a7e:	4668      	mov	r0, sp
   d4a80:	f007 ff30 	bl	dc8e4 <memset>
   d4a84:	4622      	mov	r2, r4
   d4a86:	2100      	movs	r1, #0
   d4a88:	eb0d 0004 	add.w	r0, sp, r4
        conf_.size = sizeof(conf_);
   d4a8c:	f88d 4005 	strb.w	r4, [sp, #5]
            : conf_{} {
   d4a90:	f007 ff28 	bl	dc8e4 <memset>
        return system_power_management_set_config(conf.config(), nullptr);
   d4a94:	2100      	movs	r1, #0
   d4a96:	eb0d 0004 	add.w	r0, sp, r4
        conf_.size = sizeof(conf_);
   d4a9a:	f88d 4025 	strb.w	r4, [sp, #37]	; 0x25
   d4a9e:	f004 f93b 	bl	d8d18 <system_power_management_set_config>

    SystemPowerConfiguration(SystemPowerConfiguration&&) = default;
    SystemPowerConfiguration& operator=(SystemPowerConfiguration&&) = default;

    SystemPowerConfiguration& powerSourceMinVoltage(uint16_t voltage) {
        conf_.vin_min_voltage = voltage;
   d4aa2:	f241 33d8 	movw	r3, #5080	; 0x13d8
   d4aa6:	f8ad 3006 	strh.w	r3, [sp, #6]
        return *this;
    }

    SystemPowerConfiguration& powerSourceMaxCurrent(uint16_t current) {
        conf_.vin_max_current = current;
   d4aaa:	4b0b      	ldr	r3, [pc, #44]	; (d4ad8 <_Z18initializePowerCfgv+0x6c>)
   d4aac:	9302      	str	r3, [sp, #8]
        return *this;
    }

    SystemPowerConfiguration& batteryChargeVoltage(uint16_t voltage) {
        conf_.termination_voltage = voltage;
   d4aae:	f241 0370 	movw	r3, #4208	; 0x1070
   d4ab2:	f8ad 300c 	strh.w	r3, [sp, #12]
        conf_.charge_current = current;
        return *this;
    }

    SystemPowerConfiguration& feature(EnumFlags<SystemPowerFeature> f) {
        conf_.flags |= f.value();
   d4ab6:	9b00      	ldr	r3, [sp, #0]
   d4ab8:	2100      	movs	r1, #0
   d4aba:	f443 7300 	orr.w	r3, r3, #512	; 0x200
   d4abe:	4668      	mov	r0, sp
   d4ac0:	9300      	str	r3, [sp, #0]
   d4ac2:	f004 f929 	bl	d8d18 <system_power_management_set_config>
                                                                     // but the USB cable is connected to a USB host, this feature flag
                                                                     // enforces the voltage/current limits specified in the configuration
                                                                     // (where by default the device would be thinking that it's powered by the USB Host)
    int res = System.setPowerConfiguration(conf); // returns SYSTEM_ERROR_NONE (0) in case of success
    return res;
}
   d4ac6:	3800      	subs	r0, #0
   d4ac8:	bf18      	it	ne
   d4aca:	2001      	movne	r0, #1
   d4acc:	b010      	add	sp, #64	; 0x40
   d4ace:	bd10      	pop	{r4, pc}
   d4ad0:	000dcfcc 	.word	0x000dcfcc
   d4ad4:	2003e570 	.word	0x2003e570
   d4ad8:	03840384 	.word	0x03840384

000d4adc <_ZN5spark10LogHandler5writeEPKcj>:
}
   d4adc:	4770      	bx	lr

000d4ade <_ZN5spark16StreamLogHandler5writeEPKcj>:
    stream_->write((const uint8_t*)data, size);
   d4ade:	6a00      	ldr	r0, [r0, #32]
   d4ae0:	6803      	ldr	r3, [r0, #0]
   d4ae2:	68db      	ldr	r3, [r3, #12]
   d4ae4:	4718      	bx	r3
	...

000d4ae8 <_ZN5spark16SerialLogHandlerD1Ev>:
            StreamLogHandler(Serial, level, filters) {
        Serial.begin(baud);
        LogManager::instance()->addHandler(this);
    }

    virtual ~SerialLogHandler() {
   d4ae8:	4b0a      	ldr	r3, [pc, #40]	; (d4b14 <_ZN5spark16SerialLogHandlerD1Ev+0x2c>)
   d4aea:	b510      	push	{r4, lr}
   d4aec:	4604      	mov	r4, r0
   d4aee:	6003      	str	r3, [r0, #0]
        LogManager::instance()->removeHandler(this);
   d4af0:	f005 fba2 	bl	da238 <_ZN5spark10LogManager8instanceEv>
   d4af4:	4621      	mov	r1, r4
   d4af6:	f005 fd64 	bl	da5c2 <_ZN5spark10LogManager13removeHandlerEPNS_10LogHandlerE>
        Serial.end();
   d4afa:	f007 f859 	bl	dbbb0 <_Z16_fetch_usbserialv>
   d4afe:	f007 f84b 	bl	dbb98 <_ZN9USBSerial3endEv>
    virtual ~LogHandler() = default;
   d4b02:	4620      	mov	r0, r4
   d4b04:	4b04      	ldr	r3, [pc, #16]	; (d4b18 <_ZN5spark16SerialLogHandlerD1Ev+0x30>)
   d4b06:	f840 3b04 	str.w	r3, [r0], #4
   d4b0a:	f005 fc47 	bl	da39c <_ZN5spark6detail9LogFilterD1Ev>
    }
   d4b0e:	4620      	mov	r0, r4
   d4b10:	bd10      	pop	{r4, pc}
   d4b12:	bf00      	nop
   d4b14:	000dd064 	.word	0x000dd064
   d4b18:	000dd04c 	.word	0x000dd04c

000d4b1c <_ZN5spark16SerialLogHandlerD0Ev>:
    virtual ~SerialLogHandler() {
   d4b1c:	b510      	push	{r4, lr}
   d4b1e:	4604      	mov	r4, r0
    }
   d4b20:	f7ff ffe2 	bl	d4ae8 <_ZN5spark16SerialLogHandlerD1Ev>
   d4b24:	4620      	mov	r0, r4
   d4b26:	2124      	movs	r1, #36	; 0x24
   d4b28:	f007 fa28 	bl	dbf7c <_ZdlPvj>
   d4b2c:	4620      	mov	r0, r4
   d4b2e:	bd10      	pop	{r4, pc}

000d4b30 <_ZNSt14__shared_countILN9__gnu_cxx12_Lock_policyE0EED1Ev>:
      ~__shared_count() noexcept
   d4b30:	b538      	push	{r3, r4, r5, lr}
	if (_M_pi != nullptr)
   d4b32:	6804      	ldr	r4, [r0, #0]
      ~__shared_count() noexcept
   d4b34:	4605      	mov	r5, r0
	if (_M_pi != nullptr)
   d4b36:	b17c      	cbz	r4, d4b58 <_ZNSt14__shared_countILN9__gnu_cxx12_Lock_policyE0EED1Ev+0x28>
      if (--_M_use_count == 0)
   d4b38:	6863      	ldr	r3, [r4, #4]
   d4b3a:	3b01      	subs	r3, #1
   d4b3c:	6063      	str	r3, [r4, #4]
   d4b3e:	b95b      	cbnz	r3, d4b58 <_ZNSt14__shared_countILN9__gnu_cxx12_Lock_policyE0EED1Ev+0x28>
          _M_dispose();
   d4b40:	6823      	ldr	r3, [r4, #0]
   d4b42:	4620      	mov	r0, r4
   d4b44:	689b      	ldr	r3, [r3, #8]
   d4b46:	4798      	blx	r3
          if (--_M_weak_count == 0)
   d4b48:	68a3      	ldr	r3, [r4, #8]
   d4b4a:	3b01      	subs	r3, #1
   d4b4c:	60a3      	str	r3, [r4, #8]
   d4b4e:	b91b      	cbnz	r3, d4b58 <_ZNSt14__shared_countILN9__gnu_cxx12_Lock_policyE0EED1Ev+0x28>
            _M_destroy();
   d4b50:	6823      	ldr	r3, [r4, #0]
   d4b52:	4620      	mov	r0, r4
   d4b54:	68db      	ldr	r3, [r3, #12]
   d4b56:	4798      	blx	r3
	  _M_pi->_M_release();
      }
   d4b58:	4628      	mov	r0, r5
   d4b5a:	bd38      	pop	{r3, r4, r5, pc}

000d4b5c <_Z15setLowPowerMode6String>:
 * will cause the function to return 0 to indicate an invalid entry.
 *
 * @return 1 if able to successfully take action, 0 if invalid command
 */
int setLowPowerMode(String command)                                   // This is where we can put the device into low power mode if needed
{
   d4b5c:	b530      	push	{r4, r5, lr}
	unsigned char equals(const String &s) const;
	unsigned char equals(const char *cstr) const;
	unsigned char operator == (const String &rhs) const {return equals(rhs);}
	unsigned char operator == (const char *cstr) const {return equals(cstr);}
	unsigned char operator != (const String &rhs) const {return !equals(rhs);}
	unsigned char operator != (const char *cstr) const {return !equals(cstr);}
   d4b5e:	4922      	ldr	r1, [pc, #136]	; (d4be8 <_Z15setLowPowerMode6String+0x8c>)
   d4b60:	b095      	sub	sp, #84	; 0x54
   d4b62:	4604      	mov	r4, r0
   d4b64:	f006 fd19 	bl	db59a <_ZNK6String6equalsEPKc>
  char data[64];
  if (command != "1" && command != "0") return 0;                     // Before we begin, let's make sure we have a valid input
   d4b68:	b138      	cbz	r0, d4b7a <_Z15setLowPowerMode6String+0x1e>
	unsigned char operator == (const char *cstr) const {return equals(cstr);}
   d4b6a:	4620      	mov	r0, r4
   d4b6c:	491e      	ldr	r1, [pc, #120]	; (d4be8 <_Z15setLowPowerMode6String+0x8c>)
   d4b6e:	4c1f      	ldr	r4, [pc, #124]	; (d4bec <_Z15setLowPowerMode6String+0x90>)
   d4b70:	f006 fd13 	bl	db59a <_ZNK6String6equalsEPKc>
  if (command == "1") {                                               // Command calls for enabling sleep
   d4b74:	b948      	cbnz	r0, d4b8a <_Z15setLowPowerMode6String+0x2e>
      sysStatus.frequencyMinutes = 12;
      frequencyUpdated = true;
    }
  }
  else {                                                             // Command calls for disabling sleep
    sysStatus.lowPowerMode = false;
   d4b76:	7220      	strb	r0, [r4, #8]
   d4b78:	e033      	b.n	d4be2 <_Z15setLowPowerMode6String+0x86>
	unsigned char operator != (const char *cstr) const {return !equals(cstr);}
   d4b7a:	491d      	ldr	r1, [pc, #116]	; (d4bf0 <_Z15setLowPowerMode6String+0x94>)
   d4b7c:	4620      	mov	r0, r4
   d4b7e:	f006 fd0c 	bl	db59a <_ZNK6String6equalsEPKc>
  if (command != "1" && command != "0") return 0;                     // Before we begin, let's make sure we have a valid input
   d4b82:	2800      	cmp	r0, #0
   d4b84:	d1f1      	bne.n	d4b6a <_Z15setLowPowerMode6String+0xe>
  Log.info(data);
  if (Particle.connected()) {
    Particle.publish("Mode",data, PRIVATE);
  }
  return 1;
}
   d4b86:	b015      	add	sp, #84	; 0x54
   d4b88:	bd30      	pop	{r4, r5, pc}
    if (sysStatus.frequencyMinutes < 12) {                            // Need to increase reporting frequency to at least 12 mins for low power
   d4b8a:	8b63      	ldrh	r3, [r4, #26]
    sysStatus.lowPowerMode = true;
   d4b8c:	2501      	movs	r5, #1
    if (sysStatus.frequencyMinutes < 12) {                            // Need to increase reporting frequency to at least 12 mins for low power
   d4b8e:	2b0b      	cmp	r3, #11
    sysStatus.lowPowerMode = true;
   d4b90:	7225      	strb	r5, [r4, #8]
    if (sysStatus.frequencyMinutes < 12) {                            // Need to increase reporting frequency to at least 12 mins for low power
   d4b92:	d91b      	bls.n	d4bcc <_Z15setLowPowerMode6String+0x70>
  snprintf(data, sizeof(data), "Is Low Power Mode set? %s", (sysStatus.lowPowerMode) ? "yes" : "no");
   d4b94:	4b17      	ldr	r3, [pc, #92]	; (d4bf4 <_Z15setLowPowerMode6String+0x98>)
   d4b96:	4a18      	ldr	r2, [pc, #96]	; (d4bf8 <_Z15setLowPowerMode6String+0x9c>)
   d4b98:	2140      	movs	r1, #64	; 0x40
   d4b9a:	a804      	add	r0, sp, #16
   d4b9c:	f004 f988 	bl	d8eb0 <snprintf>
  Log.info(data);
   d4ba0:	4816      	ldr	r0, [pc, #88]	; (d4bfc <_Z15setLowPowerMode6String+0xa0>)
   d4ba2:	a904      	add	r1, sp, #16
   d4ba4:	f7ff fade 	bl	d4164 <_ZNK5spark6Logger4infoEPKcz>
    static bool connected(void) { return spark_cloud_flag_connected(); }
   d4ba8:	f004 f8d2 	bl	d8d50 <spark_cloud_flag_connected>
  if (Particle.connected()) {
   d4bac:	b160      	cbz	r0, d4bc8 <_Z15setLowPowerMode6String+0x6c>
inline particle::Flags<TagT, ValueT>::Flags(ValueT val) :
   d4bae:	4b14      	ldr	r3, [pc, #80]	; (d4c00 <_Z15setLowPowerMode6String+0xa4>)
        return publish_event(eventName, eventData, ttl, flags1 | flags2);
   d4bb0:	4914      	ldr	r1, [pc, #80]	; (d4c04 <_Z15setLowPowerMode6String+0xa8>)
   d4bb2:	781b      	ldrb	r3, [r3, #0]
   d4bb4:	f88d 3000 	strb.w	r3, [sp]
   d4bb8:	a802      	add	r0, sp, #8
   d4bba:	233c      	movs	r3, #60	; 0x3c
   d4bbc:	aa04      	add	r2, sp, #16
   d4bbe:	f004 fc5d 	bl	d947c <_ZN10CloudClass13publish_eventEPKcS1_iN8particle5FlagsI15PublishFlagTypehEE>
	: _M_ptr(__p), _M_refcount(__r._M_refcount) // never throws
	{ }

      __shared_ptr(const __shared_ptr&) noexcept = default;
      __shared_ptr& operator=(const __shared_ptr&) noexcept = default;
      ~__shared_ptr() = default;
   d4bc2:	a803      	add	r0, sp, #12
   d4bc4:	f7ff ffb4 	bl	d4b30 <_ZNSt14__shared_countILN9__gnu_cxx12_Lock_policyE0EED1Ev>
  return 1;
   d4bc8:	2001      	movs	r0, #1
   d4bca:	e7dc      	b.n	d4b86 <_Z15setLowPowerMode6String+0x2a>
      Log.info("Increasing reporting frequency to 12 minutes");
   d4bcc:	490e      	ldr	r1, [pc, #56]	; (d4c08 <_Z15setLowPowerMode6String+0xac>)
   d4bce:	480b      	ldr	r0, [pc, #44]	; (d4bfc <_Z15setLowPowerMode6String+0xa0>)
   d4bd0:	f7ff fac8 	bl	d4164 <_ZNK5spark6Logger4infoEPKcz>
      sysStatus.frequencyMinutes = 12;
   d4bd4:	230c      	movs	r3, #12
   d4bd6:	8363      	strh	r3, [r4, #26]
      frequencyUpdated = true;
   d4bd8:	4b0c      	ldr	r3, [pc, #48]	; (d4c0c <_Z15setLowPowerMode6String+0xb0>)
   d4bda:	701d      	strb	r5, [r3, #0]
  snprintf(data, sizeof(data), "Is Low Power Mode set? %s", (sysStatus.lowPowerMode) ? "yes" : "no");
   d4bdc:	7a23      	ldrb	r3, [r4, #8]
   d4bde:	2b00      	cmp	r3, #0
   d4be0:	d1d8      	bne.n	d4b94 <_Z15setLowPowerMode6String+0x38>
   d4be2:	4b0b      	ldr	r3, [pc, #44]	; (d4c10 <_Z15setLowPowerMode6String+0xb4>)
   d4be4:	e7d7      	b.n	d4b96 <_Z15setLowPowerMode6String+0x3a>
   d4be6:	bf00      	nop
   d4be8:	000dd1bc 	.word	0x000dd1bc
   d4bec:	2003e2c0 	.word	0x2003e2c0
   d4bf0:	000dd478 	.word	0x000dd478
   d4bf4:	000dcff0 	.word	0x000dcff0
   d4bf8:	000dd024 	.word	0x000dd024
   d4bfc:	2003e570 	.word	0x2003e570
   d4c00:	2003e260 	.word	0x2003e260
   d4c04:	000dd03e 	.word	0x000dd03e
   d4c08:	000dcff7 	.word	0x000dcff7
   d4c0c:	2003e261 	.word	0x2003e261
   d4c10:	000dcff4 	.word	0x000dcff4

000d4c14 <_ZN5spark6VectorINS_17LogCategoryFilterENS_16DefaultAllocatorEED1Ev>:
inline spark::Vector<T, AllocatorT>::Vector(Vector<T, AllocatorT>&& vector) : Vector() {
    swap(*this, vector);
}

template<typename T, typename AllocatorT>
inline spark::Vector<T, AllocatorT>::~Vector() {
   d4c14:	b570      	push	{r4, r5, r6, lr}
    destruct(data_, data_ + size_);
   d4c16:	e9d0 5300 	ldrd	r5, r3, [r0]
   d4c1a:	2614      	movs	r6, #20
inline spark::Vector<T, AllocatorT>::~Vector() {
   d4c1c:	4604      	mov	r4, r0
    destruct(data_, data_ + size_);
   d4c1e:	fb06 5603 	mla	r6, r6, r3, r5
        for (; p != end; ++p) {
   d4c22:	42ae      	cmp	r6, r5
   d4c24:	d004      	beq.n	d4c30 <_ZN5spark6VectorINS_17LogCategoryFilterENS_16DefaultAllocatorEED1Ev+0x1c>
class LogCategoryFilter {
   d4c26:	4628      	mov	r0, r5
   d4c28:	f006 fc04 	bl	db434 <_ZN6StringD1Ev>
   d4c2c:	3514      	adds	r5, #20
   d4c2e:	e7f8      	b.n	d4c22 <_ZN5spark6VectorINS_17LogCategoryFilterENS_16DefaultAllocatorEED1Ev+0xe>
    ::free(ptr);
   d4c30:	6820      	ldr	r0, [r4, #0]
   d4c32:	f004 f91d 	bl	d8e70 <free>
    AllocatorT::free(data_);
}
   d4c36:	4620      	mov	r0, r4
   d4c38:	bd70      	pop	{r4, r5, r6, pc}

000d4c3a <_ZN5spark6VectorINS_17LogCategoryFilterENS_16DefaultAllocatorEE4moveIS1_Li0EEEvPS1_S5_S5_>:
        if (dest > p && dest < end) {
   d4c3a:	4288      	cmp	r0, r1
    static void move(T* dest, T* p, T* end) {
   d4c3c:	b5f8      	push	{r3, r4, r5, r6, r7, lr}
   d4c3e:	4604      	mov	r4, r0
   d4c40:	460d      	mov	r5, r1
   d4c42:	4616      	mov	r6, r2
        if (dest > p && dest < end) {
   d4c44:	d916      	bls.n	d4c74 <_ZN5spark6VectorINS_17LogCategoryFilterENS_16DefaultAllocatorEE4moveIS1_Li0EEEvPS1_S5_S5_+0x3a>
   d4c46:	4290      	cmp	r0, r2
   d4c48:	d215      	bcs.n	d4c76 <_ZN5spark6VectorINS_17LogCategoryFilterENS_16DefaultAllocatorEE4moveIS1_Li0EEEvPS1_S5_S5_+0x3c>
            --end;
   d4c4a:	f1a2 0614 	sub.w	r6, r2, #20
            dest += end - p - 1;
   d4c4e:	1a75      	subs	r5, r6, r1
   d4c50:	f1a1 0714 	sub.w	r7, r1, #20
   d4c54:	442c      	add	r4, r5
            for (; end != p; --end, --dest) {
   d4c56:	42b7      	cmp	r7, r6
   d4c58:	d01c      	beq.n	d4c94 <_ZN5spark6VectorINS_17LogCategoryFilterENS_16DefaultAllocatorEE4moveIS1_Li0EEEvPS1_S5_S5_+0x5a>
                new(dest) T(std::move(*end));
   d4c5a:	b12c      	cbz	r4, d4c68 <_ZN5spark6VectorINS_17LogCategoryFilterENS_16DefaultAllocatorEE4moveIS1_Li0EEEvPS1_S5_S5_+0x2e>
   d4c5c:	4631      	mov	r1, r6
   d4c5e:	4620      	mov	r0, r4
   d4c60:	f006 fc64 	bl	db52c <_ZN6StringC1EOS_>
   d4c64:	7c33      	ldrb	r3, [r6, #16]
   d4c66:	7423      	strb	r3, [r4, #16]
   d4c68:	4630      	mov	r0, r6
   d4c6a:	f006 fbe3 	bl	db434 <_ZN6StringD1Ev>
            for (; end != p; --end, --dest) {
   d4c6e:	3e14      	subs	r6, #20
   d4c70:	3c14      	subs	r4, #20
   d4c72:	e7f0      	b.n	d4c56 <_ZN5spark6VectorINS_17LogCategoryFilterENS_16DefaultAllocatorEE4moveIS1_Li0EEEvPS1_S5_S5_+0x1c>
        } else if (dest != p) {
   d4c74:	d00e      	beq.n	d4c94 <_ZN5spark6VectorINS_17LogCategoryFilterENS_16DefaultAllocatorEE4moveIS1_Li0EEEvPS1_S5_S5_+0x5a>
            for (; p != end; ++p, ++dest) {
   d4c76:	42b5      	cmp	r5, r6
   d4c78:	d00c      	beq.n	d4c94 <_ZN5spark6VectorINS_17LogCategoryFilterENS_16DefaultAllocatorEE4moveIS1_Li0EEEvPS1_S5_S5_+0x5a>
                new(dest) T(std::move(*p));
   d4c7a:	b12c      	cbz	r4, d4c88 <_ZN5spark6VectorINS_17LogCategoryFilterENS_16DefaultAllocatorEE4moveIS1_Li0EEEvPS1_S5_S5_+0x4e>
   d4c7c:	4629      	mov	r1, r5
   d4c7e:	4620      	mov	r0, r4
   d4c80:	f006 fc54 	bl	db52c <_ZN6StringC1EOS_>
   d4c84:	7c2b      	ldrb	r3, [r5, #16]
   d4c86:	7423      	strb	r3, [r4, #16]
   d4c88:	4628      	mov	r0, r5
   d4c8a:	f006 fbd3 	bl	db434 <_ZN6StringD1Ev>
            for (; p != end; ++p, ++dest) {
   d4c8e:	3514      	adds	r5, #20
   d4c90:	3414      	adds	r4, #20
   d4c92:	e7f0      	b.n	d4c76 <_ZN5spark6VectorINS_17LogCategoryFilterENS_16DefaultAllocatorEE4moveIS1_Li0EEEvPS1_S5_S5_+0x3c>
    }
   d4c94:	bdf8      	pop	{r3, r4, r5, r6, r7, pc}

000d4c96 <_ZN5spark6VectorINS_17LogCategoryFilterENS_16DefaultAllocatorEEC1ERKS3_>:
inline spark::Vector<T, AllocatorT>::Vector(const Vector<T, AllocatorT>& vector) : Vector() {
   d4c96:	e92d 41f0 	stmdb	sp!, {r4, r5, r6, r7, r8, lr}
        capacity_(0) {
   d4c9a:	2300      	movs	r3, #0
   d4c9c:	e9c0 3300 	strd	r3, r3, [r0]
   d4ca0:	6083      	str	r3, [r0, #8]
    if (vector.size_ > 0 && realloc(vector.size_)) {
   d4ca2:	684f      	ldr	r7, [r1, #4]
   d4ca4:	429f      	cmp	r7, r3
inline spark::Vector<T, AllocatorT>::Vector(const Vector<T, AllocatorT>& vector) : Vector() {
   d4ca6:	4604      	mov	r4, r0
   d4ca8:	460e      	mov	r6, r1
    if (vector.size_ > 0 && realloc(vector.size_)) {
   d4caa:	dd23      	ble.n	d4cf4 <_ZN5spark6VectorINS_17LogCategoryFilterENS_16DefaultAllocatorEEC1ERKS3_+0x5e>
            d = (T*)AllocatorT::malloc(n * sizeof(T));
   d4cac:	f04f 0814 	mov.w	r8, #20
    return ::malloc(size);
   d4cb0:	fb08 f007 	mul.w	r0, r8, r7
   d4cb4:	f004 f8d4 	bl	d8e60 <malloc>
            if (!d) {
   d4cb8:	4605      	mov	r5, r0
   d4cba:	b1d8      	cbz	r0, d4cf4 <_ZN5spark6VectorINS_17LogCategoryFilterENS_16DefaultAllocatorEEC1ERKS3_+0x5e>
            move(d, data_, data_ + size_);
   d4cbc:	e9d4 1200 	ldrd	r1, r2, [r4]
   d4cc0:	fb08 1202 	mla	r2, r8, r2, r1
   d4cc4:	f7ff ffb9 	bl	d4c3a <_ZN5spark6VectorINS_17LogCategoryFilterENS_16DefaultAllocatorEE4moveIS1_Li0EEEvPS1_S5_S5_>
    ::free(ptr);
   d4cc8:	6820      	ldr	r0, [r4, #0]
   d4cca:	f004 f8d1 	bl	d8e70 <free>
        data_ = d;
   d4cce:	6025      	str	r5, [r4, #0]
        capacity_ = n;
   d4cd0:	60a7      	str	r7, [r4, #8]
        copy(data_, vector.data_, vector.data_ + vector.size_);
   d4cd2:	e9d6 7300 	ldrd	r7, r3, [r6]
   d4cd6:	fb08 7803 	mla	r8, r8, r3, r7
        for (; it != end; ++it, ++dest) {
   d4cda:	45b8      	cmp	r8, r7
   d4cdc:	d008      	beq.n	d4cf0 <_ZN5spark6VectorINS_17LogCategoryFilterENS_16DefaultAllocatorEEC1ERKS3_+0x5a>
   d4cde:	4639      	mov	r1, r7
   d4ce0:	4628      	mov	r0, r5
   d4ce2:	f006 fc3d 	bl	db560 <_ZN6StringC1ERKS_>
   d4ce6:	7c3b      	ldrb	r3, [r7, #16]
   d4ce8:	742b      	strb	r3, [r5, #16]
   d4cea:	3714      	adds	r7, #20
   d4cec:	3514      	adds	r5, #20
   d4cee:	e7f4      	b.n	d4cda <_ZN5spark6VectorINS_17LogCategoryFilterENS_16DefaultAllocatorEEC1ERKS3_+0x44>
        size_ = vector.size_;
   d4cf0:	6873      	ldr	r3, [r6, #4]
   d4cf2:	6063      	str	r3, [r4, #4]
}
   d4cf4:	4620      	mov	r0, r4
   d4cf6:	e8bd 81f0 	ldmia.w	sp!, {r4, r5, r6, r7, r8, pc}
	...

000d4cfc <_GLOBAL__sub_I_SystemMode>:
  }
  else {
    Log.info("Turned off the cellular modem in %i seconds", (int)(Time.now() - startTime));
    return true;
  }
   d4cfc:	b570      	push	{r4, r5, r6, lr}
        val_(val) {
   d4cfe:	4b28      	ldr	r3, [pc, #160]	; (d4da0 <_GLOBAL__sub_I_SystemMode+0xa4>)
    SleepResult() {}
   d4d00:	4a28      	ldr	r2, [pc, #160]	; (d4da4 <_GLOBAL__sub_I_SystemMode+0xa8>)
   d4d02:	2501      	movs	r5, #1
   d4d04:	701d      	strb	r5, [r3, #0]
              error_(SYSTEM_ERROR_NONE) {
   d4d06:	4b28      	ldr	r3, [pc, #160]	; (d4da8 <_GLOBAL__sub_I_SystemMode+0xac>)
   d4d08:	2400      	movs	r4, #0
   d4d0a:	b08c      	sub	sp, #48	; 0x30
    SleepResult() {}
   d4d0c:	609a      	str	r2, [r3, #8]
              error_(SYSTEM_ERROR_NONE) {
   d4d0e:	601c      	str	r4, [r3, #0]
   d4d10:	809c      	strh	r4, [r3, #4]
    SleepResult() {}
   d4d12:	719c      	strb	r4, [r3, #6]
        set_system_mode(mode);
   d4d14:	2002      	movs	r0, #2
   d4d16:	f003 ffab 	bl	d8c70 <set_system_mode>
SYSTEM_THREAD(ENABLED);                             // Means my code will not be held up by Particle processes.
   d4d1a:	4621      	mov	r1, r4
   d4d1c:	4628      	mov	r0, r5
   d4d1e:	f003 ffbf 	bl	d8ca0 <system_thread_set_state>
        return HAL_Feature_Set(feature, true);
   d4d22:	4629      	mov	r1, r5
   d4d24:	2004      	movs	r0, #4
   d4d26:	f003 fd99 	bl	d885c <HAL_Feature_Set>
        capacity_(0) {
   d4d2a:	e9cd 4400 	strd	r4, r4, [sp]
   d4d2e:	9402      	str	r4, [sp, #8]
            StreamLogHandler(Serial, level, filters) {
   d4d30:	f006 ff3e 	bl	dbbb0 <_Z16_fetch_usbserialv>
        filter_(level, filters) {
   d4d34:	4c1d      	ldr	r4, [pc, #116]	; (d4dac <_GLOBAL__sub_I_SystemMode+0xb0>)
   d4d36:	4605      	mov	r5, r0
   d4d38:	4669      	mov	r1, sp
   d4d3a:	a803      	add	r0, sp, #12
   d4d3c:	f7ff ffab 	bl	d4c96 <_ZN5spark6VectorINS_17LogCategoryFilterENS_16DefaultAllocatorEEC1ERKS3_>
   d4d40:	4626      	mov	r6, r4
        stream_(&stream) {
   d4d42:	a903      	add	r1, sp, #12
   d4d44:	a806      	add	r0, sp, #24
   d4d46:	f7ff ffa6 	bl	d4c96 <_ZN5spark6VectorINS_17LogCategoryFilterENS_16DefaultAllocatorEEC1ERKS3_>
        filter_(level, filters) {
   d4d4a:	4b19      	ldr	r3, [pc, #100]	; (d4db0 <_GLOBAL__sub_I_SystemMode+0xb4>)
   d4d4c:	f846 3b04 	str.w	r3, [r6], #4
   d4d50:	a906      	add	r1, sp, #24
   d4d52:	a809      	add	r0, sp, #36	; 0x24
   d4d54:	f7ff ff9f 	bl	d4c96 <_ZN5spark6VectorINS_17LogCategoryFilterENS_16DefaultAllocatorEEC1ERKS3_>
   d4d58:	aa09      	add	r2, sp, #36	; 0x24
   d4d5a:	211e      	movs	r1, #30
   d4d5c:	4630      	mov	r0, r6
   d4d5e:	f005 fd8a 	bl	da876 <_ZN5spark6detail9LogFilterC1E8LogLevelNS_6VectorINS_17LogCategoryFilterENS_16DefaultAllocatorEEE>
   d4d62:	a809      	add	r0, sp, #36	; 0x24
   d4d64:	f7ff ff56 	bl	d4c14 <_ZN5spark6VectorINS_17LogCategoryFilterENS_16DefaultAllocatorEED1Ev>
        stream_(&stream) {
   d4d68:	a806      	add	r0, sp, #24
   d4d6a:	f7ff ff53 	bl	d4c14 <_ZN5spark6VectorINS_17LogCategoryFilterENS_16DefaultAllocatorEED1Ev>
   d4d6e:	4b11      	ldr	r3, [pc, #68]	; (d4db4 <_GLOBAL__sub_I_SystemMode+0xb8>)
   d4d70:	6023      	str	r3, [r4, #0]
   d4d72:	6225      	str	r5, [r4, #32]
   d4d74:	a803      	add	r0, sp, #12
   d4d76:	f7ff ff4d 	bl	d4c14 <_ZN5spark6VectorINS_17LogCategoryFilterENS_16DefaultAllocatorEED1Ev>
   d4d7a:	4b0f      	ldr	r3, [pc, #60]	; (d4db8 <_GLOBAL__sub_I_SystemMode+0xbc>)
   d4d7c:	6023      	str	r3, [r4, #0]
        Serial.begin();
   d4d7e:	f006 ff17 	bl	dbbb0 <_Z16_fetch_usbserialv>
   d4d82:	f44f 5116 	mov.w	r1, #9600	; 0x2580
   d4d86:	f006 ff03 	bl	dbb90 <_ZN9USBSerial5beginEl>
        LogManager::instance()->addHandler(this);
   d4d8a:	f005 fa55 	bl	da238 <_ZN5spark10LogManager8instanceEv>
   d4d8e:	4621      	mov	r1, r4
   d4d90:	f005 fd03 	bl	da79a <_ZN5spark10LogManager10addHandlerEPNS_10LogHandlerE>
SerialLogHandler logHandler(LOG_LEVEL_INFO);     // Easier to see the program flow
   d4d94:	4668      	mov	r0, sp
   d4d96:	f7ff ff3d 	bl	d4c14 <_ZN5spark6VectorINS_17LogCategoryFilterENS_16DefaultAllocatorEED1Ev>
   d4d9a:	b00c      	add	sp, #48	; 0x30
   d4d9c:	bd70      	pop	{r4, r5, r6, pc}
   d4d9e:	bf00      	nop
   d4da0:	2003e260 	.word	0x2003e260
   d4da4:	ffff0000 	.word	0xffff0000
   d4da8:	2003e254 	.word	0x2003e254
   d4dac:	2003e264 	.word	0x2003e264
   d4db0:	000dd04c 	.word	0x000dd04c
   d4db4:	000dd96c 	.word	0x000dd96c
   d4db8:	000dd064 	.word	0x000dd064

000d4dbc <_Z18loadSystemDefaultsv>:

/**
 * @brief This function is called in setup if the version of the FRAM stoage map has been changed
 * 
 */
void loadSystemDefaults() {                         // This code is only executed with a new device or a new storage object structure
   d4dbc:	b51f      	push	{r0, r1, r2, r3, r4, lr}
    static bool connected(void) { return spark_cloud_flag_connected(); }
   d4dbe:	f003 ffc7 	bl	d8d50 <spark_cloud_flag_connected>
  if (Particle.connected()) {
   d4dc2:	b1d8      	cbz	r0, d4dfc <_Z18loadSystemDefaultsv+0x40>
inline particle::Flags<TagT, ValueT>::Flags(ValueT val) :
   d4dc4:	4b17      	ldr	r3, [pc, #92]	; (d4e24 <_Z18loadSystemDefaultsv+0x68>)
        return publish_event(eventName, eventData, ttl, flags1 | flags2);
   d4dc6:	4a18      	ldr	r2, [pc, #96]	; (d4e28 <_Z18loadSystemDefaultsv+0x6c>)
   d4dc8:	781b      	ldrb	r3, [r3, #0]
   d4dca:	f88d 3000 	strb.w	r3, [sp]
   d4dce:	4917      	ldr	r1, [pc, #92]	; (d4e2c <_Z18loadSystemDefaultsv+0x70>)
   d4dd0:	233c      	movs	r3, #60	; 0x3c
   d4dd2:	a802      	add	r0, sp, #8
   d4dd4:	f004 fb52 	bl	d947c <_ZN10CloudClass13publish_eventEPKcS1_iN8particle5FlagsI15PublishFlagTypehEE>
	if (_M_pi != nullptr)
   d4dd8:	9c03      	ldr	r4, [sp, #12]
   d4dda:	b17c      	cbz	r4, d4dfc <_Z18loadSystemDefaultsv+0x40>
      if (--_M_use_count == 0)
   d4ddc:	6863      	ldr	r3, [r4, #4]
   d4dde:	3b01      	subs	r3, #1
   d4de0:	6063      	str	r3, [r4, #4]
   d4de2:	b95b      	cbnz	r3, d4dfc <_Z18loadSystemDefaultsv+0x40>
          _M_dispose();
   d4de4:	6823      	ldr	r3, [r4, #0]
   d4de6:	4620      	mov	r0, r4
   d4de8:	689b      	ldr	r3, [r3, #8]
   d4dea:	4798      	blx	r3
          if (--_M_weak_count == 0)
   d4dec:	68a3      	ldr	r3, [r4, #8]
   d4dee:	3b01      	subs	r3, #1
   d4df0:	60a3      	str	r3, [r4, #8]
   d4df2:	b91b      	cbnz	r3, d4dfc <_Z18loadSystemDefaultsv+0x40>
            _M_destroy();
   d4df4:	6823      	ldr	r3, [r4, #0]
   d4df6:	4620      	mov	r0, r4
   d4df8:	68db      	ldr	r3, [r3, #12]
   d4dfa:	4798      	blx	r3
    Particle.publish("Mode","Loading System Defaults", PRIVATE);
  }
  Log.info("Loading system defaults");              // Letting us know that defaults are being loaded
   d4dfc:	490c      	ldr	r1, [pc, #48]	; (d4e30 <_Z18loadSystemDefaultsv+0x74>)
   d4dfe:	480d      	ldr	r0, [pc, #52]	; (d4e34 <_Z18loadSystemDefaultsv+0x78>)
   d4e00:	f7ff f9b0 	bl	d4164 <_ZNK5spark6Logger4infoEPKcz>
  sysStatus.structuresVersion = 1;
   d4e04:	4b0c      	ldr	r3, [pc, #48]	; (d4e38 <_Z18loadSystemDefaultsv+0x7c>)
   d4e06:	4a0d      	ldr	r2, [pc, #52]	; (d4e3c <_Z18loadSystemDefaultsv+0x80>)
   d4e08:	605a      	str	r2, [r3, #4]
  sysStatus.firmwareRelease = 1;
  sysStatus.verboseMode = false;
  sysStatus.solarPowerMode = true;
  sysStatus.lowPowerMode = true;
   d4e0a:	2201      	movs	r2, #1
   d4e0c:	721a      	strb	r2, [r3, #8]
  sysStatus.resetCount = 0;
  sysStatus.lastHookResponse = 0;
  sysStatus.frequencyMinutes = 60;
   d4e0e:	213c      	movs	r1, #60	; 0x3c
  sysStatus.resetCount = 0;
   d4e10:	2200      	movs	r2, #0
  sysStatus.lastHookResponse = 0;
   d4e12:	e9c3 2203 	strd	r2, r2, [r3, #12]
  sysStatus.frequencyMinutes = 60;
   d4e16:	8359      	strh	r1, [r3, #26]
  sysStatus.lastAlertCode = 0;
   d4e18:	771a      	strb	r2, [r3, #28]
  sysStatus.lastAlertTime = 0;
   d4e1a:	621a      	str	r2, [r3, #32]
  sysStatus.verizonSIM = false;
   d4e1c:	f883 2024 	strb.w	r2, [r3, #36]	; 0x24
   d4e20:	b004      	add	sp, #16
   d4e22:	bd10      	pop	{r4, pc}
   d4e24:	2003e288 	.word	0x2003e288
   d4e28:	000dd074 	.word	0x000dd074
   d4e2c:	000dd03e 	.word	0x000dd03e
   d4e30:	000dd08c 	.word	0x000dd08c
   d4e34:	2003e570 	.word	0x2003e570
   d4e38:	2003e2c0 	.word	0x2003e2c0
   d4e3c:	01000101 	.word	0x01000101

000d4e40 <_GLOBAL__sub_I_sysStatus>:
        val_(val) {
   d4e40:	4b01      	ldr	r3, [pc, #4]	; (d4e48 <_GLOBAL__sub_I_sysStatus+0x8>)
   d4e42:	2201      	movs	r2, #1
   d4e44:	701a      	strb	r2, [r3, #0]
   d4e46:	4770      	bx	lr
   d4e48:	2003e288 	.word	0x2003e288

000d4e4c <_Z17storageObjectLoopv>:
bool storageObjectLoop() {                          // Monitors the values of the two objects and writes to FRAM if changed after a second
   d4e4c:	b570      	push	{r4, r5, r6, lr}
  if (Time.now() - lastCheckTime) {          // Check once a second
   d4e4e:	4c31      	ldr	r4, [pc, #196]	; (d4f14 <_Z17storageObjectLoopv+0xc8>)
   d4e50:	f006 fdad 	bl	db9ae <_ZN9TimeClass3nowEv>
   d4e54:	e9d4 2300 	ldrd	r2, r3, [r4]
   d4e58:	17c1      	asrs	r1, r0, #31
   d4e5a:	4299      	cmp	r1, r3
   d4e5c:	bf08      	it	eq
   d4e5e:	4290      	cmpeq	r0, r2
   d4e60:	d056      	beq.n	d4f10 <_Z17storageObjectLoopv+0xc4>
    lastCheckTime = Time.now();                     // Limit all this math to once a second
   d4e62:	f006 fda4 	bl	db9ae <_ZN9TimeClass3nowEv>
                      std::hash<uint32_t>{}(sysStatus.lastHookResponse) + \
   d4e66:	4d2c      	ldr	r5, [pc, #176]	; (d4f18 <_Z17storageObjectLoopv+0xcc>)
    if (sysStatusHash != lastSysStatusHash) {       // If hashes don't match write to FRAM
   d4e68:	4e2c      	ldr	r6, [pc, #176]	; (d4f1c <_Z17storageObjectLoopv+0xd0>)
    lastCheckTime = Time.now();                     // Limit all this math to once a second
   d4e6a:	17c1      	asrs	r1, r0, #31
   d4e6c:	e9c4 0100 	strd	r0, r1, [r4]
                      std::hash<byte>{}(sysStatus.lastAlertCode)+ \
   d4e70:	e9d5 3404 	ldrd	r3, r4, [r5, #16]
   d4e74:	441c      	add	r4, r3
   d4e76:	6a2b      	ldr	r3, [r5, #32]
   d4e78:	441c      	add	r4, r3

  /// Explicit specialization for long long.
  _Cxx_hashtable_define_trivial_hash(long long)

  /// Explicit specialization for unsigned short.
  _Cxx_hashtable_define_trivial_hash(unsigned short)
   d4e7a:	882b      	ldrh	r3, [r5, #0]
   d4e7c:	441c      	add	r4, r3
   d4e7e:	886b      	ldrh	r3, [r5, #2]
   d4e80:	441c      	add	r4, r3
  _Cxx_hashtable_define_trivial_hash(unsigned char)
   d4e82:	792b      	ldrb	r3, [r5, #4]
   d4e84:	441c      	add	r4, r3
   d4e86:	796b      	ldrb	r3, [r5, #5]
   d4e88:	441c      	add	r4, r3
  _Cxx_hashtable_define_trivial_hash(bool)
   d4e8a:	79ab      	ldrb	r3, [r5, #6]
   d4e8c:	441c      	add	r4, r3
   d4e8e:	79eb      	ldrb	r3, [r5, #7]
   d4e90:	441c      	add	r4, r3
   d4e92:	7a2b      	ldrb	r3, [r5, #8]
   d4e94:	441c      	add	r4, r3
   d4e96:	68eb      	ldr	r3, [r5, #12]
   d4e98:	441c      	add	r4, r3
  _Cxx_hashtable_define_trivial_hash(unsigned short)
   d4e9a:	8b2b      	ldrh	r3, [r5, #24]
   d4e9c:	441c      	add	r4, r3
   d4e9e:	8b6b      	ldrh	r3, [r5, #26]
   d4ea0:	441c      	add	r4, r3
  _Cxx_hashtable_define_trivial_hash(unsigned char)
   d4ea2:	7f2b      	ldrb	r3, [r5, #28]
   d4ea4:	441c      	add	r4, r3
  _Cxx_hashtable_define_trivial_hash(bool)
   d4ea6:	f895 3024 	ldrb.w	r3, [r5, #36]	; 0x24
                      std::hash<bool>{}(sysStatus.verizonSIM);
   d4eaa:	441c      	add	r4, r3
    if (sysStatusHash != lastSysStatusHash) {       // If hashes don't match write to FRAM
   d4eac:	6833      	ldr	r3, [r6, #0]
   d4eae:	429c      	cmp	r4, r3
   d4eb0:	d02c      	beq.n	d4f0c <_Z17storageObjectLoopv+0xc0>
      Log.info("sysStaus object stored and hash updated");
   d4eb2:	491b      	ldr	r1, [pc, #108]	; (d4f20 <_Z17storageObjectLoopv+0xd4>)
   d4eb4:	481b      	ldr	r0, [pc, #108]	; (d4f24 <_Z17storageObjectLoopv+0xd8>)
   d4eb6:	f7ff f955 	bl	d4164 <_ZNK5spark6Logger4infoEPKcz>
        writeData(framAddr, (const uint8_t *)&t, sizeof(T));
   d4eba:	481b      	ldr	r0, [pc, #108]	; (d4f28 <_Z17storageObjectLoopv+0xdc>)
   d4ebc:	2328      	movs	r3, #40	; 0x28
   d4ebe:	462a      	mov	r2, r5
   d4ec0:	2101      	movs	r1, #1
   d4ec2:	f002 f9a2 	bl	d720a <_ZN6MB85RC9writeDataEjPKhj>
      lastSysStatusHash = sysStatusHash;
   d4ec6:	6034      	str	r4, [r6, #0]
      returnValue = true;                           // In case I want to test whether values changed
   d4ec8:	2001      	movs	r0, #1
    size_t currentHash =  std::hash<byte>{}(current.internalTempC) + \
   d4eca:	4d18      	ldr	r5, [pc, #96]	; (d4f2c <_Z17storageObjectLoopv+0xe0>)
    if (currentHash != lastCurrentHash) {           // If hashes don't match write to FRAM
   d4ecc:	4e18      	ldr	r6, [pc, #96]	; (d4f30 <_Z17storageObjectLoopv+0xe4>)
    size_t currentHash =  std::hash<byte>{}(current.internalTempC) + \
   d4ece:	686b      	ldr	r3, [r5, #4]
  _Cxx_hashtable_define_trivial_hash(unsigned char)
   d4ed0:	782c      	ldrb	r4, [r5, #0]
   d4ed2:	441c      	add	r4, r3
   d4ed4:	7a2b      	ldrb	r3, [r5, #8]
                      std::hash<int>{}(current.stateOfCharge)+ \
   d4ed6:	441c      	add	r4, r3
                      std::hash<byte>{}(current.batteryState) + \
   d4ed8:	692b      	ldr	r3, [r5, #16]
   d4eda:	441c      	add	r4, r3
  _Cxx_hashtable_define_trivial_hash(unsigned short)
   d4edc:	8b2b      	ldrh	r3, [r5, #24]
                      std::hash<time_t>{}(current.lastSampleTime) + \
   d4ede:	441c      	add	r4, r3
  _Cxx_hashtable_define_trivial_hash(unsigned char)
   d4ee0:	7eab      	ldrb	r3, [r5, #26]
                      std::hash<uint16_t>{}(current.rssi) + \
   d4ee2:	441c      	add	r4, r3
  _Cxx_hashtable_define_trivial_hash(unsigned short)
   d4ee4:	8bab      	ldrh	r3, [r5, #28]
                      std::hash<uint8_t>{}(current.messageNumber) + \
   d4ee6:	441c      	add	r4, r3
   d4ee8:	8beb      	ldrh	r3, [r5, #30]
                      std::hash<uint16_t>{}(current.daily);
   d4eea:	441c      	add	r4, r3
    if (currentHash != lastCurrentHash) {           // If hashes don't match write to FRAM
   d4eec:	6833      	ldr	r3, [r6, #0]
   d4eee:	429c      	cmp	r4, r3
   d4ef0:	d00b      	beq.n	d4f0a <_Z17storageObjectLoopv+0xbe>
      Log.info("current object stored and hash updated");
   d4ef2:	4910      	ldr	r1, [pc, #64]	; (d4f34 <_Z17storageObjectLoopv+0xe8>)
   d4ef4:	480b      	ldr	r0, [pc, #44]	; (d4f24 <_Z17storageObjectLoopv+0xd8>)
   d4ef6:	f7ff f935 	bl	d4164 <_ZNK5spark6Logger4infoEPKcz>
   d4efa:	480b      	ldr	r0, [pc, #44]	; (d4f28 <_Z17storageObjectLoopv+0xdc>)
   d4efc:	2320      	movs	r3, #32
   d4efe:	462a      	mov	r2, r5
   d4f00:	2150      	movs	r1, #80	; 0x50
   d4f02:	f002 f982 	bl	d720a <_ZN6MB85RC9writeDataEjPKhj>
      lastCurrentHash = currentHash;
   d4f06:	6034      	str	r4, [r6, #0]
      returnValue = true;
   d4f08:	2001      	movs	r0, #1
}
   d4f0a:	bd70      	pop	{r4, r5, r6, pc}
  bool returnValue = false;
   d4f0c:	2000      	movs	r0, #0
   d4f0e:	e7dc      	b.n	d4eca <_Z17storageObjectLoopv+0x7e>
   d4f10:	2000      	movs	r0, #0
   d4f12:	e7fa      	b.n	d4f0a <_Z17storageObjectLoopv+0xbe>
   d4f14:	2003e290 	.word	0x2003e290
   d4f18:	2003e2c0 	.word	0x2003e2c0
   d4f1c:	2003e29c 	.word	0x2003e29c
   d4f20:	000dd0a4 	.word	0x000dd0a4
   d4f24:	2003e570 	.word	0x2003e570
   d4f28:	2003ddac 	.word	0x2003ddac
   d4f2c:	2003e2a0 	.word	0x2003e2a0
   d4f30:	2003e298 	.word	0x2003e298
   d4f34:	000dd0cc 	.word	0x000dd0cc

000d4f38 <_Z18storageObjectStartv>:
bool storageObjectStart() {
   d4f38:	b513      	push	{r0, r1, r4, lr}
  Log.info("Initializing the Object Store");
   d4f3a:	4921      	ldr	r1, [pc, #132]	; (d4fc0 <_Z18storageObjectStartv+0x88>)
   d4f3c:	4821      	ldr	r0, [pc, #132]	; (d4fc4 <_Z18storageObjectStartv+0x8c>)
   d4f3e:	f7ff f911 	bl	d4164 <_ZNK5spark6Logger4infoEPKcz>
  fram.begin();                                     // Initialize the FRAM module
   d4f42:	4821      	ldr	r0, [pc, #132]	; (d4fc8 <_Z18storageObjectStartv+0x90>)
   d4f44:	f002 f8d4 	bl	d70f0 <_ZN6MB85RC5beginEv>
        readData(framAddr, (uint8_t *)&t, sizeof(T));
   d4f48:	481f      	ldr	r0, [pc, #124]	; (d4fc8 <_Z18storageObjectStartv+0x90>)
   d4f4a:	2301      	movs	r3, #1
   d4f4c:	f10d 0207 	add.w	r2, sp, #7
   d4f50:	2100      	movs	r1, #0
   d4f52:	f002 f90f 	bl	d7174 <_ZN6MB85RC8readDataEjPhj>
  if (tempVersion != FRAMversionNumber) {           // Check to see if the memory map in the sketch matches the data on the chip
   d4f56:	f89d 4007 	ldrb.w	r4, [sp, #7]
   d4f5a:	2c01      	cmp	r4, #1
   d4f5c:	d01c      	beq.n	d4f98 <_Z18storageObjectStartv+0x60>
    Log.info("FRAM mismatch, erasing and locafing defaults if it checks out");
   d4f5e:	491b      	ldr	r1, [pc, #108]	; (d4fcc <_Z18storageObjectStartv+0x94>)
   d4f60:	4818      	ldr	r0, [pc, #96]	; (d4fc4 <_Z18storageObjectStartv+0x8c>)
   d4f62:	f7ff f8ff 	bl	d4164 <_ZNK5spark6Logger4infoEPKcz>
    fram.erase();                                   // Reset the FRAM to correct the issue
   d4f66:	4818      	ldr	r0, [pc, #96]	; (d4fc8 <_Z18storageObjectStartv+0x90>)
   d4f68:	f002 f8cc 	bl	d7104 <_ZN6MB85RC5eraseEv>
        writeData(framAddr, (const uint8_t *)&t, sizeof(T));
   d4f6c:	4a18      	ldr	r2, [pc, #96]	; (d4fd0 <_Z18storageObjectStartv+0x98>)
   d4f6e:	4816      	ldr	r0, [pc, #88]	; (d4fc8 <_Z18storageObjectStartv+0x90>)
   d4f70:	2304      	movs	r3, #4
   d4f72:	2100      	movs	r1, #0
   d4f74:	f002 f949 	bl	d720a <_ZN6MB85RC9writeDataEjPKhj>
        readData(framAddr, (uint8_t *)&t, sizeof(T));
   d4f78:	4813      	ldr	r0, [pc, #76]	; (d4fc8 <_Z18storageObjectStartv+0x90>)
   d4f7a:	2301      	movs	r3, #1
   d4f7c:	f10d 0207 	add.w	r2, sp, #7
   d4f80:	2100      	movs	r1, #0
   d4f82:	f002 f8f7 	bl	d7174 <_ZN6MB85RC8readDataEjPhj>
    if (tempVersion != FRAMversionNumber) {
   d4f86:	f89d 4007 	ldrb.w	r4, [sp, #7]
   d4f8a:	2c01      	cmp	r4, #1
   d4f8c:	d115      	bne.n	d4fba <_Z18storageObjectStartv+0x82>
    loadSystemDefaults();                           // Since we are re-initializing the storage objects, we need to set the right default values
   d4f8e:	f7ff ff15 	bl	d4dbc <_Z18loadSystemDefaultsv>
   d4f92:	4620      	mov	r0, r4
}
   d4f94:	b002      	add	sp, #8
   d4f96:	bd10      	pop	{r4, pc}
    Log.info("FRAM initialized, loading objects");
   d4f98:	490e      	ldr	r1, [pc, #56]	; (d4fd4 <_Z18storageObjectStartv+0x9c>)
   d4f9a:	480a      	ldr	r0, [pc, #40]	; (d4fc4 <_Z18storageObjectStartv+0x8c>)
   d4f9c:	f7ff f8e2 	bl	d4164 <_ZNK5spark6Logger4infoEPKcz>
   d4fa0:	4621      	mov	r1, r4
   d4fa2:	4a0d      	ldr	r2, [pc, #52]	; (d4fd8 <_Z18storageObjectStartv+0xa0>)
   d4fa4:	4808      	ldr	r0, [pc, #32]	; (d4fc8 <_Z18storageObjectStartv+0x90>)
   d4fa6:	2328      	movs	r3, #40	; 0x28
   d4fa8:	f002 f8e4 	bl	d7174 <_ZN6MB85RC8readDataEjPhj>
   d4fac:	4a0b      	ldr	r2, [pc, #44]	; (d4fdc <_Z18storageObjectStartv+0xa4>)
   d4fae:	4806      	ldr	r0, [pc, #24]	; (d4fc8 <_Z18storageObjectStartv+0x90>)
   d4fb0:	2320      	movs	r3, #32
   d4fb2:	2150      	movs	r1, #80	; 0x50
   d4fb4:	f002 f8de 	bl	d7174 <_ZN6MB85RC8readDataEjPhj>
   d4fb8:	e7eb      	b.n	d4f92 <_Z18storageObjectStartv+0x5a>
      return false;
   d4fba:	2000      	movs	r0, #0
   d4fbc:	e7ea      	b.n	d4f94 <_Z18storageObjectStartv+0x5c>
   d4fbe:	bf00      	nop
   d4fc0:	000dd0f3 	.word	0x000dd0f3
   d4fc4:	2003e570 	.word	0x2003e570
   d4fc8:	2003ddac 	.word	0x2003ddac
   d4fcc:	000dd111 	.word	0x000dd111
   d4fd0:	000dd174 	.word	0x000dd174
   d4fd4:	000dd14f 	.word	0x000dd14f
   d4fd8:	2003e2c0 	.word	0x2003e2c0
   d4fdc:	2003e2a0 	.word	0x2003e2a0

000d4fe0 <_Z17tmp36TemperatureCi>:
 */
float tmp36TemperatureC (int adcValue) { 
    // Analog inputs have values from 0-4095, or
    // 12-bit precision. 0 = 0V, 4095 = 3.3V, 0.0008 volts (0.8 mV) per unit
    // The temperature sensor docs use millivolts (mV), so use 3300 as the factor instead of 3.3.
    float mV = ((float)adcValue) * 3300 / 4095;
   d4fe0:	ee07 0a90 	vmov	s15, r0
   d4fe4:	ed9f 7a09 	vldr	s14, [pc, #36]	; d500c <_Z17tmp36TemperatureCi+0x2c>
   d4fe8:	eef8 7ae7 	vcvt.f32.s32	s15, s15
   d4fec:	ee67 7a87 	vmul.f32	s15, s15, s14
   d4ff0:	ed9f 7a07 	vldr	s14, [pc, #28]	; d5010 <_Z17tmp36TemperatureCi+0x30>
   d4ff4:	ee87 0a87 	vdiv.f32	s0, s15, s14

    // With the TMP36, with the flat side facing you, the pins are:
    // Vcc | Analog Out | Ground
    // You must put a 0.1 uF capacitor between the analog output and ground or you'll get crazy
    // inaccurate values!
    return (mV - 500) / 10;
   d4ff8:	eddf 7a06 	vldr	s15, [pc, #24]	; d5014 <_Z17tmp36TemperatureCi+0x34>
   d4ffc:	ee70 7a67 	vsub.f32	s15, s0, s15
}
   d5000:	eeb2 0a04 	vmov.f32	s0, #36	; 0x41200000  10.0
   d5004:	ee87 0a80 	vdiv.f32	s0, s15, s0
   d5008:	4770      	bx	lr
   d500a:	bf00      	nop
   d500c:	454e4000 	.word	0x454e4000
   d5010:	457ff000 	.word	0x457ff000
   d5014:	43fa0000 	.word	0x43fa0000

000d5018 <_Z12batteryStatev>:
 * from sleep.  In order to help with this, there is a test for enable sleep and an additional delay.
 * 
 * @return true  - If the battery has a charge over 60%
 * @return false - Less than 60% indicates a low battery condition
 */
bool batteryState() {
   d5018:	b510      	push	{r4, lr}
   d501a:	b086      	sub	sp, #24
    const diag_source* src = nullptr;
   d501c:	2200      	movs	r2, #0
    const int ret = diag_get_source(id, &src, nullptr);
   d501e:	a902      	add	r1, sp, #8
   d5020:	2007      	movs	r0, #7
    const diag_source* src = nullptr;
   d5022:	9202      	str	r2, [sp, #8]
    const int ret = diag_get_source(id, &src, nullptr);
   d5024:	f003 fe12 	bl	d8c4c <diag_get_source>
    if (ret != SYSTEM_ERROR_NONE) {
   d5028:	b9b8      	cbnz	r0, d505a <_Z12batteryStatev+0x42>
    return get(src, val);
   d502a:	9c02      	ldr	r4, [sp, #8]
    SPARK_ASSERT(src && src->callback);
   d502c:	b10c      	cbz	r4, d5032 <_Z12batteryStatev+0x1a>
   d502e:	6923      	ldr	r3, [r4, #16]
   d5030:	b923      	cbnz	r3, d503c <_Z12batteryStatev+0x24>
   d5032:	4a19      	ldr	r2, [pc, #100]	; (d5098 <_Z12batteryStatev+0x80>)
   d5034:	2100      	movs	r1, #0
   d5036:	200a      	movs	r0, #10
   d5038:	f003 fde0 	bl	d8bfc <panic_>
    diag_source_get_cmd_data d = { sizeof(diag_source_get_cmd_data), 0 /* reserved */, data, size };
   d503c:	2300      	movs	r3, #0
   d503e:	f8ad 300e 	strh.w	r3, [sp, #14]
   d5042:	230c      	movs	r3, #12
   d5044:	f8ad 300c 	strh.w	r3, [sp, #12]
   d5048:	ab01      	add	r3, sp, #4
   d504a:	9304      	str	r3, [sp, #16]
   d504c:	2304      	movs	r3, #4
   d504e:	9305      	str	r3, [sp, #20]
    const int ret = src->callback(src, DIAG_SOURCE_CMD_GET, &d);
   d5050:	aa03      	add	r2, sp, #12
   d5052:	6923      	ldr	r3, [r4, #16]
   d5054:	2101      	movs	r1, #1
   d5056:	4620      	mov	r0, r4
   d5058:	4798      	blx	r3
    current.batteryState = System.batteryState();                      // Call before isItSafeToCharge() as it may overwrite the context

  if (sysStatus.lowPowerMode) {                                        // Need to take these steps if we are sleeping
   d505a:	4a10      	ldr	r2, [pc, #64]	; (d509c <_Z12batteryStatev+0x84>)
    current.batteryState = System.batteryState();                      // Call before isItSafeToCharge() as it may overwrite the context
   d505c:	4c10      	ldr	r4, [pc, #64]	; (d50a0 <_Z12batteryStatev+0x88>)
  if (sysStatus.lowPowerMode) {                                        // Need to take these steps if we are sleeping
   d505e:	7a12      	ldrb	r2, [r2, #8]
        if (r < 0) {
   d5060:	2800      	cmp	r0, #0
        return val;
   d5062:	bfa8      	it	ge
   d5064:	9801      	ldrge	r0, [sp, #4]
    current.batteryState = System.batteryState();                      // Call before isItSafeToCharge() as it may overwrite the context
   d5066:	7220      	strb	r0, [r4, #8]
  if (sysStatus.lowPowerMode) {                                        // Need to take these steps if we are sleeping
   d5068:	b132      	cbz	r2, d5078 <_Z12batteryStatev+0x60>
    fuelGauge.quickStart();                                            // May help us re-establish a baseline for SoC
   d506a:	480e      	ldr	r0, [pc, #56]	; (d50a4 <_Z12batteryStatev+0x8c>)
   d506c:	f004 fc74 	bl	d9958 <_ZN9FuelGauge10quickStartEv>
    delay(500);
   d5070:	f44f 70fa 	mov.w	r0, #500	; 0x1f4
   d5074:	f003 ff64 	bl	d8f40 <delay>
  }

  current.stateOfCharge = int(fuelGauge.getSoC());                   // Assign to system value
   d5078:	480a      	ldr	r0, [pc, #40]	; (d50a4 <_Z12batteryStatev+0x8c>)
   d507a:	f004 fc0d 	bl	d9898 <_ZN9FuelGauge6getSoCEv>
   d507e:	eefd 7ac0 	vcvt.s32.f32	s15, s0
   d5082:	ee17 0a90 	vmov	r0, s15

  if (current.stateOfCharge > 60) return true;
  else return false;
}
   d5086:	283c      	cmp	r0, #60	; 0x3c
   d5088:	bfd4      	ite	le
   d508a:	2000      	movle	r0, #0
   d508c:	2001      	movgt	r0, #1
  current.stateOfCharge = int(fuelGauge.getSoC());                   // Assign to system value
   d508e:	edc4 7a01 	vstr	s15, [r4, #4]
}
   d5092:	b006      	add	sp, #24
   d5094:	bd10      	pop	{r4, pc}
   d5096:	bf00      	nop
   d5098:	000d887d 	.word	0x000d887d
   d509c:	2003e2c0 	.word	0x2003e2c0
   d50a0:	2003e2a0 	.word	0x2003e2a0
   d50a4:	2003e2e8 	.word	0x2003e2e8

000d50a8 <_Z16isItSafeToChargev>:
 * 
 * @link https://batteryuniversity.com/learn/article/charging_at_high_and_low_temperatures @endlink
 * 
 */
bool isItSafeToCharge()                             // Returns a true or false if the battery is in a safe charging range.
{
   d50a8:	b537      	push	{r0, r1, r2, r4, r5, lr}
  PMIC pmic(true);
  if (current.internalTempC < 0 || current.internalTempC > 37 )  {  // Reference: (32 to 113 but with safety)
   d50aa:	4d0c      	ldr	r5, [pc, #48]	; (d50dc <_Z16isItSafeToChargev+0x34>)
  PMIC pmic(true);
   d50ac:	2101      	movs	r1, #1
   d50ae:	a801      	add	r0, sp, #4
   d50b0:	f005 ffb3 	bl	db01a <_ZN4PMICC1Eb>
  if (current.internalTempC < 0 || current.internalTempC > 37 )  {  // Reference: (32 to 113 but with safety)
   d50b4:	782b      	ldrb	r3, [r5, #0]
   d50b6:	2b25      	cmp	r3, #37	; 0x25
    pmic.disableCharging();                         // It is too cold or too hot to safely charge the battery
   d50b8:	a801      	add	r0, sp, #4
   d50ba:	f04f 0401 	mov.w	r4, #1
  if (current.internalTempC < 0 || current.internalTempC > 37 )  {  // Reference: (32 to 113 but with safety)
   d50be:	d909      	bls.n	d50d4 <_Z16isItSafeToChargev+0x2c>
    pmic.disableCharging();                         // It is too cold or too hot to safely charge the battery
   d50c0:	f006 f83e 	bl	db140 <_ZN4PMIC15disableChargingEv>
    current.batteryState = 1;                       // Overwrites the values from the batteryState API to reflect that we are "Not Charging"
   d50c4:	722c      	strb	r4, [r5, #8]
    return false;
   d50c6:	2400      	movs	r4, #0
  PMIC pmic(true);
   d50c8:	a801      	add	r0, sp, #4
   d50ca:	f005 ffb5 	bl	db038 <_ZN4PMICD1Ev>
  }
  else {
    pmic.enableCharging();                          // It is safe to charge the battery
    return true;
  }
}
   d50ce:	4620      	mov	r0, r4
   d50d0:	b003      	add	sp, #12
   d50d2:	bd30      	pop	{r4, r5, pc}
    pmic.enableCharging();                          // It is safe to charge the battery
   d50d4:	f006 f81d 	bl	db112 <_ZN4PMIC14enableChargingEv>
    return true;
   d50d8:	e7f6      	b.n	d50c8 <_Z16isItSafeToChargev+0x20>
   d50da:	bf00      	nop
   d50dc:	2003e2a0 	.word	0x2003e2a0

000d50e0 <_Z17getSignalStrengthv>:
 * @brief Get the Signal Strength values and make up a string for use in the console
 * 
 * @details Provides data on the signal strength and quality
 * 
 */
void getSignalStrength() {
   d50e0:	b530      	push	{r4, r5, lr}
  const char* radioTech[10] = {"Unknown","None","WiFi","GSM","UMTS","CDMA","LTE","IEEE802154","LTE_CAT_M1","LTE_CAT_NB1"};
   d50e2:	4d19      	ldr	r5, [pc, #100]	; (d5148 <_Z17getSignalStrengthv+0x68>)
   d50e4:	cd0f      	ldmia	r5!, {r0, r1, r2, r3}
void getSignalStrength() {
   d50e6:	b099      	sub	sp, #100	; 0x64
  const char* radioTech[10] = {"Unknown","None","WiFi","GSM","UMTS","CDMA","LTE","IEEE802154","LTE_CAT_M1","LTE_CAT_NB1"};
   d50e8:	ac04      	add	r4, sp, #16
   d50ea:	c40f      	stmia	r4!, {r0, r1, r2, r3}
   d50ec:	cd0f      	ldmia	r5!, {r0, r1, r2, r3}
   d50ee:	c40f      	stmia	r4!, {r0, r1, r2, r3}
   d50f0:	e895 0003 	ldmia.w	r5, {r0, r1}
   d50f4:	e884 0003 	stmia.w	r4, {r0, r1}
  // New Signal Strength capability - https://community.particle.io/t/boron-lte-and-cellular-rssi-funny-values/45299/8
  CellularSignal sig = Cellular.RSSI();
   d50f8:	4914      	ldr	r1, [pc, #80]	; (d514c <_Z17getSignalStrengthv+0x6c>)
   d50fa:	a80e      	add	r0, sp, #56	; 0x38
   d50fc:	f003 ff7a 	bl	d8ff4 <_ZN5spark13CellularClass4RSSIEv>

  auto rat = sig.getAccessTechnology();
   d5100:	a80e      	add	r0, sp, #56	; 0x38
   d5102:	f003 ffca 	bl	d909a <_ZNK14CellularSignal19getAccessTechnologyEv>
   d5106:	4604      	mov	r4, r0

  //float strengthVal = sig.getStrengthValue();
  float strengthPercentage = sig.getStrength();
   d5108:	a80e      	add	r0, sp, #56	; 0x38
   d510a:	f003 ffe1 	bl	d90d0 <_ZNK14CellularSignal11getStrengthEv>

  //float qualityVal = sig.getQualityValue();
  float qualityPercentage = sig.getQuality();
   d510e:	a80e      	add	r0, sp, #56	; 0x38
  float strengthPercentage = sig.getStrength();
   d5110:	ee10 5a10 	vmov	r5, s0
  float qualityPercentage = sig.getQuality();
   d5114:	f004 f80c 	bl	d9130 <_ZNK14CellularSignal10getQualityEv>

  snprintf(signalStr,sizeof(signalStr), "%s S:%2.0f%%, Q:%2.0f%% ", radioTech[rat], strengthPercentage, qualityPercentage);
   d5118:	ab18      	add	r3, sp, #96	; 0x60
  float qualityPercentage = sig.getQuality();
   d511a:	ee10 0a10 	vmov	r0, s0
  snprintf(signalStr,sizeof(signalStr), "%s S:%2.0f%%, Q:%2.0f%% ", radioTech[rat], strengthPercentage, qualityPercentage);
   d511e:	eb03 0484 	add.w	r4, r3, r4, lsl #2
   d5122:	f007 f89f 	bl	dc264 <__aeabi_f2d>
   d5126:	e9cd 0102 	strd	r0, r1, [sp, #8]
   d512a:	4628      	mov	r0, r5
   d512c:	f007 f89a 	bl	dc264 <__aeabi_f2d>
   d5130:	e9cd 0100 	strd	r0, r1, [sp]
   d5134:	4a06      	ldr	r2, [pc, #24]	; (d5150 <_Z17getSignalStrengthv+0x70>)
   d5136:	f854 3c50 	ldr.w	r3, [r4, #-80]
   d513a:	4806      	ldr	r0, [pc, #24]	; (d5154 <_Z17getSignalStrengthv+0x74>)
   d513c:	2140      	movs	r1, #64	; 0x40
   d513e:	f003 feb7 	bl	d8eb0 <snprintf>
   d5142:	b019      	add	sp, #100	; 0x64
   d5144:	bd30      	pop	{r4, r5, pc}
   d5146:	bf00      	nop
   d5148:	000dd22c 	.word	0x000dd22c
   d514c:	2003e52c 	.word	0x2003e52c
   d5150:	000dd1f1 	.word	0x000dd1f1
   d5154:	2003dca5 	.word	0x2003dca5

000d5158 <_Z16takeMeasurementsv>:
    current.internalTempC = (int)tmp36TemperatureC(analogRead(TMP36_SENSE_PIN));
   d5158:	4b10      	ldr	r3, [pc, #64]	; (d519c <_Z16takeMeasurementsv+0x44>)
bool takeMeasurements() { 
   d515a:	b510      	push	{r4, lr}
    current.internalTempC = (int)tmp36TemperatureC(analogRead(TMP36_SENSE_PIN));
   d515c:	8818      	ldrh	r0, [r3, #0]
    snprintf(internalTempStr,sizeof(internalTempStr), "%i C", current.internalTempC);
   d515e:	4c10      	ldr	r4, [pc, #64]	; (d51a0 <_Z16takeMeasurementsv+0x48>)
    current.internalTempC = (int)tmp36TemperatureC(analogRead(TMP36_SENSE_PIN));
   d5160:	f006 fe7b 	bl	dbe5a <analogRead>
   d5164:	f7ff ff3c 	bl	d4fe0 <_Z17tmp36TemperatureCi>
   d5168:	eefd 7ac0 	vcvt.s32.f32	s15, s0
   d516c:	4a0d      	ldr	r2, [pc, #52]	; (d51a4 <_Z16takeMeasurementsv+0x4c>)
   d516e:	ee17 3a90 	vmov	r3, s15
    snprintf(internalTempStr,sizeof(internalTempStr), "%i C", current.internalTempC);
   d5172:	2110      	movs	r1, #16
    current.internalTempC = (int)tmp36TemperatureC(analogRead(TMP36_SENSE_PIN));
   d5174:	7013      	strb	r3, [r2, #0]
    snprintf(internalTempStr,sizeof(internalTempStr), "%i C", current.internalTempC);
   d5176:	4620      	mov	r0, r4
   d5178:	b2db      	uxtb	r3, r3
   d517a:	4a0b      	ldr	r2, [pc, #44]	; (d51a8 <_Z16takeMeasurementsv+0x50>)
   d517c:	f003 fe98 	bl	d8eb0 <snprintf>
    Log.info("Internal Temperature is %s",internalTempStr);
   d5180:	490a      	ldr	r1, [pc, #40]	; (d51ac <_Z16takeMeasurementsv+0x54>)
   d5182:	480b      	ldr	r0, [pc, #44]	; (d51b0 <_Z16takeMeasurementsv+0x58>)
   d5184:	4622      	mov	r2, r4
   d5186:	f7fe ffed 	bl	d4164 <_ZNK5spark6Logger4infoEPKcz>
    batteryState();
   d518a:	f7ff ff45 	bl	d5018 <_Z12batteryStatev>
    isItSafeToCharge();
   d518e:	f7ff ff8b 	bl	d50a8 <_Z16isItSafeToChargev>
    getSignalStrength();
   d5192:	f7ff ffa5 	bl	d50e0 <_Z17getSignalStrengthv>
}
   d5196:	2001      	movs	r0, #1
   d5198:	bd10      	pop	{r4, pc}
   d519a:	bf00      	nop
   d519c:	000dcfee 	.word	0x000dcfee
   d51a0:	2003dc95 	.word	0x2003dc95
   d51a4:	2003e2a0 	.word	0x2003e2a0
   d51a8:	000dd20a 	.word	0x000dd20a
   d51ac:	000dd20f 	.word	0x000dd20f
   d51b0:	2003e570 	.word	0x2003e570

000d51b4 <_GLOBAL__sub_I_batteryContext>:
FuelGauge fuelGauge;                                // Needed to address issue with updates in low battery state 
   d51b4:	4801      	ldr	r0, [pc, #4]	; (d51bc <_GLOBAL__sub_I_batteryContext+0x8>)
   d51b6:	2100      	movs	r1, #0
   d51b8:	f004 bb20 	b.w	d97fc <_ZN9FuelGaugeC1Eb>
   d51bc:	2003e2e8 	.word	0x2003e2e8

000d51c0 <_ZN6AB1805D1Ev>:
    instance = this;
}

AB1805::~AB1805() {

}
   d51c0:	4770      	bx	lr

000d51c2 <_ZN6AB1805D0Ev>:
AB1805::~AB1805() {
   d51c2:	b510      	push	{r4, lr}
}
   d51c4:	2120      	movs	r1, #32
AB1805::~AB1805() {
   d51c6:	4604      	mov	r4, r0
}
   d51c8:	f006 fed8 	bl	dbf7c <_ZdlPvj>
   d51cc:	4620      	mov	r0, r4
   d51ce:	bd10      	pop	{r4, pc}

000d51d0 <_ZNK5spark6Logger5traceEPKcz>:
inline void spark::Logger::trace(const char *fmt, ...) const {
   d51d0:	b40e      	push	{r1, r2, r3}
   d51d2:	b510      	push	{r4, lr}
   d51d4:	b08d      	sub	sp, #52	; 0x34
   d51d6:	aa0f      	add	r2, sp, #60	; 0x3c
    log(LOG_LEVEL_TRACE, fmt, args);
   d51d8:	6801      	ldr	r1, [r0, #0]
inline void spark::Logger::trace(const char *fmt, ...) const {
   d51da:	f852 4b04 	ldr.w	r4, [r2], #4
    va_start(args, fmt);
   d51de:	9203      	str	r2, [sp, #12]
    attr.flags = 0;
   d51e0:	2300      	movs	r3, #0
   d51e2:	2020      	movs	r0, #32
   d51e4:	e9cd 0304 	strd	r0, r3, [sp, #16]
    log_message_v(level, name_, &attr, nullptr, fmt, args);
   d51e8:	e9cd 4200 	strd	r4, r2, [sp]
   d51ec:	2001      	movs	r0, #1
   d51ee:	aa04      	add	r2, sp, #16
   d51f0:	f003 fd14 	bl	d8c1c <log_message_v>
}
   d51f4:	b00d      	add	sp, #52	; 0x34
   d51f6:	e8bd 4010 	ldmia.w	sp!, {r4, lr}
   d51fa:	b003      	add	sp, #12
   d51fc:	4770      	bx	lr

000d51fe <_ZNK5spark6Logger5errorEPKcz>:
inline void spark::Logger::error(const char *fmt, ...) const {
   d51fe:	b40e      	push	{r1, r2, r3}
   d5200:	b510      	push	{r4, lr}
   d5202:	b08d      	sub	sp, #52	; 0x34
   d5204:	aa0f      	add	r2, sp, #60	; 0x3c
    log(LOG_LEVEL_ERROR, fmt, args);
   d5206:	6801      	ldr	r1, [r0, #0]
inline void spark::Logger::error(const char *fmt, ...) const {
   d5208:	f852 4b04 	ldr.w	r4, [r2], #4
    va_start(args, fmt);
   d520c:	9203      	str	r2, [sp, #12]
    attr.flags = 0;
   d520e:	2300      	movs	r3, #0
   d5210:	2020      	movs	r0, #32
   d5212:	e9cd 0304 	strd	r0, r3, [sp, #16]
    log_message_v(level, name_, &attr, nullptr, fmt, args);
   d5216:	e9cd 4200 	strd	r4, r2, [sp]
   d521a:	2032      	movs	r0, #50	; 0x32
   d521c:	aa04      	add	r2, sp, #16
   d521e:	f003 fcfd 	bl	d8c1c <log_message_v>
}
   d5222:	b00d      	add	sp, #52	; 0x34
   d5224:	e8bd 4010 	ldmia.w	sp!, {r4, lr}
   d5228:	b003      	add	sp, #12
   d522a:	4770      	bx	lr

000d522c <_ZN6AB1805C1ER7TwoWireh>:
AB1805::AB1805(TwoWire &wire, uint8_t i2cAddr) : wire(wire), i2cAddr(i2cAddr) {
   d522c:	b510      	push	{r4, lr}
   d522e:	7202      	strb	r2, [r0, #8]
   d5230:	22ff      	movs	r2, #255	; 0xff
   d5232:	8142      	strh	r2, [r0, #10]
   d5234:	2200      	movs	r2, #0
   d5236:	e9c0 2203 	strd	r2, r2, [r0, #12]
   d523a:	6142      	str	r2, [r0, #20]
   d523c:	7602      	strb	r2, [r0, #24]
   d523e:	61c2      	str	r2, [r0, #28]
    instance = this;
   d5240:	4a02      	ldr	r2, [pc, #8]	; (d524c <_ZN6AB1805C1ER7TwoWireh+0x20>)
AB1805::AB1805(TwoWire &wire, uint8_t i2cAddr) : wire(wire), i2cAddr(i2cAddr) {
   d5242:	4c03      	ldr	r4, [pc, #12]	; (d5250 <_ZN6AB1805C1ER7TwoWireh+0x24>)
    instance = this;
   d5244:	6010      	str	r0, [r2, #0]
AB1805::AB1805(TwoWire &wire, uint8_t i2cAddr) : wire(wire), i2cAddr(i2cAddr) {
   d5246:	e9c0 4100 	strd	r4, r1, [r0]
}
   d524a:	bd10      	pop	{r4, pc}
   d524c:	2003e2f4 	.word	0x2003e2f4
   d5250:	000dd458 	.word	0x000dd458

000d5254 <_ZN6AB180513readRegistersEhPhjb>:

bool AB1805::readRegister(uint8_t regAddr, uint8_t &value, bool lock) {
    return readRegisters(regAddr, &value, 1, lock);
}

bool AB1805::readRegisters(uint8_t regAddr, uint8_t *array, size_t num, bool lock) {
   d5254:	e92d 43f8 	stmdb	sp!, {r3, r4, r5, r6, r7, r8, r9, lr}
   d5258:	f89d 8020 	ldrb.w	r8, [sp, #32]
   d525c:	4604      	mov	r4, r0
   d525e:	4689      	mov	r9, r1
   d5260:	4616      	mov	r6, r2
   d5262:	461f      	mov	r7, r3
    bool bResult = false;

    if (lock) {
   d5264:	f1b8 0f00 	cmp.w	r8, #0
   d5268:	d002      	beq.n	d5270 <_ZN6AB180513readRegistersEhPhjb+0x1c>
        wire.lock();
   d526a:	6840      	ldr	r0, [r0, #4]
   d526c:	f004 fc0e 	bl	d9a8c <_ZN7TwoWire4lockEv>
    }

    wire.beginTransmission(i2cAddr);
   d5270:	7a21      	ldrb	r1, [r4, #8]
   d5272:	6860      	ldr	r0, [r4, #4]
   d5274:	f004 fbe7 	bl	d9a46 <_ZN7TwoWire17beginTransmissionEh>
    wire.write(regAddr);
   d5278:	6860      	ldr	r0, [r4, #4]
   d527a:	6803      	ldr	r3, [r0, #0]
   d527c:	4649      	mov	r1, r9
   d527e:	689b      	ldr	r3, [r3, #8]
   d5280:	4798      	blx	r3
    int stat = wire.endTransmission(false);
   d5282:	6860      	ldr	r0, [r4, #4]
   d5284:	2100      	movs	r1, #0
   d5286:	f004 fbfd 	bl	d9a84 <_ZN7TwoWire15endTransmissionEh>
    if (stat == 0) {
   d528a:	4605      	mov	r5, r0
   d528c:	bb00      	cbnz	r0, d52d0 <_ZN6AB180513readRegistersEhPhjb+0x7c>
        size_t count = wire.requestFrom(i2cAddr, num, true);
   d528e:	2301      	movs	r3, #1
   d5290:	7a21      	ldrb	r1, [r4, #8]
   d5292:	6860      	ldr	r0, [r4, #4]
   d5294:	463a      	mov	r2, r7
   d5296:	f004 fbc4 	bl	d9a22 <_ZN7TwoWire11requestFromEhjh>
        if (count == num) {
   d529a:	4287      	cmp	r7, r0
        size_t count = wire.requestFrom(i2cAddr, num, true);
   d529c:	4603      	mov	r3, r0
        if (count == num) {
   d529e:	d109      	bne.n	d52b4 <_ZN6AB180513readRegistersEhPhjb+0x60>
   d52a0:	4437      	add	r7, r6
            for(size_t ii = 0; ii < num; ii++) {
   d52a2:	42be      	cmp	r6, r7
   d52a4:	d01c      	beq.n	d52e0 <_ZN6AB180513readRegistersEhPhjb+0x8c>
                array[ii] = wire.read();
   d52a6:	6860      	ldr	r0, [r4, #4]
   d52a8:	6803      	ldr	r3, [r0, #0]
   d52aa:	695b      	ldr	r3, [r3, #20]
   d52ac:	4798      	blx	r3
   d52ae:	f806 0b01 	strb.w	r0, [r6], #1
            for(size_t ii = 0; ii < num; ii++) {
   d52b2:	e7f6      	b.n	d52a2 <_ZN6AB180513readRegistersEhPhjb+0x4e>
            // _log.print("\n");

            bResult = true;
        }
        else {
            _log.error("failed to read regAddr=%02x count=%u", regAddr, count);
   d52b4:	490b      	ldr	r1, [pc, #44]	; (d52e4 <_ZN6AB180513readRegistersEhPhjb+0x90>)
   d52b6:	480c      	ldr	r0, [pc, #48]	; (d52e8 <_ZN6AB180513readRegistersEhPhjb+0x94>)
   d52b8:	464a      	mov	r2, r9
   d52ba:	f7ff ffa0 	bl	d51fe <_ZNK5spark6Logger5errorEPKcz>
    }
    else {
        _log.error("failed to read regAddr=%02x stat=%d", regAddr, stat);
    }

    if (lock) {
   d52be:	f1b8 0f00 	cmp.w	r8, #0
   d52c2:	d002      	beq.n	d52ca <_ZN6AB180513readRegistersEhPhjb+0x76>
        wire.unlock();
   d52c4:	6860      	ldr	r0, [r4, #4]
   d52c6:	f004 fbea 	bl	d9a9e <_ZN7TwoWire6unlockEv>
    }
    return bResult;    
}
   d52ca:	4628      	mov	r0, r5
   d52cc:	e8bd 83f8 	ldmia.w	sp!, {r3, r4, r5, r6, r7, r8, r9, pc}
        _log.error("failed to read regAddr=%02x stat=%d", regAddr, stat);
   d52d0:	4603      	mov	r3, r0
   d52d2:	4906      	ldr	r1, [pc, #24]	; (d52ec <_ZN6AB180513readRegistersEhPhjb+0x98>)
   d52d4:	4804      	ldr	r0, [pc, #16]	; (d52e8 <_ZN6AB180513readRegistersEhPhjb+0x94>)
   d52d6:	464a      	mov	r2, r9
   d52d8:	f7ff ff91 	bl	d51fe <_ZNK5spark6Logger5errorEPKcz>
    bool bResult = false;
   d52dc:	2500      	movs	r5, #0
   d52de:	e7ee      	b.n	d52be <_ZN6AB180513readRegistersEhPhjb+0x6a>
            bResult = true;
   d52e0:	2501      	movs	r5, #1
   d52e2:	e7ec      	b.n	d52be <_ZN6AB180513readRegistersEhPhjb+0x6a>
   d52e4:	000dd254 	.word	0x000dd254
   d52e8:	2003e2f0 	.word	0x2003e2f0
   d52ec:	000dd279 	.word	0x000dd279

000d52f0 <_ZN6AB180512readRegisterEhRhb>:
bool AB1805::readRegister(uint8_t regAddr, uint8_t &value, bool lock) {
   d52f0:	b507      	push	{r0, r1, r2, lr}
    return readRegisters(regAddr, &value, 1, lock);
   d52f2:	9300      	str	r3, [sp, #0]
   d52f4:	2301      	movs	r3, #1
   d52f6:	f7ff ffad 	bl	d5254 <_ZN6AB180513readRegistersEhPhjb>
}
   d52fa:	b003      	add	sp, #12
   d52fc:	f85d fb04 	ldr.w	pc, [sp], #4

000d5300 <_ZN6AB180510detectChipEv>:
bool AB1805::detectChip() {
   d5300:	b573      	push	{r0, r1, r4, r5, r6, lr}
    if (foutPin != PIN_INVALID) {
   d5302:	8943      	ldrh	r3, [r0, #10]
   d5304:	2bff      	cmp	r3, #255	; 0xff
bool AB1805::detectChip() {
   d5306:	4604      	mov	r4, r0
    if (foutPin != PIN_INVALID) {
   d5308:	d010      	beq.n	d532c <_ZN6AB180510detectChipEv+0x2c>
                _log.info("FOUT did not go HIGH");
   d530a:	4e19      	ldr	r6, [pc, #100]	; (d5370 <_ZN6AB180510detectChipEv+0x70>)
   d530c:	4d19      	ldr	r5, [pc, #100]	; (d5374 <_ZN6AB180510detectChipEv+0x74>)
   d530e:	f003 fabd 	bl	d888c <HAL_Timer_Get_Milli_Seconds>
        while(millis() - start < 1000) {
   d5312:	f5b0 7f7a 	cmp.w	r0, #1000	; 0x3e8
   d5316:	d209      	bcs.n	d532c <_ZN6AB180510detectChipEv+0x2c>
            if (digitalRead(foutPin) == HIGH) {
   d5318:	8960      	ldrh	r0, [r4, #10]
   d531a:	f006 fd8b 	bl	dbe34 <digitalRead>
   d531e:	2801      	cmp	r0, #1
   d5320:	d004      	beq.n	d532c <_ZN6AB180510detectChipEv+0x2c>
                _log.info("FOUT did not go HIGH");
   d5322:	4631      	mov	r1, r6
   d5324:	4628      	mov	r0, r5
   d5326:	f7fe ff1d 	bl	d4164 <_ZNK5spark6Logger4infoEPKcz>
   d532a:	e7f0      	b.n	d530e <_ZN6AB180510detectChipEv+0xe>
    bResult = readRegister(REG_ID0, value);
   d532c:	2301      	movs	r3, #1
   d532e:	f10d 0207 	add.w	r2, sp, #7
   d5332:	2128      	movs	r1, #40	; 0x28
   d5334:	4620      	mov	r0, r4
   d5336:	f7ff ffdb 	bl	d52f0 <_ZN6AB180512readRegisterEhRhb>
    if (bResult && value == REG_ID0_AB18XX) {
   d533a:	b930      	cbnz	r0, d534a <_ZN6AB180510detectChipEv+0x4a>
        _log.info("not detected");
   d533c:	480d      	ldr	r0, [pc, #52]	; (d5374 <_ZN6AB180510detectChipEv+0x74>)
   d533e:	490e      	ldr	r1, [pc, #56]	; (d5378 <_ZN6AB180510detectChipEv+0x78>)
   d5340:	f7fe ff10 	bl	d4164 <_ZNK5spark6Logger4infoEPKcz>
   d5344:	2000      	movs	r0, #0
}
   d5346:	b002      	add	sp, #8
   d5348:	bd70      	pop	{r4, r5, r6, pc}
    if (bResult && value == REG_ID0_AB18XX) {
   d534a:	f89d 3007 	ldrb.w	r3, [sp, #7]
   d534e:	2b18      	cmp	r3, #24
   d5350:	d1f4      	bne.n	d533c <_ZN6AB180510detectChipEv+0x3c>
        bResult = readRegister(REG_ID1, value);
   d5352:	2301      	movs	r3, #1
   d5354:	f10d 0207 	add.w	r2, sp, #7
   d5358:	2129      	movs	r1, #41	; 0x29
   d535a:	4620      	mov	r0, r4
   d535c:	f7ff ffc8 	bl	d52f0 <_ZN6AB180512readRegisterEhRhb>
        if (bResult && value == REG_ID1_ABXX05) {
   d5360:	2800      	cmp	r0, #0
   d5362:	d0eb      	beq.n	d533c <_ZN6AB180510detectChipEv+0x3c>
   d5364:	f89d 3007 	ldrb.w	r3, [sp, #7]
   d5368:	2b05      	cmp	r3, #5
   d536a:	d1e7      	bne.n	d533c <_ZN6AB180510detectChipEv+0x3c>
   d536c:	e7eb      	b.n	d5346 <_ZN6AB180510detectChipEv+0x46>
   d536e:	bf00      	nop
   d5370:	000dd29d 	.word	0x000dd29d
   d5374:	2003e2f0 	.word	0x2003e2f0
   d5378:	000dd2b2 	.word	0x000dd2b2

000d537c <_ZN6AB180514writeRegistersEhPKhjb>:
bool AB1805::writeRegister(uint8_t regAddr, uint8_t value, bool lock) {
    return writeRegisters(regAddr, &value, 1, lock);
}


bool AB1805::writeRegisters(uint8_t regAddr, const uint8_t *array, size_t num, bool lock) {
   d537c:	e92d 41f0 	stmdb	sp!, {r4, r5, r6, r7, r8, lr}
   d5380:	f89d 8018 	ldrb.w	r8, [sp, #24]
   d5384:	4604      	mov	r4, r0
   d5386:	460f      	mov	r7, r1
   d5388:	4615      	mov	r5, r2
   d538a:	461e      	mov	r6, r3
    bool bResult = false;

    if (lock) {
   d538c:	f1b8 0f00 	cmp.w	r8, #0
   d5390:	d002      	beq.n	d5398 <_ZN6AB180514writeRegistersEhPKhjb+0x1c>
        wire.lock();
   d5392:	6840      	ldr	r0, [r0, #4]
   d5394:	f004 fb7a 	bl	d9a8c <_ZN7TwoWire4lockEv>
    }

    wire.beginTransmission(i2cAddr);
   d5398:	7a21      	ldrb	r1, [r4, #8]
   d539a:	6860      	ldr	r0, [r4, #4]
   d539c:	f004 fb53 	bl	d9a46 <_ZN7TwoWire17beginTransmissionEh>
    wire.write(regAddr);
   d53a0:	6860      	ldr	r0, [r4, #4]
   d53a2:	6803      	ldr	r3, [r0, #0]
   d53a4:	4639      	mov	r1, r7
   d53a6:	689b      	ldr	r3, [r3, #8]
   d53a8:	4798      	blx	r3
    for(size_t ii = 0; ii < num; ii++) {
   d53aa:	442e      	add	r6, r5
   d53ac:	42b5      	cmp	r5, r6
   d53ae:	6860      	ldr	r0, [r4, #4]
   d53b0:	d005      	beq.n	d53be <_ZN6AB180514writeRegistersEhPKhjb+0x42>
        wire.write(array[ii]);
   d53b2:	6803      	ldr	r3, [r0, #0]
   d53b4:	f815 1b01 	ldrb.w	r1, [r5], #1
   d53b8:	689b      	ldr	r3, [r3, #8]
   d53ba:	4798      	blx	r3
    for(size_t ii = 0; ii < num; ii++) {
   d53bc:	e7f6      	b.n	d53ac <_ZN6AB180514writeRegistersEhPKhjb+0x30>
    }
    int stat = wire.endTransmission(true);
   d53be:	2101      	movs	r1, #1
   d53c0:	f004 fb60 	bl	d9a84 <_ZN7TwoWire15endTransmissionEh>
    if (stat == 0) {
   d53c4:	4603      	mov	r3, r0
   d53c6:	b170      	cbz	r0, d53e6 <_ZN6AB180514writeRegistersEhPKhjb+0x6a>
        // _log.dump(array, num);
        // _log.print("\n");
        bResult = true;
    }
    else {
        _log.error("failed to write regAddr=%02x stat=%d", regAddr, stat);
   d53c8:	4908      	ldr	r1, [pc, #32]	; (d53ec <_ZN6AB180514writeRegistersEhPKhjb+0x70>)
   d53ca:	4809      	ldr	r0, [pc, #36]	; (d53f0 <_ZN6AB180514writeRegistersEhPKhjb+0x74>)
   d53cc:	463a      	mov	r2, r7
   d53ce:	f7ff ff16 	bl	d51fe <_ZNK5spark6Logger5errorEPKcz>
    bool bResult = false;
   d53d2:	2500      	movs	r5, #0
    }

    if (lock) {
   d53d4:	f1b8 0f00 	cmp.w	r8, #0
   d53d8:	d002      	beq.n	d53e0 <_ZN6AB180514writeRegistersEhPKhjb+0x64>
        wire.unlock();
   d53da:	6860      	ldr	r0, [r4, #4]
   d53dc:	f004 fb5f 	bl	d9a9e <_ZN7TwoWire6unlockEv>
    }
    return bResult;
}
   d53e0:	4628      	mov	r0, r5
   d53e2:	e8bd 81f0 	ldmia.w	sp!, {r4, r5, r6, r7, r8, pc}
        bResult = true;
   d53e6:	2501      	movs	r5, #1
   d53e8:	e7f4      	b.n	d53d4 <_ZN6AB180514writeRegistersEhPKhjb+0x58>
   d53ea:	bf00      	nop
   d53ec:	000dd2bf 	.word	0x000dd2bf
   d53f0:	2003e2f0 	.word	0x2003e2f0

000d53f4 <_ZN6AB180513writeRegisterEhhb>:
bool AB1805::writeRegister(uint8_t regAddr, uint8_t value, bool lock) {
   d53f4:	b51f      	push	{r0, r1, r2, r3, r4, lr}
   d53f6:	f88d 200f 	strb.w	r2, [sp, #15]
    return writeRegisters(regAddr, &value, 1, lock);
   d53fa:	9300      	str	r3, [sp, #0]
   d53fc:	f10d 020f 	add.w	r2, sp, #15
   d5400:	2301      	movs	r3, #1
   d5402:	f7ff ffbb 	bl	d537c <_ZN6AB180514writeRegistersEhPKhjb>
}
   d5406:	b005      	add	sp, #20
   d5408:	f85d fb04 	ldr.w	pc, [sp], #4

000d540c <_ZN6AB18056setWDTEi>:
bool AB1805::setWDT(int seconds) {
   d540c:	b5f8      	push	{r3, r4, r5, r6, r7, lr}
    _log.info("setWDT %d", seconds);
   d540e:	460a      	mov	r2, r1
bool AB1805::setWDT(int seconds) {
   d5410:	460c      	mov	r4, r1
   d5412:	4605      	mov	r5, r0
    _log.info("setWDT %d", seconds);
   d5414:	491a      	ldr	r1, [pc, #104]	; (d5480 <_ZN6AB18056setWDTEi+0x74>)
   d5416:	481b      	ldr	r0, [pc, #108]	; (d5484 <_ZN6AB18056setWDTEi+0x78>)
   d5418:	f7fe fea4 	bl	d4164 <_ZNK5spark6Logger4infoEPKcz>
    if (seconds < 0) {
   d541c:	2c00      	cmp	r4, #0
        seconds = watchdogSecs;
   d541e:	bfb8      	it	lt
   d5420:	68ec      	ldrlt	r4, [r5, #12]
    if (seconds == 0) {
   d5422:	b97c      	cbnz	r4, d5444 <_ZN6AB18056setWDTEi+0x38>
        bResult = writeRegister(REG_WDT, 0x00);
   d5424:	2301      	movs	r3, #1
   d5426:	4622      	mov	r2, r4
   d5428:	211b      	movs	r1, #27
   d542a:	4628      	mov	r0, r5
   d542c:	f7ff ffe2 	bl	d53f4 <_ZN6AB180513writeRegisterEhhb>
        _log.trace("watchdog cleared bResult=%d", bResult);
   d5430:	4915      	ldr	r1, [pc, #84]	; (d5488 <_ZN6AB18056setWDTEi+0x7c>)
   d5432:	4602      	mov	r2, r0
        bResult = writeRegister(REG_WDT, 0x00);
   d5434:	4606      	mov	r6, r0
        _log.trace("watchdog cleared bResult=%d", bResult);
   d5436:	4813      	ldr	r0, [pc, #76]	; (d5484 <_ZN6AB18056setWDTEi+0x78>)
   d5438:	f7ff feca 	bl	d51d0 <_ZNK5spark6Logger5traceEPKcz>
        watchdogSecs = 0;
   d543c:	60ec      	str	r4, [r5, #12]
        watchdogUpdatePeriod = 0;
   d543e:	616c      	str	r4, [r5, #20]
}
   d5440:	4630      	mov	r0, r6
   d5442:	bdf8      	pop	{r3, r4, r5, r6, r7, pc}
        if (fourSecs < 1) {
   d5444:	2c03      	cmp	r4, #3
   d5446:	dd19      	ble.n	d547c <_ZN6AB18056setWDTEi+0x70>
        int fourSecs = seconds / 4;
   d5448:	10a7      	asrs	r7, r4, #2
   d544a:	2f1f      	cmp	r7, #31
   d544c:	bfa8      	it	ge
   d544e:	271f      	movge	r7, #31
        bResult = writeRegister(REG_WDT, REG_WDT_RESET | (fourSecs << 2) | REG_WDT_WRB_1_4_HZ);
   d5450:	00ba      	lsls	r2, r7, #2
   d5452:	f062 027c 	orn	r2, r2, #124	; 0x7c
   d5456:	2301      	movs	r3, #1
   d5458:	b2d2      	uxtb	r2, r2
   d545a:	211b      	movs	r1, #27
   d545c:	4628      	mov	r0, r5
   d545e:	f7ff ffc9 	bl	d53f4 <_ZN6AB180513writeRegisterEhhb>
        _log.trace("watchdog set fourSecs=%d bResult=%d", fourSecs, bResult);
   d5462:	463a      	mov	r2, r7
   d5464:	4603      	mov	r3, r0
   d5466:	4909      	ldr	r1, [pc, #36]	; (d548c <_ZN6AB18056setWDTEi+0x80>)
        bResult = writeRegister(REG_WDT, REG_WDT_RESET | (fourSecs << 2) | REG_WDT_WRB_1_4_HZ);
   d5468:	4606      	mov	r6, r0
        _log.trace("watchdog set fourSecs=%d bResult=%d", fourSecs, bResult);
   d546a:	4806      	ldr	r0, [pc, #24]	; (d5484 <_ZN6AB18056setWDTEi+0x78>)
   d546c:	f7ff feb0 	bl	d51d0 <_ZNK5spark6Logger5traceEPKcz>
        watchdogUpdatePeriod = (fourSecs * 2000);
   d5470:	f44f 63fa 	mov.w	r3, #2000	; 0x7d0
   d5474:	435f      	muls	r7, r3
        watchdogSecs = seconds;
   d5476:	60ec      	str	r4, [r5, #12]
        watchdogUpdatePeriod = (fourSecs * 2000);
   d5478:	616f      	str	r7, [r5, #20]
   d547a:	e7e1      	b.n	d5440 <_ZN6AB18056setWDTEi+0x34>
            fourSecs = 1;
   d547c:	2701      	movs	r7, #1
   d547e:	e7e7      	b.n	d5450 <_ZN6AB18056setWDTEi+0x44>
   d5480:	000dd2e4 	.word	0x000dd2e4
   d5484:	2003e2f0 	.word	0x2003e2f0
   d5488:	000dd2ee 	.word	0x000dd2ee
   d548c:	000dd30a 	.word	0x000dd30a

000d5490 <_ZN6AB180517systemEventStaticEyi>:
        }
    }
}

// [static] 
void AB1805::systemEventStatic(system_event_t event, int param) {
   d5490:	460b      	mov	r3, r1
    if (instance) {
   d5492:	4907      	ldr	r1, [pc, #28]	; (d54b0 <_ZN6AB180517systemEventStaticEyi+0x20>)
void AB1805::systemEventStatic(system_event_t event, int param) {
   d5494:	4602      	mov	r2, r0
    if (instance) {
   d5496:	6808      	ldr	r0, [r1, #0]
   d5498:	b148      	cbz	r0, d54ae <_ZN6AB180517systemEventStaticEyi+0x1e>
    if (event == reset) {
   d549a:	2b00      	cmp	r3, #0
   d549c:	bf08      	it	eq
   d549e:	f5b2 6f00 	cmpeq.w	r2, #2048	; 0x800
   d54a2:	d104      	bne.n	d54ae <_ZN6AB180517systemEventStaticEyi+0x1e>
        if (watchdogSecs != 0) {
   d54a4:	68c3      	ldr	r3, [r0, #12]
   d54a6:	b113      	cbz	r3, d54ae <_ZN6AB180517systemEventStaticEyi+0x1e>
            setWDT(0);
   d54a8:	2100      	movs	r1, #0
   d54aa:	f7ff bfaf 	b.w	d540c <_ZN6AB18056setWDTEi>
        instance->systemEvent(event, param);
    }
}
   d54ae:	4770      	bx	lr
   d54b0:	2003e2f4 	.word	0x2003e2f4

000d54b4 <_ZN6AB180512maskRegisterEhhhb>:
bool AB1805::maskRegister(uint8_t regAddr, uint8_t andValue, uint8_t orValue, bool lock) {
   d54b4:	e92d 41ff 	stmdb	sp!, {r0, r1, r2, r3, r4, r5, r6, r7, r8, lr}
   d54b8:	f89d 8028 	ldrb.w	r8, [sp, #40]	; 0x28
   d54bc:	4605      	mov	r5, r0
   d54be:	4616      	mov	r6, r2
   d54c0:	461f      	mov	r7, r3
    if (lock) {
   d54c2:	f1b8 0f00 	cmp.w	r8, #0
   d54c6:	d004      	beq.n	d54d2 <_ZN6AB180512maskRegisterEhhhb+0x1e>
        wire.lock();
   d54c8:	6840      	ldr	r0, [r0, #4]
   d54ca:	9101      	str	r1, [sp, #4]
   d54cc:	f004 fade 	bl	d9a8c <_ZN7TwoWire4lockEv>
   d54d0:	9901      	ldr	r1, [sp, #4]
    bResult = readRegister(regAddr, value, false);
   d54d2:	9101      	str	r1, [sp, #4]
   d54d4:	2300      	movs	r3, #0
   d54d6:	f10d 020f 	add.w	r2, sp, #15
   d54da:	4628      	mov	r0, r5
   d54dc:	f7ff ff08 	bl	d52f0 <_ZN6AB180512readRegisterEhRhb>
    if (bResult) {
   d54e0:	4604      	mov	r4, r0
   d54e2:	b160      	cbz	r0, d54fe <_ZN6AB180512maskRegisterEhhhb+0x4a>
        uint8_t newValue = (value & andValue) | orValue;
   d54e4:	f89d 300f 	ldrb.w	r3, [sp, #15]
   d54e8:	ea03 0206 	and.w	r2, r3, r6
   d54ec:	433a      	orrs	r2, r7
        if (newValue != value) {
   d54ee:	4293      	cmp	r3, r2
   d54f0:	d005      	beq.n	d54fe <_ZN6AB180512maskRegisterEhhhb+0x4a>
            bResult = writeRegister(regAddr, newValue, false);
   d54f2:	9901      	ldr	r1, [sp, #4]
   d54f4:	2300      	movs	r3, #0
   d54f6:	4628      	mov	r0, r5
   d54f8:	f7ff ff7c 	bl	d53f4 <_ZN6AB180513writeRegisterEhhb>
   d54fc:	4604      	mov	r4, r0
    if (lock) {
   d54fe:	f1b8 0f00 	cmp.w	r8, #0
   d5502:	d002      	beq.n	d550a <_ZN6AB180512maskRegisterEhhhb+0x56>
        wire.unlock();
   d5504:	6868      	ldr	r0, [r5, #4]
   d5506:	f004 faca 	bl	d9a9e <_ZN7TwoWire6unlockEv>
}
   d550a:	4620      	mov	r0, r4
   d550c:	b004      	add	sp, #16
   d550e:	e8bd 81f0 	ldmia.w	sp!, {r4, r5, r6, r7, r8, pc}
	...

000d5514 <_ZN6AB180511resetConfigEm>:
bool AB1805::resetConfig(uint32_t flags) {
   d5514:	b537      	push	{r0, r1, r2, r4, r5, lr}
   d5516:	4604      	mov	r4, r0
    _log.trace("resetConfig(0x%08lx)", flags);
   d5518:	460a      	mov	r2, r1
   d551a:	483f      	ldr	r0, [pc, #252]	; (d5618 <_ZN6AB180511resetConfigEm+0x104>)
bool AB1805::resetConfig(uint32_t flags) {
   d551c:	460d      	mov	r5, r1
    _log.trace("resetConfig(0x%08lx)", flags);
   d551e:	493f      	ldr	r1, [pc, #252]	; (d561c <_ZN6AB180511resetConfigEm+0x108>)
   d5520:	f7ff fe56 	bl	d51d0 <_ZNK5spark6Logger5traceEPKcz>
    wire.lock();
   d5524:	6860      	ldr	r0, [r4, #4]
   d5526:	f004 fab1 	bl	d9a8c <_ZN7TwoWire4lockEv>
    writeRegister(REG_STATUS, REG_STATUS_DEFAULT, false);
   d552a:	2300      	movs	r3, #0
   d552c:	461a      	mov	r2, r3
   d552e:	210f      	movs	r1, #15
   d5530:	4620      	mov	r0, r4
   d5532:	f7ff ff5f 	bl	d53f4 <_ZN6AB180513writeRegisterEhhb>
    writeRegister(REG_CTRL_1, REG_CTRL_1_DEFAULT, false);
   d5536:	2300      	movs	r3, #0
   d5538:	2213      	movs	r2, #19
   d553a:	2110      	movs	r1, #16
   d553c:	4620      	mov	r0, r4
   d553e:	f7ff ff59 	bl	d53f4 <_ZN6AB180513writeRegisterEhhb>
    writeRegister(REG_CTRL_2, REG_CTRL_2_DEFAULT, false);
   d5542:	2300      	movs	r3, #0
   d5544:	223c      	movs	r2, #60	; 0x3c
   d5546:	2111      	movs	r1, #17
   d5548:	4620      	mov	r0, r4
   d554a:	f7ff ff53 	bl	d53f4 <_ZN6AB180513writeRegisterEhhb>
    writeRegister(REG_INT_MASK, REG_INT_MASK_DEFAULT, false);
   d554e:	2300      	movs	r3, #0
   d5550:	22e0      	movs	r2, #224	; 0xe0
   d5552:	2112      	movs	r1, #18
   d5554:	4620      	mov	r0, r4
   d5556:	f7ff ff4d 	bl	d53f4 <_ZN6AB180513writeRegisterEhhb>
    writeRegister(REG_SQW, REG_SQW_DEFAULT, false);
   d555a:	2300      	movs	r3, #0
   d555c:	2226      	movs	r2, #38	; 0x26
   d555e:	2113      	movs	r1, #19
   d5560:	4620      	mov	r0, r4
   d5562:	f7ff ff47 	bl	d53f4 <_ZN6AB180513writeRegisterEhhb>
    writeRegister(REG_SLEEP_CTRL, REG_SLEEP_CTRL_DEFAULT, false);
   d5566:	2300      	movs	r3, #0
   d5568:	461a      	mov	r2, r3
   d556a:	2117      	movs	r1, #23
   d556c:	4620      	mov	r0, r4
   d556e:	f7ff ff41 	bl	d53f4 <_ZN6AB180513writeRegisterEhhb>
    if ((flags & RESET_PRESERVE_REPEATING_TIMER) != 0) {
   d5572:	f015 0301 	ands.w	r3, r5, #1
   d5576:	d048      	beq.n	d560a <_ZN6AB180511resetConfigEm+0xf6>
        maskRegister(REG_TIMER_CTRL, ~REG_TIMER_CTRL_RPT_MASK, REG_TIMER_CTRL_DEFAULT & ~REG_TIMER_CTRL_RPT_MASK, false);
   d5578:	2300      	movs	r3, #0
   d557a:	9300      	str	r3, [sp, #0]
   d557c:	22e3      	movs	r2, #227	; 0xe3
   d557e:	2323      	movs	r3, #35	; 0x23
   d5580:	2118      	movs	r1, #24
   d5582:	4620      	mov	r0, r4
   d5584:	f7ff ff96 	bl	d54b4 <_ZN6AB180512maskRegisterEhhhb>
    writeRegister(REG_TIMER, REG_TIMER_DEFAULT, false);
   d5588:	2300      	movs	r3, #0
   d558a:	461a      	mov	r2, r3
   d558c:	2119      	movs	r1, #25
   d558e:	4620      	mov	r0, r4
   d5590:	f7ff ff30 	bl	d53f4 <_ZN6AB180513writeRegisterEhhb>
    writeRegister(REG_TIMER_INITIAL, REG_TIMER_INITIAL_DEFAULT, false);
   d5594:	2300      	movs	r3, #0
   d5596:	461a      	mov	r2, r3
   d5598:	211a      	movs	r1, #26
   d559a:	4620      	mov	r0, r4
   d559c:	f7ff ff2a 	bl	d53f4 <_ZN6AB180513writeRegisterEhhb>
    writeRegister(REG_WDT, REG_WDT_DEFAULT, false);
   d55a0:	2300      	movs	r3, #0
   d55a2:	461a      	mov	r2, r3
   d55a4:	211b      	movs	r1, #27
   d55a6:	4620      	mov	r0, r4
   d55a8:	f7ff ff24 	bl	d53f4 <_ZN6AB180513writeRegisterEhhb>
        oscCtrl |= REG_OSC_CTRL_OSEL | REG_OSC_CTRL_FOS;
   d55ac:	f015 0f02 	tst.w	r5, #2
    writeRegister(REG_OSC_CTRL, oscCtrl, false);
   d55b0:	f04f 0300 	mov.w	r3, #0
   d55b4:	bf0c      	ite	eq
   d55b6:	461a      	moveq	r2, r3
   d55b8:	2288      	movne	r2, #136	; 0x88
   d55ba:	211c      	movs	r1, #28
   d55bc:	4620      	mov	r0, r4
   d55be:	f7ff ff19 	bl	d53f4 <_ZN6AB180513writeRegisterEhhb>
    writeRegister(REG_TRICKLE, REG_TRICKLE_DEFAULT, false);
   d55c2:	2300      	movs	r3, #0
   d55c4:	461a      	mov	r2, r3
   d55c6:	2120      	movs	r1, #32
   d55c8:	4620      	mov	r0, r4
   d55ca:	f7ff ff13 	bl	d53f4 <_ZN6AB180513writeRegisterEhhb>
    writeRegister(REG_BREF_CTRL, REG_BREF_CTRL_DEFAULT, false);
   d55ce:	2300      	movs	r3, #0
   d55d0:	22f0      	movs	r2, #240	; 0xf0
   d55d2:	2121      	movs	r1, #33	; 0x21
   d55d4:	4620      	mov	r0, r4
   d55d6:	f7ff ff0d 	bl	d53f4 <_ZN6AB180513writeRegisterEhhb>
    writeRegister(REG_AFCTRL, REG_AFCTRL_DEFAULT, false);
   d55da:	2300      	movs	r3, #0
   d55dc:	461a      	mov	r2, r3
   d55de:	2126      	movs	r1, #38	; 0x26
   d55e0:	4620      	mov	r0, r4
   d55e2:	f7ff ff07 	bl	d53f4 <_ZN6AB180513writeRegisterEhhb>
    writeRegister(REG_BATMODE_IO, REG_BATMODE_IO_DEFAULT, false);
   d55e6:	2300      	movs	r3, #0
   d55e8:	2280      	movs	r2, #128	; 0x80
   d55ea:	2127      	movs	r1, #39	; 0x27
   d55ec:	4620      	mov	r0, r4
   d55ee:	f7ff ff01 	bl	d53f4 <_ZN6AB180513writeRegisterEhhb>
    writeRegister(REG_OCTRL, REG_OCTRL_DEFAULT, false);
   d55f2:	2300      	movs	r3, #0
   d55f4:	461a      	mov	r2, r3
   d55f6:	2130      	movs	r1, #48	; 0x30
   d55f8:	4620      	mov	r0, r4
   d55fa:	f7ff fefb 	bl	d53f4 <_ZN6AB180513writeRegisterEhhb>
    wire.unlock();
   d55fe:	6860      	ldr	r0, [r4, #4]
   d5600:	f004 fa4d 	bl	d9a9e <_ZN7TwoWire6unlockEv>
}
   d5604:	2001      	movs	r0, #1
   d5606:	b003      	add	sp, #12
   d5608:	bd30      	pop	{r4, r5, pc}
        writeRegister(REG_TIMER_CTRL, REG_TIMER_CTRL_DEFAULT, false);
   d560a:	2223      	movs	r2, #35	; 0x23
   d560c:	2118      	movs	r1, #24
   d560e:	4620      	mov	r0, r4
   d5610:	f7ff fef0 	bl	d53f4 <_ZN6AB180513writeRegisterEhhb>
   d5614:	e7b8      	b.n	d5588 <_ZN6AB180511resetConfigEm+0x74>
   d5616:	bf00      	nop
   d5618:	2003e2f0 	.word	0x2003e2f0
   d561c:	000dd32e 	.word	0x000dd32e

000d5620 <_ZN6AB180510isBitClearEhhb>:
bool AB1805::isBitClear(uint8_t regAddr, uint8_t bitMask, bool lock) {
   d5620:	b513      	push	{r0, r1, r4, lr}
   d5622:	4614      	mov	r4, r2
    bResult = readRegister(regAddr, value, lock);
   d5624:	f10d 0207 	add.w	r2, sp, #7
   d5628:	f7ff fe62 	bl	d52f0 <_ZN6AB180512readRegisterEhRhb>
    return bResult && ((value & bitMask) == 0);
   d562c:	b128      	cbz	r0, d563a <_ZN6AB180510isBitClearEhhb+0x1a>
   d562e:	f89d 3007 	ldrb.w	r3, [sp, #7]
   d5632:	421c      	tst	r4, r3
   d5634:	bf0c      	ite	eq
   d5636:	2001      	moveq	r0, #1
   d5638:	2000      	movne	r0, #0
}
   d563a:	b002      	add	sp, #8
   d563c:	bd10      	pop	{r4, pc}

000d563e <_ZN6AB18058isBitSetEhhb>:
bool AB1805::isBitSet(uint8_t regAddr, uint8_t bitMask, bool lock) {
   d563e:	b513      	push	{r0, r1, r4, lr}
   d5640:	4614      	mov	r4, r2
    bResult = readRegister(regAddr, value, lock);
   d5642:	f10d 0207 	add.w	r2, sp, #7
   d5646:	f7ff fe53 	bl	d52f0 <_ZN6AB180512readRegisterEhRhb>
    return bResult && ((value & bitMask) != 0);
   d564a:	b128      	cbz	r0, d5658 <_ZN6AB18058isBitSetEhhb+0x1a>
   d564c:	f89d 3007 	ldrb.w	r3, [sp, #7]
   d5650:	421c      	tst	r4, r3
   d5652:	bf14      	ite	ne
   d5654:	2001      	movne	r0, #1
   d5656:	2000      	moveq	r0, #0
}
   d5658:	b002      	add	sp, #8
   d565a:	bd10      	pop	{r4, pc}

000d565c <_ZN6AB180516clearRegisterBitEhhb>:
bool AB1805::clearRegisterBit(uint8_t regAddr, uint8_t bitMask, bool lock) {
   d565c:	b507      	push	{r0, r1, r2, lr}
    return maskRegister(regAddr, ~bitMask, 0x00, lock);
   d565e:	43d2      	mvns	r2, r2
   d5660:	9300      	str	r3, [sp, #0]
   d5662:	b2d2      	uxtb	r2, r2
   d5664:	2300      	movs	r3, #0
   d5666:	f7ff ff25 	bl	d54b4 <_ZN6AB180512maskRegisterEhhhb>
}
   d566a:	b003      	add	sp, #12
   d566c:	f85d fb04 	ldr.w	pc, [sp], #4

000d5670 <_ZN6AB180516updateWakeReasonEv>:
bool AB1805::updateWakeReason() {
   d5670:	b537      	push	{r0, r1, r2, r4, r5, lr}
    bool bResult = readRegister(REG_STATUS, status);
   d5672:	2301      	movs	r3, #1
   d5674:	f10d 0207 	add.w	r2, sp, #7
   d5678:	210f      	movs	r1, #15
bool AB1805::updateWakeReason() {
   d567a:	4604      	mov	r4, r0
    bool bResult = readRegister(REG_STATUS, status);
   d567c:	f7ff fe38 	bl	d52f0 <_ZN6AB180512readRegisterEhRhb>
    if (!bResult) {
   d5680:	4605      	mov	r5, r0
   d5682:	b938      	cbnz	r0, d5694 <_ZN6AB180516updateWakeReasonEv+0x24>
        _log.error(errorMsg, __LINE__);
   d5684:	491e      	ldr	r1, [pc, #120]	; (d5700 <_ZN6AB180516updateWakeReasonEv+0x90>)
   d5686:	481f      	ldr	r0, [pc, #124]	; (d5704 <_ZN6AB180516updateWakeReasonEv+0x94>)
   d5688:	22ad      	movs	r2, #173	; 0xad
   d568a:	f7ff fdb8 	bl	d51fe <_ZNK5spark6Logger5errorEPKcz>
}
   d568e:	4628      	mov	r0, r5
   d5690:	b003      	add	sp, #12
   d5692:	bd30      	pop	{r4, r5, pc}
    if ((status & REG_STATUS_WDT) != 0) {
   d5694:	f89d 3007 	ldrb.w	r3, [sp, #7]
   d5698:	f013 0f20 	tst.w	r3, #32
        wakeReason = WakeReason::WATCHDOG;
   d569c:	f04f 0301 	mov.w	r3, #1
    if ((status & REG_STATUS_WDT) != 0) {
   d56a0:	d00b      	beq.n	d56ba <_ZN6AB180516updateWakeReasonEv+0x4a>
        clearRegisterBit(REG_STATUS, REG_STATUS_WDT);
   d56a2:	2220      	movs	r2, #32
        wakeReason = WakeReason::WATCHDOG;
   d56a4:	61e3      	str	r3, [r4, #28]
        clearRegisterBit(REG_STATUS, REG_STATUS_WDT);
   d56a6:	210f      	movs	r1, #15
   d56a8:	4620      	mov	r0, r4
   d56aa:	f7ff ffd7 	bl	d565c <_ZN6AB180516clearRegisterBitEhhb>
        reason = "WATCHDOG";
   d56ae:	4a16      	ldr	r2, [pc, #88]	; (d5708 <_ZN6AB180516updateWakeReasonEv+0x98>)
        _log.info("wake reason = %s", reason);
   d56b0:	4916      	ldr	r1, [pc, #88]	; (d570c <_ZN6AB180516updateWakeReasonEv+0x9c>)
   d56b2:	4814      	ldr	r0, [pc, #80]	; (d5704 <_ZN6AB180516updateWakeReasonEv+0x94>)
   d56b4:	f7fe fd56 	bl	d4164 <_ZNK5spark6Logger4infoEPKcz>
   d56b8:	e7e9      	b.n	d568e <_ZN6AB180516updateWakeReasonEv+0x1e>
    else if (isBitSet(REG_SLEEP_CTRL, REG_SLEEP_CTRL_SLST)) {
   d56ba:	2208      	movs	r2, #8
   d56bc:	2117      	movs	r1, #23
   d56be:	4620      	mov	r0, r4
   d56c0:	f7ff ffbd 	bl	d563e <_ZN6AB18058isBitSetEhhb>
   d56c4:	b118      	cbz	r0, d56ce <_ZN6AB180516updateWakeReasonEv+0x5e>
        wakeReason = WakeReason::DEEP_POWER_DOWN;
   d56c6:	2302      	movs	r3, #2
        reason = "DEEP_POWER_DOWN";
   d56c8:	4a11      	ldr	r2, [pc, #68]	; (d5710 <_ZN6AB180516updateWakeReasonEv+0xa0>)
        wakeReason = WakeReason::DEEP_POWER_DOWN;
   d56ca:	61e3      	str	r3, [r4, #28]
   d56cc:	e7f0      	b.n	d56b0 <_ZN6AB180516updateWakeReasonEv+0x40>
    else if ((status & REG_STATUS_TIM) != 0) {
   d56ce:	f89d 3007 	ldrb.w	r3, [sp, #7]
   d56d2:	071a      	lsls	r2, r3, #28
   d56d4:	d509      	bpl.n	d56ea <_ZN6AB180516updateWakeReasonEv+0x7a>
        wakeReason = WakeReason::COUNTDOWN_TIMER;
   d56d6:	2303      	movs	r3, #3
   d56d8:	61e3      	str	r3, [r4, #28]
        clearRegisterBit(REG_STATUS, REG_STATUS_TIM);            
   d56da:	2208      	movs	r2, #8
   d56dc:	2301      	movs	r3, #1
   d56de:	210f      	movs	r1, #15
   d56e0:	4620      	mov	r0, r4
   d56e2:	f7ff ffbb 	bl	d565c <_ZN6AB180516clearRegisterBitEhhb>
        reason = "COUNTDOWN_TIMER";
   d56e6:	4a0b      	ldr	r2, [pc, #44]	; (d5714 <_ZN6AB180516updateWakeReasonEv+0xa4>)
   d56e8:	e7e2      	b.n	d56b0 <_ZN6AB180516updateWakeReasonEv+0x40>
    else if ((status & REG_STATUS_ALM) != 0) {
   d56ea:	075b      	lsls	r3, r3, #29
   d56ec:	d5cf      	bpl.n	d568e <_ZN6AB180516updateWakeReasonEv+0x1e>
        wakeReason = WakeReason::ALARM;
   d56ee:	2204      	movs	r2, #4
   d56f0:	61e2      	str	r2, [r4, #28]
        clearRegisterBit(REG_STATUS, REG_STATUS_ALM);            
   d56f2:	2301      	movs	r3, #1
   d56f4:	210f      	movs	r1, #15
   d56f6:	4620      	mov	r0, r4
   d56f8:	f7ff ffb0 	bl	d565c <_ZN6AB180516clearRegisterBitEhhb>
        reason = "ALARM";
   d56fc:	4a06      	ldr	r2, [pc, #24]	; (d5718 <_ZN6AB180516updateWakeReasonEv+0xa8>)
   d56fe:	e7d7      	b.n	d56b0 <_ZN6AB180516updateWakeReasonEv+0x40>
   d5700:	000dd372 	.word	0x000dd372
   d5704:	2003e2f0 	.word	0x2003e2f0
   d5708:	000dd343 	.word	0x000dd343
   d570c:	000dd391 	.word	0x000dd391
   d5710:	000dd34c 	.word	0x000dd34c
   d5714:	000dd35c 	.word	0x000dd35c
   d5718:	000dd36c 	.word	0x000dd36c

000d571c <_ZN6AB180514setRegisterBitEhhb>:
bool AB1805::setRegisterBit(uint8_t regAddr, uint8_t bitMask, bool lock) {
   d571c:	b507      	push	{r0, r1, r2, lr}
    return maskRegister(regAddr, 0xff, bitMask, lock);
   d571e:	9300      	str	r3, [sp, #0]
   d5720:	4613      	mov	r3, r2
   d5722:	22ff      	movs	r2, #255	; 0xff
   d5724:	f7ff fec6 	bl	d54b4 <_ZN6AB180512maskRegisterEhhhb>
}
   d5728:	b003      	add	sp, #12
   d572a:	f85d fb04 	ldr.w	pc, [sp], #4

000d572e <_ZN6AB18057readRamEjPhjb>:
bool AB1805::readRam(size_t ramAddr, uint8_t *data, size_t dataLen, bool lock) {
   d572e:	e92d 47f3 	stmdb	sp!, {r0, r1, r4, r5, r6, r7, r8, r9, sl, lr}
   d5732:	f89d a028 	ldrb.w	sl, [sp, #40]	; 0x28
   d5736:	4605      	mov	r5, r0
   d5738:	460c      	mov	r4, r1
   d573a:	4691      	mov	r9, r2
   d573c:	461f      	mov	r7, r3
    if (lock) {
   d573e:	f1ba 0f00 	cmp.w	sl, #0
   d5742:	d002      	beq.n	d574a <_ZN6AB18057readRamEjPhjb+0x1c>
        wire.lock();
   d5744:	6840      	ldr	r0, [r0, #4]
   d5746:	f004 f9a1 	bl	d9a8c <_ZN7TwoWire4lockEv>
    while(dataLen > 0) {
   d574a:	b307      	cbz	r7, d578e <_ZN6AB18057readRamEjPhjb+0x60>
        if (count > 32) {
   d574c:	2f20      	cmp	r7, #32
   d574e:	463e      	mov	r6, r7
   d5750:	bf28      	it	cs
   d5752:	2620      	movcs	r6, #32
        if ((ramAddr < 128) && ((ramAddr + count) > 128)) {
   d5754:	2c7f      	cmp	r4, #127	; 0x7f
   d5756:	d826      	bhi.n	d57a6 <_ZN6AB18057readRamEjPhjb+0x78>
   d5758:	1933      	adds	r3, r6, r4
   d575a:	2b80      	cmp	r3, #128	; 0x80
   d575c:	d901      	bls.n	d5762 <_ZN6AB18057readRamEjPhjb+0x34>
            count = 128 - ramAddr;
   d575e:	f1c4 0680 	rsb	r6, r4, #128	; 0x80
            clearRegisterBit(REG_EXT_ADDR, REG_EXT_ADDR_XADA);
   d5762:	2301      	movs	r3, #1
   d5764:	2204      	movs	r2, #4
   d5766:	213f      	movs	r1, #63	; 0x3f
   d5768:	4628      	mov	r0, r5
   d576a:	f7ff ff77 	bl	d565c <_ZN6AB180516clearRegisterBitEhhb>
        bResult = readRegisters(REG_ALT_RAM + (ramAddr & 0x7f), data, count, false);
   d576e:	2300      	movs	r3, #0
   d5770:	f064 017f 	orn	r1, r4, #127	; 0x7f
   d5774:	9300      	str	r3, [sp, #0]
   d5776:	464a      	mov	r2, r9
   d5778:	4633      	mov	r3, r6
   d577a:	b2c9      	uxtb	r1, r1
   d577c:	4628      	mov	r0, r5
   d577e:	f7ff fd69 	bl	d5254 <_ZN6AB180513readRegistersEhPhjb>
        if (!bResult) {
   d5782:	4680      	mov	r8, r0
   d5784:	b128      	cbz	r0, d5792 <_ZN6AB18057readRamEjPhjb+0x64>
        ramAddr += count;
   d5786:	4434      	add	r4, r6
        dataLen -= count;
   d5788:	1bbf      	subs	r7, r7, r6
        data += count;
   d578a:	44b1      	add	r9, r6
    while(dataLen > 0) {
   d578c:	e7dd      	b.n	d574a <_ZN6AB18057readRamEjPhjb+0x1c>
   d578e:	f04f 0801 	mov.w	r8, #1
    if (lock) {
   d5792:	f1ba 0f00 	cmp.w	sl, #0
   d5796:	d002      	beq.n	d579e <_ZN6AB18057readRamEjPhjb+0x70>
        wire.unlock();
   d5798:	6868      	ldr	r0, [r5, #4]
   d579a:	f004 f980 	bl	d9a9e <_ZN7TwoWire6unlockEv>
}
   d579e:	4640      	mov	r0, r8
   d57a0:	b002      	add	sp, #8
   d57a2:	e8bd 87f0 	ldmia.w	sp!, {r4, r5, r6, r7, r8, r9, sl, pc}
            setRegisterBit(REG_EXT_ADDR, REG_EXT_ADDR_XADA);
   d57a6:	2301      	movs	r3, #1
   d57a8:	2204      	movs	r2, #4
   d57aa:	213f      	movs	r1, #63	; 0x3f
   d57ac:	4628      	mov	r0, r5
   d57ae:	f7ff ffb5 	bl	d571c <_ZN6AB180514setRegisterBitEhhb>
   d57b2:	e7dc      	b.n	d576e <_ZN6AB18057readRamEjPhjb+0x40>

000d57b4 <_ZN6AB18058writeRamEjPKhjb>:
bool AB1805::writeRam(size_t ramAddr, const uint8_t *data, size_t dataLen, bool lock) {
   d57b4:	e92d 47f3 	stmdb	sp!, {r0, r1, r4, r5, r6, r7, r8, r9, sl, lr}
   d57b8:	f89d a028 	ldrb.w	sl, [sp, #40]	; 0x28
   d57bc:	4605      	mov	r5, r0
   d57be:	460c      	mov	r4, r1
   d57c0:	4691      	mov	r9, r2
   d57c2:	461f      	mov	r7, r3
    if (lock) {
   d57c4:	f1ba 0f00 	cmp.w	sl, #0
   d57c8:	d002      	beq.n	d57d0 <_ZN6AB18058writeRamEjPKhjb+0x1c>
        wire.lock();
   d57ca:	6840      	ldr	r0, [r0, #4]
   d57cc:	f004 f95e 	bl	d9a8c <_ZN7TwoWire4lockEv>
    while(dataLen > 0) {
   d57d0:	b307      	cbz	r7, d5814 <_ZN6AB18058writeRamEjPKhjb+0x60>
        if (count > 31) {
   d57d2:	2f1f      	cmp	r7, #31
   d57d4:	463e      	mov	r6, r7
   d57d6:	bf28      	it	cs
   d57d8:	261f      	movcs	r6, #31
        if ((ramAddr < 128) && ((ramAddr + count) > 128)) {
   d57da:	2c7f      	cmp	r4, #127	; 0x7f
   d57dc:	d826      	bhi.n	d582c <_ZN6AB18058writeRamEjPKhjb+0x78>
   d57de:	1933      	adds	r3, r6, r4
   d57e0:	2b80      	cmp	r3, #128	; 0x80
   d57e2:	d901      	bls.n	d57e8 <_ZN6AB18058writeRamEjPKhjb+0x34>
            count = 128 - ramAddr;
   d57e4:	f1c4 0680 	rsb	r6, r4, #128	; 0x80
            clearRegisterBit(REG_EXT_ADDR, REG_EXT_ADDR_XADA);
   d57e8:	2301      	movs	r3, #1
   d57ea:	2204      	movs	r2, #4
   d57ec:	213f      	movs	r1, #63	; 0x3f
   d57ee:	4628      	mov	r0, r5
   d57f0:	f7ff ff34 	bl	d565c <_ZN6AB180516clearRegisterBitEhhb>
        bResult = writeRegisters(REG_ALT_RAM + (ramAddr & 0x7f), data, count, false);
   d57f4:	2300      	movs	r3, #0
   d57f6:	f064 017f 	orn	r1, r4, #127	; 0x7f
   d57fa:	9300      	str	r3, [sp, #0]
   d57fc:	464a      	mov	r2, r9
   d57fe:	4633      	mov	r3, r6
   d5800:	b2c9      	uxtb	r1, r1
   d5802:	4628      	mov	r0, r5
   d5804:	f7ff fdba 	bl	d537c <_ZN6AB180514writeRegistersEhPKhjb>
        if (!bResult) {
   d5808:	4680      	mov	r8, r0
   d580a:	b128      	cbz	r0, d5818 <_ZN6AB18058writeRamEjPKhjb+0x64>
        ramAddr += count;
   d580c:	4434      	add	r4, r6
        dataLen -= count;
   d580e:	1bbf      	subs	r7, r7, r6
        data += count;
   d5810:	44b1      	add	r9, r6
    while(dataLen > 0) {
   d5812:	e7dd      	b.n	d57d0 <_ZN6AB18058writeRamEjPKhjb+0x1c>
   d5814:	f04f 0801 	mov.w	r8, #1
    if (lock) {
   d5818:	f1ba 0f00 	cmp.w	sl, #0
   d581c:	d002      	beq.n	d5824 <_ZN6AB18058writeRamEjPKhjb+0x70>
        wire.unlock();
   d581e:	6868      	ldr	r0, [r5, #4]
   d5820:	f004 f93d 	bl	d9a9e <_ZN7TwoWire6unlockEv>
}
   d5824:	4640      	mov	r0, r8
   d5826:	b002      	add	sp, #8
   d5828:	e8bd 87f0 	ldmia.w	sp!, {r4, r5, r6, r7, r8, r9, sl, pc}
            setRegisterBit(REG_EXT_ADDR, REG_EXT_ADDR_XADA);
   d582c:	2301      	movs	r3, #1
   d582e:	2204      	movs	r2, #4
   d5830:	213f      	movs	r1, #63	; 0x3f
   d5832:	4628      	mov	r0, r5
   d5834:	f7ff ff72 	bl	d571c <_ZN6AB180514setRegisterBitEhhb>
   d5838:	e7dc      	b.n	d57f4 <_ZN6AB18058writeRamEjPKhjb+0x40>
	...

000d583c <_ZN6AB180510tmToStringEPK2tm>:
String AB1805::tmToString(const struct tm *timeptr) {
   d583c:	b530      	push	{r4, r5, lr}
   d583e:	b085      	sub	sp, #20
        timeptr->tm_hour, timeptr->tm_min, timeptr->tm_sec);
   d5840:	680d      	ldr	r5, [r1, #0]
   d5842:	e9d1 3204 	ldrd	r3, r2, [r1, #16]
   d5846:	9503      	str	r5, [sp, #12]
   d5848:	684d      	ldr	r5, [r1, #4]
   d584a:	9502      	str	r5, [sp, #8]
   d584c:	688d      	ldr	r5, [r1, #8]
   d584e:	9501      	str	r5, [sp, #4]
   d5850:	68c9      	ldr	r1, [r1, #12]
   d5852:	9100      	str	r1, [sp, #0]
   d5854:	3301      	adds	r3, #1
   d5856:	4904      	ldr	r1, [pc, #16]	; (d5868 <_ZN6AB180510tmToStringEPK2tm+0x2c>)
   d5858:	f202 726c 	addw	r2, r2, #1900	; 0x76c
String AB1805::tmToString(const struct tm *timeptr) {
   d585c:	4604      	mov	r4, r0
        timeptr->tm_hour, timeptr->tm_min, timeptr->tm_sec);
   d585e:	f005 feaf 	bl	db5c0 <_ZN6String6formatEPKcz>
}
   d5862:	4620      	mov	r0, r4
   d5864:	b005      	add	sp, #20
   d5866:	bd30      	pop	{r4, r5, pc}
   d5868:	000dd3a2 	.word	0x000dd3a2

000d586c <_ZN6AB180510bcdToValueEh>:
    return (bcd >> 4) * 10 + (bcd & 0x0f);
   d586c:	1103      	asrs	r3, r0, #4
}
   d586e:	220a      	movs	r2, #10
    return (bcd >> 4) * 10 + (bcd & 0x0f);
   d5870:	f000 000f 	and.w	r0, r0, #15
}
   d5874:	fb02 0003 	mla	r0, r2, r3, r0
   d5878:	4770      	bx	lr

000d587a <_ZN6AB180513registersToTmEPKhP2tmb>:
void AB1805::registersToTm(const uint8_t *array, struct tm *timeptr, bool includeYear) {
   d587a:	b538      	push	{r3, r4, r5, lr}
   d587c:	4604      	mov	r4, r0
    timeptr->tm_sec = bcdToValue(*p++);
   d587e:	7800      	ldrb	r0, [r0, #0]
void AB1805::registersToTm(const uint8_t *array, struct tm *timeptr, bool includeYear) {
   d5880:	4615      	mov	r5, r2
    timeptr->tm_sec = bcdToValue(*p++);
   d5882:	f7ff fff3 	bl	d586c <_ZN6AB180510bcdToValueEh>
   d5886:	6008      	str	r0, [r1, #0]
    timeptr->tm_min = bcdToValue(*p++);
   d5888:	7860      	ldrb	r0, [r4, #1]
   d588a:	f7ff ffef 	bl	d586c <_ZN6AB180510bcdToValueEh>
   d588e:	6048      	str	r0, [r1, #4]
    timeptr->tm_hour = bcdToValue(*p++);
   d5890:	78a0      	ldrb	r0, [r4, #2]
   d5892:	f7ff ffeb 	bl	d586c <_ZN6AB180510bcdToValueEh>
   d5896:	6088      	str	r0, [r1, #8]
    timeptr->tm_mday = bcdToValue(*p++);
   d5898:	78e0      	ldrb	r0, [r4, #3]
   d589a:	f7ff ffe7 	bl	d586c <_ZN6AB180510bcdToValueEh>
   d589e:	60c8      	str	r0, [r1, #12]
    timeptr->tm_mon = bcdToValue(*p++) - 1; // struct tm is 0-11, not 1-12!
   d58a0:	7920      	ldrb	r0, [r4, #4]
   d58a2:	f7ff ffe3 	bl	d586c <_ZN6AB180510bcdToValueEh>
   d58a6:	3801      	subs	r0, #1
   d58a8:	6108      	str	r0, [r1, #16]
    if (includeYear) {
   d58aa:	b92d      	cbnz	r5, d58b8 <_ZN6AB180513registersToTmEPKhP2tmb+0x3e>
    timeptr->tm_mon = bcdToValue(*p++) - 1; // struct tm is 0-11, not 1-12!
   d58ac:	1d65      	adds	r5, r4, #5
    timeptr->tm_wday = bcdToValue(*p++);
   d58ae:	7828      	ldrb	r0, [r5, #0]
   d58b0:	f7ff ffdc 	bl	d586c <_ZN6AB180510bcdToValueEh>
   d58b4:	6188      	str	r0, [r1, #24]
}
   d58b6:	bd38      	pop	{r3, r4, r5, pc}
        timeptr->tm_year = bcdToValue(*p++) + 100;
   d58b8:	7960      	ldrb	r0, [r4, #5]
   d58ba:	f7ff ffd7 	bl	d586c <_ZN6AB180510bcdToValueEh>
   d58be:	3064      	adds	r0, #100	; 0x64
   d58c0:	1da5      	adds	r5, r4, #6
   d58c2:	6148      	str	r0, [r1, #20]
   d58c4:	e7f3      	b.n	d58ae <_ZN6AB180513registersToTmEPKhP2tmb+0x34>
	...

000d58c8 <_ZN6AB180510getRtcAsTmEP2tm>:
bool AB1805::getRtcAsTm(struct tm *timeptr) {
   d58c8:	b570      	push	{r4, r5, r6, lr}
    if (isBitClear(REG_CTRL_1, REG_CTRL_1_WRTC)) {
   d58ca:	2301      	movs	r3, #1
bool AB1805::getRtcAsTm(struct tm *timeptr) {
   d58cc:	b088      	sub	sp, #32
   d58ce:	460d      	mov	r5, r1
    if (isBitClear(REG_CTRL_1, REG_CTRL_1_WRTC)) {
   d58d0:	461a      	mov	r2, r3
   d58d2:	2110      	movs	r1, #16
bool AB1805::getRtcAsTm(struct tm *timeptr) {
   d58d4:	4604      	mov	r4, r0
    if (isBitClear(REG_CTRL_1, REG_CTRL_1_WRTC)) {
   d58d6:	f7ff fea3 	bl	d5620 <_ZN6AB180510isBitClearEhhb>
   d58da:	b1f0      	cbz	r0, d591a <_ZN6AB180510getRtcAsTmEP2tm+0x52>
        bResult = readRegisters(REG_HUNDREDTH, array, sizeof(array));
   d58dc:	2308      	movs	r3, #8
   d58de:	2601      	movs	r6, #1
   d58e0:	4620      	mov	r0, r4
   d58e2:	9600      	str	r6, [sp, #0]
   d58e4:	eb0d 0203 	add.w	r2, sp, r3
   d58e8:	2100      	movs	r1, #0
   d58ea:	f7ff fcb3 	bl	d5254 <_ZN6AB180513readRegistersEhPhjb>
        if (bResult) {
   d58ee:	4604      	mov	r4, r0
   d58f0:	b198      	cbz	r0, d591a <_ZN6AB180510getRtcAsTmEP2tm+0x52>
            registersToTm(&array[1], timeptr, true);
   d58f2:	4632      	mov	r2, r6
   d58f4:	4629      	mov	r1, r5
   d58f6:	f10d 0009 	add.w	r0, sp, #9
   d58fa:	f7ff ffbe 	bl	d587a <_ZN6AB180513registersToTmEPKhP2tmb>
            _log.info("getRtcAsTm %s", tmToString(timeptr).c_str());
   d58fe:	a804      	add	r0, sp, #16
   d5900:	f7ff ff9c 	bl	d583c <_ZN6AB180510tmToStringEPK2tm>
   d5904:	4808      	ldr	r0, [pc, #32]	; (d5928 <_ZN6AB180510getRtcAsTmEP2tm+0x60>)
   d5906:	9a04      	ldr	r2, [sp, #16]
   d5908:	4908      	ldr	r1, [pc, #32]	; (d592c <_ZN6AB180510getRtcAsTmEP2tm+0x64>)
   d590a:	f7fe fc2b 	bl	d4164 <_ZNK5spark6Logger4infoEPKcz>
   d590e:	a804      	add	r0, sp, #16
   d5910:	f005 fd90 	bl	db434 <_ZN6StringD1Ev>
}
   d5914:	4620      	mov	r0, r4
   d5916:	b008      	add	sp, #32
   d5918:	bd70      	pop	{r4, r5, r6, pc}
        memset(timeptr, 0, sizeof(*timeptr));
   d591a:	2224      	movs	r2, #36	; 0x24
   d591c:	2100      	movs	r1, #0
   d591e:	4628      	mov	r0, r5
   d5920:	f006 ffe0 	bl	dc8e4 <memset>
   d5924:	2400      	movs	r4, #0
   d5926:	e7f5      	b.n	d5914 <_ZN6AB180510getRtcAsTmEP2tm+0x4c>
   d5928:	2003e2f0 	.word	0x2003e2f0
   d592c:	000dd3c0 	.word	0x000dd3c0

000d5930 <_ZN6AB180512getRtcAsTimeERx>:
bool AB1805::getRtcAsTime(time_t &time) {
   d5930:	b530      	push	{r4, r5, lr}
   d5932:	b08b      	sub	sp, #44	; 0x2c
   d5934:	460d      	mov	r5, r1
    bool bResult = getRtcAsTm(&tmstruct);
   d5936:	a901      	add	r1, sp, #4
   d5938:	f7ff ffc6 	bl	d58c8 <_ZN6AB180510getRtcAsTmEP2tm>
    if (bResult) {
   d593c:	4604      	mov	r4, r0
   d593e:	b120      	cbz	r0, d594a <_ZN6AB180512getRtcAsTimeERx+0x1a>
        time = mktime(&tmstruct);
   d5940:	a801      	add	r0, sp, #4
   d5942:	f003 faf5 	bl	d8f30 <mktime>
   d5946:	e9c5 0100 	strd	r0, r1, [r5]
}
   d594a:	4620      	mov	r0, r4
   d594c:	b00b      	add	sp, #44	; 0x2c
   d594e:	bd30      	pop	{r4, r5, pc}

000d5950 <_ZN6AB18055setupEb>:
void AB1805::setup(bool callBegin) {
   d5950:	b510      	push	{r4, lr}
   d5952:	4604      	mov	r4, r0
   d5954:	b088      	sub	sp, #32
    if (callBegin) {
   d5956:	b111      	cbz	r1, d595e <_ZN6AB18055setupEb+0xe>
        wire.begin();
   d5958:	6840      	ldr	r0, [r0, #4]
   d595a:	f004 f845 	bl	d99e8 <_ZN7TwoWire5beginEv>
    if (detectChip()) {
   d595e:	4620      	mov	r0, r4
   d5960:	f7ff fcce 	bl	d5300 <_ZN6AB180510detectChipEv>
   d5964:	b370      	cbz	r0, d59c4 <_ZN6AB18055setupEb+0x74>
        updateWakeReason();
   d5966:	4620      	mov	r0, r4
   d5968:	f7ff fe82 	bl	d5670 <_ZN6AB180516updateWakeReasonEv>
        if (isBitClear(REG_CTRL_1, REG_CTRL_1_WRTC) && !Time.isValid()) {
   d596c:	2301      	movs	r3, #1
   d596e:	461a      	mov	r2, r3
   d5970:	2110      	movs	r1, #16
   d5972:	4620      	mov	r0, r4
   d5974:	f7ff fe54 	bl	d5620 <_ZN6AB180510isBitClearEhhb>
   d5978:	b1d8      	cbz	r0, d59b2 <_ZN6AB18055setupEb+0x62>
   d597a:	f005 fffb 	bl	db974 <_ZN9TimeClass7isValidEv>
   d597e:	b9c0      	cbnz	r0, d59b2 <_ZN6AB18055setupEb+0x62>
            getRtcAsTime(time);
   d5980:	a902      	add	r1, sp, #8
   d5982:	4620      	mov	r0, r4
   d5984:	f7ff ffd4 	bl	d5930 <_ZN6AB180512getRtcAsTimeERx>
            Time.setTime(time);
   d5988:	e9dd 0102 	ldrd	r0, r1, [sp, #8]
   d598c:	f005 fef9 	bl	db782 <_ZN9TimeClass7setTimeEx>
            _log.info("set system clock from RTC %s", Time.format(time, TIME_FORMAT_DEFAULT).c_str());
   d5990:	4b0f      	ldr	r3, [pc, #60]	; (d59d0 <_ZN6AB18055setupEb+0x80>)
   d5992:	4910      	ldr	r1, [pc, #64]	; (d59d4 <_ZN6AB18055setupEb+0x84>)
   d5994:	681b      	ldr	r3, [r3, #0]
   d5996:	9300      	str	r3, [sp, #0]
   d5998:	a804      	add	r0, sp, #16
   d599a:	e9dd 2302 	ldrd	r2, r3, [sp, #8]
   d599e:	f005 ffa7 	bl	db8f0 <_ZN9TimeClass6formatExPKc>
   d59a2:	480d      	ldr	r0, [pc, #52]	; (d59d8 <_ZN6AB18055setupEb+0x88>)
   d59a4:	9a04      	ldr	r2, [sp, #16]
   d59a6:	490d      	ldr	r1, [pc, #52]	; (d59dc <_ZN6AB18055setupEb+0x8c>)
   d59a8:	f7fe fbdc 	bl	d4164 <_ZNK5spark6Logger4infoEPKcz>
   d59ac:	a804      	add	r0, sp, #16
   d59ae:	f005 fd41 	bl	db434 <_ZN6StringD1Ev>
        return system_subscribe_event(events, reinterpret_cast<system_event_handler_t*>(handler), NULL);
   d59b2:	4a0b      	ldr	r2, [pc, #44]	; (d59e0 <_ZN6AB18055setupEb+0x90>)
   d59b4:	2300      	movs	r3, #0
   d59b6:	2100      	movs	r1, #0
   d59b8:	f44f 6000 	mov.w	r0, #2048	; 0x800
   d59bc:	f003 f968 	bl	d8c90 <system_subscribe_event>
}
   d59c0:	b008      	add	sp, #32
   d59c2:	bd10      	pop	{r4, pc}
        _log.error("failed to detect AB1805");
   d59c4:	4907      	ldr	r1, [pc, #28]	; (d59e4 <_ZN6AB18055setupEb+0x94>)
   d59c6:	4804      	ldr	r0, [pc, #16]	; (d59d8 <_ZN6AB18055setupEb+0x88>)
   d59c8:	f7ff fc19 	bl	d51fe <_ZNK5spark6Logger5errorEPKcz>
   d59cc:	e7f1      	b.n	d59b2 <_ZN6AB18055setupEb+0x62>
   d59ce:	bf00      	nop
   d59d0:	2003dcf0 	.word	0x2003dcf0
   d59d4:	2003e5c4 	.word	0x2003e5c4
   d59d8:	2003e2f0 	.word	0x2003e2f0
   d59dc:	000dd3ce 	.word	0x000dd3ce
   d59e0:	000d5491 	.word	0x000d5491
   d59e4:	000dd3eb 	.word	0x000dd3eb

000d59e8 <_ZN6AB180510valueToBcdEi>:
    int tens = (value / 10) % 10;
   d59e8:	220a      	movs	r2, #10
   d59ea:	fb90 f3f2 	sdiv	r3, r0, r2
    int ones = value % 10;
   d59ee:	fb02 0013 	mls	r0, r2, r3, r0
    int tens = (value / 10) % 10;
   d59f2:	fb93 f1f2 	sdiv	r1, r3, r2
   d59f6:	fb02 3111 	mls	r1, r2, r1, r3
    return (uint8_t) ((tens << 4) | ones);
   d59fa:	ea40 1001 	orr.w	r0, r0, r1, lsl #4
}
   d59fe:	b2c0      	uxtb	r0, r0
   d5a00:	4770      	bx	lr

000d5a02 <_ZN6AB180513tmToRegistersEPK2tmPhb>:
void AB1805::tmToRegisters(const struct tm *timeptr, uint8_t *array, bool includeYear) {
   d5a02:	b570      	push	{r4, r5, r6, lr}
   d5a04:	4605      	mov	r5, r0
    *p++ = valueToBcd(timeptr->tm_sec);
   d5a06:	6800      	ldr	r0, [r0, #0]
void AB1805::tmToRegisters(const struct tm *timeptr, uint8_t *array, bool includeYear) {
   d5a08:	460c      	mov	r4, r1
   d5a0a:	4616      	mov	r6, r2
    *p++ = valueToBcd(timeptr->tm_sec);
   d5a0c:	f7ff ffec 	bl	d59e8 <_ZN6AB180510valueToBcdEi>
   d5a10:	7020      	strb	r0, [r4, #0]
    *p++ = valueToBcd(timeptr->tm_min);
   d5a12:	6868      	ldr	r0, [r5, #4]
   d5a14:	f7ff ffe8 	bl	d59e8 <_ZN6AB180510valueToBcdEi>
   d5a18:	7060      	strb	r0, [r4, #1]
    *p++ = valueToBcd(timeptr->tm_hour);
   d5a1a:	68a8      	ldr	r0, [r5, #8]
   d5a1c:	f7ff ffe4 	bl	d59e8 <_ZN6AB180510valueToBcdEi>
   d5a20:	70a0      	strb	r0, [r4, #2]
    *p++ = valueToBcd(timeptr->tm_mday);
   d5a22:	68e8      	ldr	r0, [r5, #12]
   d5a24:	f7ff ffe0 	bl	d59e8 <_ZN6AB180510valueToBcdEi>
   d5a28:	70e0      	strb	r0, [r4, #3]
    *p++ = valueToBcd(timeptr->tm_mon + 1); // struct tm is 0-11, not 1-12!
   d5a2a:	6928      	ldr	r0, [r5, #16]
   d5a2c:	3001      	adds	r0, #1
   d5a2e:	f7ff ffdb 	bl	d59e8 <_ZN6AB180510valueToBcdEi>
   d5a32:	7120      	strb	r0, [r4, #4]
    if (includeYear) {
   d5a34:	b92e      	cbnz	r6, d5a42 <_ZN6AB180513tmToRegistersEPK2tmPhb+0x40>
    *p++ = valueToBcd(timeptr->tm_mon + 1); // struct tm is 0-11, not 1-12!
   d5a36:	1d66      	adds	r6, r4, #5
    *p++ = valueToBcd(timeptr->tm_wday);
   d5a38:	69a8      	ldr	r0, [r5, #24]
   d5a3a:	f7ff ffd5 	bl	d59e8 <_ZN6AB180510valueToBcdEi>
   d5a3e:	7030      	strb	r0, [r6, #0]
}
   d5a40:	bd70      	pop	{r4, r5, r6, pc}
        *p++ = valueToBcd(timeptr->tm_year % 100);
   d5a42:	696a      	ldr	r2, [r5, #20]
   d5a44:	2364      	movs	r3, #100	; 0x64
   d5a46:	fb92 f0f3 	sdiv	r0, r2, r3
   d5a4a:	fb03 2010 	mls	r0, r3, r0, r2
   d5a4e:	f7ff ffcb 	bl	d59e8 <_ZN6AB180510valueToBcdEi>
   d5a52:	1da6      	adds	r6, r4, #6
   d5a54:	7160      	strb	r0, [r4, #5]
   d5a56:	e7ef      	b.n	d5a38 <_ZN6AB180513tmToRegistersEPK2tmPhb+0x36>

000d5a58 <_ZN6AB180512setRtcFromTmEPK2tmb>:
bool AB1805::setRtcFromTm(const struct tm *timeptr, bool lock) {
   d5a58:	b5f0      	push	{r4, r5, r6, r7, lr}
   d5a5a:	b087      	sub	sp, #28
   d5a5c:	4605      	mov	r5, r0
    _log.info("setRtcAsTm %s", tmToString(timeptr).c_str());
   d5a5e:	a802      	add	r0, sp, #8
bool AB1805::setRtcFromTm(const struct tm *timeptr, bool lock) {
   d5a60:	4616      	mov	r6, r2
   d5a62:	460c      	mov	r4, r1
    _log.info("setRtcAsTm %s", tmToString(timeptr).c_str());
   d5a64:	f7ff feea 	bl	d583c <_ZN6AB180510tmToStringEPK2tm>
   d5a68:	481e      	ldr	r0, [pc, #120]	; (d5ae4 <_ZN6AB180512setRtcFromTmEPK2tmb+0x8c>)
   d5a6a:	9a02      	ldr	r2, [sp, #8]
   d5a6c:	491e      	ldr	r1, [pc, #120]	; (d5ae8 <_ZN6AB180512setRtcFromTmEPK2tmb+0x90>)
   d5a6e:	f7fe fb79 	bl	d4164 <_ZNK5spark6Logger4infoEPKcz>
   d5a72:	a802      	add	r0, sp, #8
   d5a74:	f005 fcde 	bl	db434 <_ZN6StringD1Ev>
    if (lock) {
   d5a78:	b116      	cbz	r6, d5a80 <_ZN6AB180512setRtcFromTmEPK2tmb+0x28>
        wire.lock();
   d5a7a:	6868      	ldr	r0, [r5, #4]
   d5a7c:	f004 f806 	bl	d9a8c <_ZN7TwoWire4lockEv>
    tmToRegisters(timeptr, &array[1], true);
   d5a80:	4620      	mov	r0, r4
   d5a82:	2201      	movs	r2, #1
   d5a84:	f10d 0109 	add.w	r1, sp, #9
    array[0] = 0x00; // hundredths
   d5a88:	2700      	movs	r7, #0
   d5a8a:	f88d 7008 	strb.w	r7, [sp, #8]
    tmToRegisters(timeptr, &array[1], true);
   d5a8e:	f7ff ffb8 	bl	d5a02 <_ZN6AB180513tmToRegistersEPK2tmPhb>
    bool bResult = setRegisterBit(REG_CTRL_1, REG_CTRL_1_WRTC);
   d5a92:	2301      	movs	r3, #1
   d5a94:	461a      	mov	r2, r3
   d5a96:	2110      	movs	r1, #16
   d5a98:	4628      	mov	r0, r5
   d5a9a:	f7ff fe3f 	bl	d571c <_ZN6AB180514setRegisterBitEhhb>
    if (bResult) {
   d5a9e:	4604      	mov	r4, r0
   d5aa0:	b1e8      	cbz	r0, d5ade <_ZN6AB180512setRtcFromTmEPK2tmb+0x86>
        bResult = writeRegisters(REG_HUNDREDTH, array, sizeof(array), false);
   d5aa2:	2308      	movs	r3, #8
   d5aa4:	9700      	str	r7, [sp, #0]
   d5aa6:	eb0d 0203 	add.w	r2, sp, r3
   d5aaa:	4639      	mov	r1, r7
   d5aac:	4628      	mov	r0, r5
   d5aae:	f7ff fc65 	bl	d537c <_ZN6AB180514writeRegistersEhPKhjb>
        if (bResult) {
   d5ab2:	4604      	mov	r4, r0
   d5ab4:	b160      	cbz	r0, d5ad0 <_ZN6AB180512setRtcFromTmEPK2tmb+0x78>
            clearRegisterBit(REG_CTRL_1, REG_CTRL_1_WRTC);
   d5ab6:	2301      	movs	r3, #1
   d5ab8:	461a      	mov	r2, r3
   d5aba:	2110      	movs	r1, #16
   d5abc:	4628      	mov	r0, r5
   d5abe:	f7ff fdcd 	bl	d565c <_ZN6AB180516clearRegisterBitEhhb>
    if (lock) {
   d5ac2:	b116      	cbz	r6, d5aca <_ZN6AB180512setRtcFromTmEPK2tmb+0x72>
        wire.unlock();
   d5ac4:	6868      	ldr	r0, [r5, #4]
   d5ac6:	f003 ffea 	bl	d9a9e <_ZN7TwoWire6unlockEv>
}
   d5aca:	4620      	mov	r0, r4
   d5acc:	b007      	add	sp, #28
   d5ace:	bdf0      	pop	{r4, r5, r6, r7, pc}
            _log.error(errorMsg, __LINE__);
   d5ad0:	f44f 728d 	mov.w	r2, #282	; 0x11a
        _log.error(errorMsg, __LINE__);
   d5ad4:	4905      	ldr	r1, [pc, #20]	; (d5aec <_ZN6AB180512setRtcFromTmEPK2tmb+0x94>)
   d5ad6:	4803      	ldr	r0, [pc, #12]	; (d5ae4 <_ZN6AB180512setRtcFromTmEPK2tmb+0x8c>)
   d5ad8:	f7ff fb91 	bl	d51fe <_ZNK5spark6Logger5errorEPKcz>
   d5adc:	e7f1      	b.n	d5ac2 <_ZN6AB180512setRtcFromTmEPK2tmb+0x6a>
   d5ade:	f44f 728f 	mov.w	r2, #286	; 0x11e
   d5ae2:	e7f7      	b.n	d5ad4 <_ZN6AB180512setRtcFromTmEPK2tmb+0x7c>
   d5ae4:	2003e2f0 	.word	0x2003e2f0
   d5ae8:	000dd403 	.word	0x000dd403
   d5aec:	000dd411 	.word	0x000dd411

000d5af0 <_ZN6AB180514setRtcFromTimeExb>:
bool AB1805::setRtcFromTime(time_t time, bool lock) {
   d5af0:	b513      	push	{r0, r1, r4, lr}
   d5af2:	4604      	mov	r4, r0
    struct tm *tm = gmtime(&time);
   d5af4:	4668      	mov	r0, sp
bool AB1805::setRtcFromTime(time_t time, bool lock) {
   d5af6:	e9cd 2300 	strd	r2, r3, [sp]
    struct tm *tm = gmtime(&time);
   d5afa:	f006 feb9 	bl	dc870 <gmtime>
    return setRtcFromTm(tm, lock);
   d5afe:	f89d 2010 	ldrb.w	r2, [sp, #16]
    struct tm *tm = gmtime(&time);
   d5b02:	4601      	mov	r1, r0
    return setRtcFromTm(tm, lock);
   d5b04:	4620      	mov	r0, r4
   d5b06:	f7ff ffa7 	bl	d5a58 <_ZN6AB180512setRtcFromTmEPK2tmb>
}
   d5b0a:	b002      	add	sp, #8
   d5b0c:	bd10      	pop	{r4, pc}
	...

000d5b10 <_ZN6AB18054loopEv>:
void AB1805::loop() {
   d5b10:	b5f0      	push	{r4, r5, r6, r7, lr}
    if (!timeSet && Time.isValid() && Particle.timeSyncedLast() != 0) {
   d5b12:	7e05      	ldrb	r5, [r0, #24]
void AB1805::loop() {
   d5b14:	b089      	sub	sp, #36	; 0x24
   d5b16:	4604      	mov	r4, r0
    if (!timeSet && Time.isValid() && Particle.timeSyncedLast() != 0) {
   d5b18:	bb75      	cbnz	r5, d5b78 <_ZN6AB18054loopEv+0x68>
   d5b1a:	f005 ff2b 	bl	db974 <_ZN9TimeClass7isValidEv>
   d5b1e:	b358      	cbz	r0, d5b78 <_ZN6AB18054loopEv+0x68>
        tm = 0;
   d5b20:	2600      	movs	r6, #0
   d5b22:	2700      	movs	r7, #0
        return spark_sync_time_last(nullptr, &tm);
   d5b24:	a904      	add	r1, sp, #16
   d5b26:	4628      	mov	r0, r5
        tm = 0;
   d5b28:	e9cd 6704 	strd	r6, r7, [sp, #16]
        return spark_sync_time_last(nullptr, &tm);
   d5b2c:	f003 f928 	bl	d8d80 <spark_sync_time_last>
   d5b30:	b310      	cbz	r0, d5b78 <_ZN6AB18054loopEv+0x68>
        timeSet = true;
   d5b32:	2501      	movs	r5, #1
   d5b34:	7625      	strb	r5, [r4, #24]
        time_t time = Time.now();
   d5b36:	f005 ff3a 	bl	db9ae <_ZN9TimeClass3nowEv>
        setRtcFromTime(time);
   d5b3a:	9500      	str	r5, [sp, #0]
        time_t time = Time.now();
   d5b3c:	4602      	mov	r2, r0
   d5b3e:	17c3      	asrs	r3, r0, #31
        setRtcFromTime(time);
   d5b40:	4620      	mov	r0, r4
        time_t time = Time.now();
   d5b42:	e9cd 2302 	strd	r2, r3, [sp, #8]
        setRtcFromTime(time);
   d5b46:	f7ff ffd3 	bl	d5af0 <_ZN6AB180514setRtcFromTimeExb>
        getRtcAsTime(time);
   d5b4a:	a902      	add	r1, sp, #8
   d5b4c:	4620      	mov	r0, r4
        time = 0;
   d5b4e:	e9cd 6702 	strd	r6, r7, [sp, #8]
        getRtcAsTime(time);
   d5b52:	f7ff feed 	bl	d5930 <_ZN6AB180512getRtcAsTimeERx>
        _log.info("set RTC from cloud %s", Time.format(time, TIME_FORMAT_DEFAULT).c_str());
   d5b56:	4b12      	ldr	r3, [pc, #72]	; (d5ba0 <_ZN6AB18054loopEv+0x90>)
   d5b58:	4912      	ldr	r1, [pc, #72]	; (d5ba4 <_ZN6AB18054loopEv+0x94>)
   d5b5a:	681b      	ldr	r3, [r3, #0]
   d5b5c:	9300      	str	r3, [sp, #0]
   d5b5e:	a804      	add	r0, sp, #16
   d5b60:	e9dd 2302 	ldrd	r2, r3, [sp, #8]
   d5b64:	f005 fec4 	bl	db8f0 <_ZN9TimeClass6formatExPKc>
   d5b68:	480f      	ldr	r0, [pc, #60]	; (d5ba8 <_ZN6AB18054loopEv+0x98>)
   d5b6a:	9a04      	ldr	r2, [sp, #16]
   d5b6c:	490f      	ldr	r1, [pc, #60]	; (d5bac <_ZN6AB18054loopEv+0x9c>)
   d5b6e:	f7fe faf9 	bl	d4164 <_ZNK5spark6Logger4infoEPKcz>
   d5b72:	a804      	add	r0, sp, #16
   d5b74:	f005 fc5e 	bl	db434 <_ZN6StringD1Ev>
    if (watchdogUpdatePeriod) {
   d5b78:	6963      	ldr	r3, [r4, #20]
   d5b7a:	b173      	cbz	r3, d5b9a <_ZN6AB18054loopEv+0x8a>
   d5b7c:	f002 fe86 	bl	d888c <HAL_Timer_Get_Milli_Seconds>
        if (millis() - lastWatchdogMillis >= watchdogUpdatePeriod) {
   d5b80:	6923      	ldr	r3, [r4, #16]
   d5b82:	1ac0      	subs	r0, r0, r3
   d5b84:	6963      	ldr	r3, [r4, #20]
   d5b86:	4298      	cmp	r0, r3
   d5b88:	d307      	bcc.n	d5b9a <_ZN6AB18054loopEv+0x8a>
   d5b8a:	f002 fe7f 	bl	d888c <HAL_Timer_Get_Milli_Seconds>
            setWDT();
   d5b8e:	f04f 31ff 	mov.w	r1, #4294967295	; 0xffffffff
            lastWatchdogMillis = millis();
   d5b92:	6120      	str	r0, [r4, #16]
            setWDT();
   d5b94:	4620      	mov	r0, r4
   d5b96:	f7ff fc39 	bl	d540c <_ZN6AB18056setWDTEi>
}
   d5b9a:	b009      	add	sp, #36	; 0x24
   d5b9c:	bdf0      	pop	{r4, r5, r6, r7, pc}
   d5b9e:	bf00      	nop
   d5ba0:	2003dcf0 	.word	0x2003dcf0
   d5ba4:	2003e5c4 	.word	0x2003e5c4
   d5ba8:	2003e2f0 	.word	0x2003e2f0
   d5bac:	000dd42c 	.word	0x000dd42c

000d5bb0 <_GLOBAL__sub_I__ZN6AB18058instanceE>:
        name_(name) {
   d5bb0:	4b01      	ldr	r3, [pc, #4]	; (d5bb8 <_GLOBAL__sub_I__ZN6AB18058instanceE+0x8>)
   d5bb2:	4a02      	ldr	r2, [pc, #8]	; (d5bbc <_GLOBAL__sub_I__ZN6AB18058instanceE+0xc>)
   d5bb4:	601a      	str	r2, [r3, #0]
}
   d5bb6:	4770      	bx	lr
   d5bb8:	2003e2f0 	.word	0x2003e2f0
   d5bbc:	000dd442 	.word	0x000dd442

000d5bc0 <_ZN12LocalTimeHMSD1Ev>:
//
LocalTimeHMS::LocalTimeHMS() {
}

LocalTimeHMS::~LocalTimeHMS() {
}
   d5bc0:	4770      	bx	lr

000d5bc2 <_ZN15LocalTimeChangeD1Ev>:
// LocalTimeChange
//
LocalTimeChange::LocalTimeChange() {
}
LocalTimeChange::~LocalTimeChange() {
}
   d5bc2:	4770      	bx	lr

000d5bc4 <_ZNSt17_Function_handlerIFbR21LocalTimeScheduleItemEZNK17LocalTimeSchedule20getNextScheduledTimeER16LocalTimeConvertEUlS1_E_E9_M_invokeERKSt9_Any_dataS1_>:
      static _Res
      _M_invoke(const _Any_data& __functor, _ArgTypes&&... __args)
      {
	return (*_Base::_M_get_pointer(__functor))(
	    std::forward<_ArgTypes>(__args)...);
      }
   d5bc4:	2001      	movs	r0, #1
   d5bc6:	4770      	bx	lr

000d5bc8 <_ZNSt14_Function_base13_Base_managerIZNK17LocalTimeSchedule20getNextScheduledTimeER16LocalTimeConvertEUlR21LocalTimeScheduleItemE_E10_M_managerERSt9_Any_dataRKS8_St18_Manager_operation>:
	  switch (__op)
   d5bc8:	2a01      	cmp	r2, #1
	      __dest._M_access<_Functor*>() = _M_get_pointer(__source);
   d5bca:	bf08      	it	eq
   d5bcc:	6001      	streq	r1, [r0, #0]
	}
   d5bce:	2000      	movs	r0, #0
   d5bd0:	4770      	bx	lr

000d5bd2 <_ZN12LocalTimeHMSD0Ev>:
LocalTimeHMS::~LocalTimeHMS() {
   d5bd2:	b510      	push	{r4, lr}
}
   d5bd4:	2108      	movs	r1, #8
LocalTimeHMS::~LocalTimeHMS() {
   d5bd6:	4604      	mov	r4, r0
}
   d5bd8:	f006 f9d0 	bl	dbf7c <_ZdlPvj>
   d5bdc:	4620      	mov	r0, r4
   d5bde:	bd10      	pop	{r4, pc}

000d5be0 <_ZN15LocalTimeChangeD0Ev>:
LocalTimeChange::~LocalTimeChange() {
   d5be0:	b510      	push	{r4, lr}
}
   d5be2:	2110      	movs	r1, #16
LocalTimeChange::~LocalTimeChange() {
   d5be4:	4604      	mov	r4, r0
}
   d5be6:	f006 f9c9 	bl	dbf7c <_ZdlPvj>
   d5bea:	4620      	mov	r0, r4
   d5bec:	bd10      	pop	{r4, pc}
	...

000d5bf0 <_ZN22LocalTimePosixTimezoneD1Ev>:
// LocalTimePosixTimezone
//

LocalTimePosixTimezone::LocalTimePosixTimezone() {
}
LocalTimePosixTimezone::~LocalTimePosixTimezone() {
   d5bf0:	b510      	push	{r4, lr}
   d5bf2:	4b05      	ldr	r3, [pc, #20]	; (d5c08 <_ZN22LocalTimePosixTimezoneD1Ev+0x18>)
   d5bf4:	4604      	mov	r4, r0
   d5bf6:	f840 3b1c 	str.w	r3, [r0], #28
   d5bfa:	f005 fc1b 	bl	db434 <_ZN6StringD1Ev>
   d5bfe:	1d20      	adds	r0, r4, #4
   d5c00:	f005 fc18 	bl	db434 <_ZN6StringD1Ev>
}
   d5c04:	4620      	mov	r0, r4
   d5c06:	bd10      	pop	{r4, pc}
   d5c08:	000dd4f0 	.word	0x000dd4f0

000d5c0c <_ZN22LocalTimePosixTimezoneD0Ev>:
LocalTimePosixTimezone::~LocalTimePosixTimezone() {
   d5c0c:	b510      	push	{r4, lr}
   d5c0e:	4604      	mov	r4, r0
}
   d5c10:	f7ff ffee 	bl	d5bf0 <_ZN22LocalTimePosixTimezoneD1Ev>
   d5c14:	4620      	mov	r0, r4
   d5c16:	2158      	movs	r1, #88	; 0x58
   d5c18:	f006 f9b0 	bl	dbf7c <_ZdlPvj>
   d5c1c:	4620      	mov	r0, r4
   d5c1e:	bd10      	pop	{r4, pc}

000d5c20 <_ZN9LocalTimeD1Ev>:
    LocalTime() {};

    /**
     * @brief This class is a singleton and should not be manually destructed
     */
    virtual ~LocalTime() {};
   d5c20:	b510      	push	{r4, lr}
   d5c22:	4b04      	ldr	r3, [pc, #16]	; (d5c34 <_ZN9LocalTimeD1Ev+0x14>)
   d5c24:	4604      	mov	r4, r0
   d5c26:	f840 3b04 	str.w	r3, [r0], #4
   d5c2a:	f7ff ffe1 	bl	d5bf0 <_ZN22LocalTimePosixTimezoneD1Ev>
   d5c2e:	4620      	mov	r0, r4
   d5c30:	bd10      	pop	{r4, pc}
   d5c32:	bf00      	nop
   d5c34:	000dd4c0 	.word	0x000dd4c0

000d5c38 <_ZN9LocalTimeD0Ev>:
   d5c38:	b510      	push	{r4, lr}
   d5c3a:	4604      	mov	r4, r0
   d5c3c:	f7ff fff0 	bl	d5c20 <_ZN9LocalTimeD1Ev>
   d5c40:	4620      	mov	r0, r4
   d5c42:	2160      	movs	r1, #96	; 0x60
   d5c44:	f006 f99a 	bl	dbf7c <_ZdlPvj>
   d5c48:	4620      	mov	r0, r4
   d5c4a:	bd10      	pop	{r4, pc}

000d5c4c <_ZNK16LocalTimeConvert5isDSTEv.isra.0>:
    bool isDST() const { return position == Position::IN_DST || position == Position::BEFORE_STANDARD || position == Position::AFTER_STANDARD; };
   d5c4c:	f020 0302 	bic.w	r3, r0, #2
   d5c50:	2b01      	cmp	r3, #1
   d5c52:	d003      	beq.n	d5c5c <_ZNK16LocalTimeConvert5isDSTEv.isra.0+0x10>
   d5c54:	1f43      	subs	r3, r0, #5
   d5c56:	4258      	negs	r0, r3
   d5c58:	4158      	adcs	r0, r3
   d5c5a:	4770      	bx	lr
   d5c5c:	4618      	mov	r0, r3
   d5c5e:	4770      	bx	lr

000d5c60 <_ZNSt12_Vector_baseI12LocalTimeYMDSaIS0_EE13_M_deallocateEPS0_j.isra.0>:
	if (__p)
   d5c60:	b108      	cbz	r0, d5c66 <_ZNSt12_Vector_baseI12LocalTimeYMDSaIS0_EE13_M_deallocateEPS0_j.isra.0+0x6>
   d5c62:	f7fe ba1c 	b.w	d409e <_ZdlPv>
	  _Tr::deallocate(_M_impl, __p, __n);
      }
   d5c66:	4770      	bx	lr

000d5c68 <_ZNSt12_Vector_baseI12LocalTimeYMDSaIS0_EE11_M_allocateEj.isra.0>:
      _M_allocate(size_t __n)
   d5c68:	b508      	push	{r3, lr}
	return __n != 0 ? _Tr::allocate(_M_impl, __n) : pointer();
   d5c6a:	b148      	cbz	r0, d5c80 <_ZNSt12_Vector_baseI12LocalTimeYMDSaIS0_EE11_M_allocateEj.isra.0+0x18>
	if (__n > this->max_size())
   d5c6c:	f1b0 5f00 	cmp.w	r0, #536870912	; 0x20000000
   d5c70:	d301      	bcc.n	d5c76 <_ZNSt12_Vector_baseI12LocalTimeYMDSaIS0_EE11_M_allocateEj.isra.0+0xe>
	  std::__throw_bad_alloc();
   d5c72:	f006 f989 	bl	dbf88 <_ZSt17__throw_bad_allocv>
      }
   d5c76:	e8bd 4008 	ldmia.w	sp!, {r3, lr}
	return static_cast<_Tp*>(::operator new(__n * sizeof(_Tp)));
   d5c7a:	0080      	lsls	r0, r0, #2
   d5c7c:	f7fe ba0b 	b.w	d4096 <_Znwj>
   d5c80:	bd08      	pop	{r3, pc}

000d5c82 <_ZNSt12__shared_ptrIN5spark6detail8JSONDataELN9__gnu_cxx12_Lock_policyE0EEC1ERKS5_>:
      __shared_ptr(const __shared_ptr&) noexcept = default;
   d5c82:	680b      	ldr	r3, [r1, #0]
   d5c84:	6003      	str	r3, [r0, #0]
      : _M_pi(__r._M_pi)
   d5c86:	684b      	ldr	r3, [r1, #4]
   d5c88:	6043      	str	r3, [r0, #4]
	if (_M_pi != 0)
   d5c8a:	b113      	cbz	r3, d5c92 <_ZNSt12__shared_ptrIN5spark6detail8JSONDataELN9__gnu_cxx12_Lock_policyE0EEC1ERKS5_+0x10>
    { ++_M_use_count; }
   d5c8c:	685a      	ldr	r2, [r3, #4]
   d5c8e:	3201      	adds	r2, #1
   d5c90:	605a      	str	r2, [r3, #4]
      __shared_ptr(const __shared_ptr&) noexcept = default;
   d5c92:	4770      	bx	lr

000d5c94 <_ZNK12LocalTimeHMS9compareToERKS_>:
        if (hour < other.hour) {
   d5c94:	f990 2004 	ldrsb.w	r2, [r0, #4]
   d5c98:	f991 3004 	ldrsb.w	r3, [r1, #4]
   d5c9c:	429a      	cmp	r2, r3
   d5c9e:	db13      	blt.n	d5cc8 <_ZNK12LocalTimeHMS9compareToERKS_+0x34>
        if (hour > other.hour) {
   d5ca0:	dc10      	bgt.n	d5cc4 <_ZNK12LocalTimeHMS9compareToERKS_+0x30>
            if (minute < other.minute) {
   d5ca2:	f990 2005 	ldrsb.w	r2, [r0, #5]
   d5ca6:	f991 3005 	ldrsb.w	r3, [r1, #5]
   d5caa:	429a      	cmp	r2, r3
   d5cac:	db0c      	blt.n	d5cc8 <_ZNK12LocalTimeHMS9compareToERKS_+0x34>
            if (minute > other.minute) {
   d5cae:	dc09      	bgt.n	d5cc4 <_ZNK12LocalTimeHMS9compareToERKS_+0x30>
                if (second < other.second) {
   d5cb0:	f990 2006 	ldrsb.w	r2, [r0, #6]
   d5cb4:	f991 3006 	ldrsb.w	r3, [r1, #6]
   d5cb8:	429a      	cmp	r2, r3
   d5cba:	db05      	blt.n	d5cc8 <_ZNK12LocalTimeHMS9compareToERKS_+0x34>
                if (second > other.second) {
   d5cbc:	bfcc      	ite	gt
   d5cbe:	2001      	movgt	r0, #1
   d5cc0:	2000      	movle	r0, #0
   d5cc2:	4770      	bx	lr
            return +1;
   d5cc4:	2001      	movs	r0, #1
   d5cc6:	4770      	bx	lr
            return -1;
   d5cc8:	f04f 30ff 	mov.w	r0, #4294967295	; 0xffffffff
    }
   d5ccc:	4770      	bx	lr
	...

000d5cd0 <_ZN12LocalTimeHMSC1ERKS_>:
class LocalTimeHMS {
   d5cd0:	4a02      	ldr	r2, [pc, #8]	; (d5cdc <_ZN12LocalTimeHMSC1ERKS_+0xc>)
   d5cd2:	6002      	str	r2, [r0, #0]
   d5cd4:	684a      	ldr	r2, [r1, #4]
   d5cd6:	6042      	str	r2, [r0, #4]
   d5cd8:	4770      	bx	lr
   d5cda:	bf00      	nop
   d5cdc:	000dd4d0 	.word	0x000dd4d0

000d5ce0 <_ZN12LocalTimeHMSaSERKS_>:
   d5ce0:	f991 2004 	ldrsb.w	r2, [r1, #4]
   d5ce4:	7102      	strb	r2, [r0, #4]
   d5ce6:	f991 2005 	ldrsb.w	r2, [r1, #5]
   d5cea:	7142      	strb	r2, [r0, #5]
   d5cec:	f991 2006 	ldrsb.w	r2, [r1, #6]
   d5cf0:	7182      	strb	r2, [r0, #6]
   d5cf2:	f991 2007 	ldrsb.w	r2, [r1, #7]
   d5cf6:	71c2      	strb	r2, [r0, #7]
   d5cf8:	4770      	bx	lr

000d5cfa <_ZNK14LocalTimeRange9compareToE12LocalTimeHMS>:
    int compareTo(LocalTimeHMS hms) const {
   d5cfa:	b538      	push	{r3, r4, r5, lr}
   d5cfc:	460c      	mov	r4, r1
   d5cfe:	4605      	mov	r5, r0
        return compareTo(other) < 0;
   d5d00:	f100 011c 	add.w	r1, r0, #28
   d5d04:	4620      	mov	r0, r4
   d5d06:	f7ff ffc5 	bl	d5c94 <_ZNK12LocalTimeHMS9compareToERKS_>
        if (hms < hmsStart) {
   d5d0a:	2800      	cmp	r0, #0
   d5d0c:	db09      	blt.n	d5d22 <_ZNK14LocalTimeRange9compareToE12LocalTimeHMS+0x28>
        return compareTo(other) > 0;
   d5d0e:	f105 0124 	add.w	r1, r5, #36	; 0x24
   d5d12:	4620      	mov	r0, r4
   d5d14:	f7ff ffbe 	bl	d5c94 <_ZNK12LocalTimeHMS9compareToERKS_>
        if (hms > hmsEnd) {
   d5d18:	2800      	cmp	r0, #0
   d5d1a:	bfd4      	ite	le
   d5d1c:	2000      	movle	r0, #0
   d5d1e:	2001      	movgt	r0, #1
    }
   d5d20:	bd38      	pop	{r3, r4, r5, pc}
            return -1;
   d5d22:	f04f 30ff 	mov.w	r0, #4294967295	; 0xffffffff
   d5d26:	e7fb      	b.n	d5d20 <_ZNK14LocalTimeRange9compareToE12LocalTimeHMS+0x26>

000d5d28 <_ZN22LocalTimePosixTimezoneaSERKS_>:
class LocalTimePosixTimezone {
   d5d28:	b538      	push	{r3, r4, r5, lr}
   d5d2a:	4604      	mov	r4, r0
   d5d2c:	460d      	mov	r5, r1
   d5d2e:	3004      	adds	r0, #4
   d5d30:	3104      	adds	r1, #4
   d5d32:	f005 fc06 	bl	db542 <_ZN6StringaSERKS_>
   d5d36:	f105 0114 	add.w	r1, r5, #20
   d5d3a:	f104 0014 	add.w	r0, r4, #20
   d5d3e:	f7ff ffcf 	bl	d5ce0 <_ZN12LocalTimeHMSaSERKS_>
   d5d42:	f105 011c 	add.w	r1, r5, #28
   d5d46:	f104 001c 	add.w	r0, r4, #28
   d5d4a:	f005 fbfa 	bl	db542 <_ZN6StringaSERKS_>
   d5d4e:	f105 012c 	add.w	r1, r5, #44	; 0x2c
   d5d52:	f104 002c 	add.w	r0, r4, #44	; 0x2c
   d5d56:	f7ff ffc3 	bl	d5ce0 <_ZN12LocalTimeHMSaSERKS_>
class LocalTimeChange {
   d5d5a:	f995 3038 	ldrsb.w	r3, [r5, #56]	; 0x38
   d5d5e:	f884 3038 	strb.w	r3, [r4, #56]	; 0x38
   d5d62:	f995 3039 	ldrsb.w	r3, [r5, #57]	; 0x39
   d5d66:	f884 3039 	strb.w	r3, [r4, #57]	; 0x39
   d5d6a:	f995 303a 	ldrsb.w	r3, [r5, #58]	; 0x3a
   d5d6e:	f884 303a 	strb.w	r3, [r4, #58]	; 0x3a
   d5d72:	f995 303b 	ldrsb.w	r3, [r5, #59]	; 0x3b
   d5d76:	f884 303b 	strb.w	r3, [r4, #59]	; 0x3b
   d5d7a:	f105 013c 	add.w	r1, r5, #60	; 0x3c
   d5d7e:	f104 003c 	add.w	r0, r4, #60	; 0x3c
   d5d82:	f7ff ffad 	bl	d5ce0 <_ZN12LocalTimeHMSaSERKS_>
   d5d86:	f995 3048 	ldrsb.w	r3, [r5, #72]	; 0x48
   d5d8a:	f884 3048 	strb.w	r3, [r4, #72]	; 0x48
   d5d8e:	f995 3049 	ldrsb.w	r3, [r5, #73]	; 0x49
   d5d92:	f884 3049 	strb.w	r3, [r4, #73]	; 0x49
   d5d96:	f995 304a 	ldrsb.w	r3, [r5, #74]	; 0x4a
   d5d9a:	f884 304a 	strb.w	r3, [r4, #74]	; 0x4a
   d5d9e:	f995 304b 	ldrsb.w	r3, [r5, #75]	; 0x4b
   d5da2:	f884 304b 	strb.w	r3, [r4, #75]	; 0x4b
   d5da6:	f105 014c 	add.w	r1, r5, #76	; 0x4c
   d5daa:	f104 004c 	add.w	r0, r4, #76	; 0x4c
   d5dae:	f7ff ff97 	bl	d5ce0 <_ZN12LocalTimeHMSaSERKS_>
class LocalTimePosixTimezone {
   d5db2:	f895 3054 	ldrb.w	r3, [r5, #84]	; 0x54
   d5db6:	f884 3054 	strb.w	r3, [r4, #84]	; 0x54
   d5dba:	4620      	mov	r0, r4
   d5dbc:	bd38      	pop	{r3, r4, r5, pc}

000d5dbe <_ZN12LocalTimeYMD12fromTimeInfoEPK2tm>:
    ymd.year = pTimeInfo->tm_year;
   d5dbe:	694a      	ldr	r2, [r1, #20]
   d5dc0:	6803      	ldr	r3, [r0, #0]
   d5dc2:	f362 0316 	bfi	r3, r2, #0, #23
   d5dc6:	6003      	str	r3, [r0, #0]
    ymd.month = pTimeInfo->tm_mon + 1;
   d5dc8:	690b      	ldr	r3, [r1, #16]
   d5dca:	1c5a      	adds	r2, r3, #1
   d5dcc:	8843      	ldrh	r3, [r0, #2]
   d5dce:	f362 13ca 	bfi	r3, r2, #7, #4
   d5dd2:	8043      	strh	r3, [r0, #2]
    ymd.day = pTimeInfo->tm_mday;
   d5dd4:	68ca      	ldr	r2, [r1, #12]
   d5dd6:	f3c3 2307 	ubfx	r3, r3, #8, #8
   d5dda:	f362 03c7 	bfi	r3, r2, #3, #5
   d5dde:	70c3      	strb	r3, [r0, #3]
}
   d5de0:	4770      	bx	lr

000d5de2 <_ZNK12LocalTimeYMD12getDayOfWeekEv>:
int LocalTimeYMD::getDayOfWeek() const {
   d5de2:	b510      	push	{r4, lr}
   d5de4:	4604      	mov	r4, r0
   d5de6:	b08c      	sub	sp, #48	; 0x30
    struct tm timeInfo = {0};
   d5de8:	2224      	movs	r2, #36	; 0x24
   d5dea:	2100      	movs	r1, #0
   d5dec:	a803      	add	r0, sp, #12
   d5dee:	f006 fd79 	bl	dc8e4 <memset>
    timeInfo.tm_year = ymd.year;
   d5df2:	6823      	ldr	r3, [r4, #0]
   d5df4:	f3c3 0316 	ubfx	r3, r3, #0, #23
   d5df8:	9308      	str	r3, [sp, #32]
    timeInfo.tm_mon = ymd.month - 1;
   d5dfa:	8863      	ldrh	r3, [r4, #2]
   d5dfc:	f3c3 13c3 	ubfx	r3, r3, #7, #4
   d5e00:	3b01      	subs	r3, #1
   d5e02:	9307      	str	r3, [sp, #28]
    timeInfo.tm_mday = ymd.day;
   d5e04:	78e3      	ldrb	r3, [r4, #3]
// [static]
time_t LocalTime::tmToTime(struct tm *pTimeInfo) {
#ifndef UNITTEST
    // Particle C standard library does not implement timegm, however the C
    // library is always set to UTC, so this works
    return mktime(pTimeInfo);
   d5e06:	a803      	add	r0, sp, #12
    timeInfo.tm_mday = ymd.day;
   d5e08:	08db      	lsrs	r3, r3, #3
   d5e0a:	9306      	str	r3, [sp, #24]
    return mktime(pTimeInfo);
   d5e0c:	f003 f890 	bl	d8f30 <mktime>
    LocalTime::timeToTm(time, &timeInfo);
   d5e10:	e9cd 0100 	strd	r0, r1, [sp]
    localtime_r(&time, pTimeInfo);
   d5e14:	a903      	add	r1, sp, #12
   d5e16:	4668      	mov	r0, sp
   d5e18:	f003 f87a 	bl	d8f10 <localtime_r>
}
   d5e1c:	9809      	ldr	r0, [sp, #36]	; 0x24
   d5e1e:	b00c      	add	sp, #48	; 0x30
   d5e20:	bd10      	pop	{r4, pc}

000d5e22 <_ZN12LocalTimeYMD6addDayEi>:
void LocalTimeYMD::addDay(int numberOfDays) {
   d5e22:	b530      	push	{r4, r5, lr}
   d5e24:	4604      	mov	r4, r0
   d5e26:	b08d      	sub	sp, #52	; 0x34
    struct tm timeInfo = {0};
   d5e28:	2224      	movs	r2, #36	; 0x24
void LocalTimeYMD::addDay(int numberOfDays) {
   d5e2a:	460d      	mov	r5, r1
    struct tm timeInfo = {0};
   d5e2c:	a803      	add	r0, sp, #12
   d5e2e:	2100      	movs	r1, #0
   d5e30:	f006 fd58 	bl	dc8e4 <memset>
    timeInfo.tm_year = ymd.year;
   d5e34:	6823      	ldr	r3, [r4, #0]
    timeInfo.tm_mday = ymd.day;
   d5e36:	78e1      	ldrb	r1, [r4, #3]
    timeInfo.tm_year = ymd.year;
   d5e38:	f3c3 0316 	ubfx	r3, r3, #0, #23
   d5e3c:	9308      	str	r3, [sp, #32]
    timeInfo.tm_mon = ymd.month - 1;
   d5e3e:	8863      	ldrh	r3, [r4, #2]
   d5e40:	f3c3 13c3 	ubfx	r3, r3, #7, #4
   d5e44:	3b01      	subs	r3, #1
    timeInfo.tm_mday += numberOfDays;
   d5e46:	eb05 05d1 	add.w	r5, r5, r1, lsr #3
    return mktime(pTimeInfo);
   d5e4a:	a803      	add	r0, sp, #12
    timeInfo.tm_mon = ymd.month - 1;
   d5e4c:	9307      	str	r3, [sp, #28]
    timeInfo.tm_mday += numberOfDays;
   d5e4e:	9506      	str	r5, [sp, #24]
    return mktime(pTimeInfo);
   d5e50:	f003 f86e 	bl	d8f30 <mktime>
    LocalTime::timeToTm(time, &timeInfo);
   d5e54:	e9cd 0100 	strd	r0, r1, [sp]
    localtime_r(&time, pTimeInfo);
   d5e58:	a903      	add	r1, sp, #12
   d5e5a:	4668      	mov	r0, sp
   d5e5c:	f003 f858 	bl	d8f10 <localtime_r>
    fromTimeInfo(&timeInfo);
   d5e60:	a903      	add	r1, sp, #12
   d5e62:	4620      	mov	r0, r4
   d5e64:	f7ff ffab 	bl	d5dbe <_ZN12LocalTimeYMD12fromTimeInfoEPK2tm>
}
   d5e68:	b00d      	add	sp, #52	; 0x34
   d5e6a:	bd30      	pop	{r4, r5, pc}

000d5e6c <_ZNK12LocalTimeYMD9compareToES_>:
    if (ymd.year < other.ymd.year) {
   d5e6c:	6803      	ldr	r3, [r0, #0]
   d5e6e:	f3c1 0216 	ubfx	r2, r1, #0, #23
   d5e72:	f3c3 0316 	ubfx	r3, r3, #0, #23
   d5e76:	4293      	cmp	r3, r2
   d5e78:	d313      	bcc.n	d5ea2 <_ZNK12LocalTimeYMD9compareToES_+0x36>
    if (ymd.year > other.ymd.year) {
   d5e7a:	d810      	bhi.n	d5e9e <_ZNK12LocalTimeYMD9compareToES_+0x32>
        if (ymd.month < other.ymd.month) {
   d5e7c:	8842      	ldrh	r2, [r0, #2]
   d5e7e:	f3c1 53c3 	ubfx	r3, r1, #23, #4
   d5e82:	f3c2 12c3 	ubfx	r2, r2, #7, #4
   d5e86:	429a      	cmp	r2, r3
   d5e88:	d30b      	bcc.n	d5ea2 <_ZNK12LocalTimeYMD9compareToES_+0x36>
        if (ymd.month > other.ymd.month) {
   d5e8a:	d808      	bhi.n	d5e9e <_ZNK12LocalTimeYMD9compareToES_+0x32>
            if (ymd.day < other.ymd.day) {
   d5e8c:	78c3      	ldrb	r3, [r0, #3]
   d5e8e:	08db      	lsrs	r3, r3, #3
   d5e90:	ebb3 6fd1 	cmp.w	r3, r1, lsr #27
   d5e94:	d305      	bcc.n	d5ea2 <_ZNK12LocalTimeYMD9compareToES_+0x36>
            if (ymd.day > other.ymd.day) {
   d5e96:	bf8c      	ite	hi
   d5e98:	2001      	movhi	r0, #1
   d5e9a:	2000      	movls	r0, #0
   d5e9c:	4770      	bx	lr
        cmp = +1;
   d5e9e:	2001      	movs	r0, #1
   d5ea0:	4770      	bx	lr
        cmp = -1;
   d5ea2:	f04f 30ff 	mov.w	r0, #4294967295	; 0xffffffff
}
   d5ea6:	4770      	bx	lr

000d5ea8 <_ZN12LocalTimeHMSC1Ev>:
LocalTimeHMS::LocalTimeHMS() {
   d5ea8:	4a02      	ldr	r2, [pc, #8]	; (d5eb4 <_ZN12LocalTimeHMSC1Ev+0xc>)
   d5eaa:	6002      	str	r2, [r0, #0]
   d5eac:	2200      	movs	r2, #0
   d5eae:	6042      	str	r2, [r0, #4]
}
   d5eb0:	4770      	bx	lr
   d5eb2:	bf00      	nop
   d5eb4:	000dd4d0 	.word	0x000dd4d0

000d5eb8 <_ZN12LocalTimeHMS5parseEPKc>:
void LocalTimeHMS::parse(const char *str) {
   d5eb8:	b530      	push	{r4, r5, lr}
    hour = minute = second = 0;
   d5eba:	2300      	movs	r3, #0
void LocalTimeHMS::parse(const char *str) {
   d5ebc:	b087      	sub	sp, #28
    hour = minute = second = 0;
   d5ebe:	8083      	strh	r3, [r0, #4]
   d5ec0:	7183      	strb	r3, [r0, #6]
void LocalTimeHMS::parse(const char *str) {
   d5ec2:	460d      	mov	r5, r1
    if (sscanf(str, "%d:%d:%d", &values[0], &values[1], &values[2]) == 3) {
   d5ec4:	ab05      	add	r3, sp, #20
   d5ec6:	9300      	str	r3, [sp, #0]
   d5ec8:	4913      	ldr	r1, [pc, #76]	; (d5f18 <_ZN12LocalTimeHMS5parseEPKc+0x60>)
void LocalTimeHMS::parse(const char *str) {
   d5eca:	4604      	mov	r4, r0
    if (sscanf(str, "%d:%d:%d", &values[0], &values[1], &values[2]) == 3) {
   d5ecc:	ab04      	add	r3, sp, #16
   d5ece:	aa03      	add	r2, sp, #12
   d5ed0:	4628      	mov	r0, r5
   d5ed2:	f002 ffe5 	bl	d8ea0 <sscanf>
   d5ed6:	2803      	cmp	r0, #3
   d5ed8:	d107      	bne.n	d5eea <_ZN12LocalTimeHMS5parseEPKc+0x32>
        hour = (int8_t) values[0];    
   d5eda:	9b03      	ldr	r3, [sp, #12]
   d5edc:	7123      	strb	r3, [r4, #4]
        minute = (int8_t) values[1];    
   d5ede:	9b04      	ldr	r3, [sp, #16]
   d5ee0:	7163      	strb	r3, [r4, #5]
        second = (int8_t) values[2];    
   d5ee2:	9b05      	ldr	r3, [sp, #20]
   d5ee4:	71a3      	strb	r3, [r4, #6]
}
   d5ee6:	b007      	add	sp, #28
   d5ee8:	bd30      	pop	{r4, r5, pc}
    if (sscanf(str, "%d:%d", &values[0], &values[1]) == 2) {
   d5eea:	490c      	ldr	r1, [pc, #48]	; (d5f1c <_ZN12LocalTimeHMS5parseEPKc+0x64>)
   d5eec:	ab04      	add	r3, sp, #16
   d5eee:	aa03      	add	r2, sp, #12
   d5ef0:	4628      	mov	r0, r5
   d5ef2:	f002 ffd5 	bl	d8ea0 <sscanf>
   d5ef6:	2802      	cmp	r0, #2
   d5ef8:	d104      	bne.n	d5f04 <_ZN12LocalTimeHMS5parseEPKc+0x4c>
        hour = (int8_t) values[0];    
   d5efa:	9b03      	ldr	r3, [sp, #12]
   d5efc:	7123      	strb	r3, [r4, #4]
        minute = (int8_t) values[1];    
   d5efe:	9b04      	ldr	r3, [sp, #16]
   d5f00:	7163      	strb	r3, [r4, #5]
   d5f02:	e7f0      	b.n	d5ee6 <_ZN12LocalTimeHMS5parseEPKc+0x2e>
    if (sscanf(str, "%d", &values[0]) == 1) {
   d5f04:	4906      	ldr	r1, [pc, #24]	; (d5f20 <_ZN12LocalTimeHMS5parseEPKc+0x68>)
   d5f06:	aa03      	add	r2, sp, #12
   d5f08:	4628      	mov	r0, r5
   d5f0a:	f002 ffc9 	bl	d8ea0 <sscanf>
   d5f0e:	2801      	cmp	r0, #1
        hour = (int8_t) values[0];    
   d5f10:	bf04      	itt	eq
   d5f12:	9b03      	ldreq	r3, [sp, #12]
   d5f14:	7123      	strbeq	r3, [r4, #4]
}
   d5f16:	e7e6      	b.n	d5ee6 <_ZN12LocalTimeHMS5parseEPKc+0x2e>
   d5f18:	000dd468 	.word	0x000dd468
   d5f1c:	000dd46b 	.word	0x000dd46b
   d5f20:	000dd2eb 	.word	0x000dd2eb

000d5f24 <_ZN12LocalTimeHMSC1EPKc>:
LocalTimeHMS::LocalTimeHMS(const char *str) {
   d5f24:	b510      	push	{r4, lr}
   d5f26:	4b04      	ldr	r3, [pc, #16]	; (d5f38 <_ZN12LocalTimeHMSC1EPKc+0x14>)
   d5f28:	6003      	str	r3, [r0, #0]
   d5f2a:	2300      	movs	r3, #0
   d5f2c:	4604      	mov	r4, r0
   d5f2e:	6043      	str	r3, [r0, #4]
    parse(str);
   d5f30:	f7ff ffc2 	bl	d5eb8 <_ZN12LocalTimeHMS5parseEPKc>
}
   d5f34:	4620      	mov	r0, r4
   d5f36:	bd10      	pop	{r4, pc}
   d5f38:	000dd4d0 	.word	0x000dd4d0

000d5f3c <_ZN21LocalTimeScheduleItemC1Ev>:
    LocalTimeScheduleItem() {
   d5f3c:	b538      	push	{r3, r4, r5, lr}
	: _M_start(), _M_finish(), _M_end_of_storage()
   d5f3e:	2500      	movs	r5, #0
    LocalTimeDayOfWeek(uint8_t mask) : dayOfWeekMask(mask) {
   d5f40:	237f      	movs	r3, #127	; 0x7f
    LocalTimeScheduleItem() {
   d5f42:	4604      	mov	r4, r0
    LocalTimeDayOfWeek(uint8_t mask) : dayOfWeekMask(mask) {
   d5f44:	7003      	strb	r3, [r0, #0]
   d5f46:	e9c0 5501 	strd	r5, r5, [r0, #4]
   d5f4a:	e9c0 5503 	strd	r5, r5, [r0, #12]
   d5f4e:	e9c0 5505 	strd	r5, r5, [r0, #20]
    LocalTimeRange() : LocalTimeRestrictedDate(LocalTimeDayOfWeek::MASK_ALL), hmsStart(LocalTimeHMS("00:00:00")), hmsEnd(LocalTimeHMS("23:59:59")) {
   d5f52:	490a      	ldr	r1, [pc, #40]	; (d5f7c <_ZN21LocalTimeScheduleItemC1Ev+0x40>)
   d5f54:	301c      	adds	r0, #28
   d5f56:	f7ff ffe5 	bl	d5f24 <_ZN12LocalTimeHMSC1EPKc>
   d5f5a:	4909      	ldr	r1, [pc, #36]	; (d5f80 <_ZN21LocalTimeScheduleItemC1Ev+0x44>)
   d5f5c:	f104 0024 	add.w	r0, r4, #36	; 0x24
   d5f60:	f7ff ffe0 	bl	d5f24 <_ZN12LocalTimeHMSC1EPKc>
    LocalTimeScheduleItem() {
   d5f64:	e9c4 550b 	strd	r5, r5, [r4, #44]	; 0x2c
   d5f68:	4906      	ldr	r1, [pc, #24]	; (d5f84 <_ZN21LocalTimeScheduleItemC1Ev+0x48>)
   d5f6a:	6365      	str	r5, [r4, #52]	; 0x34
   d5f6c:	f104 0038 	add.w	r0, r4, #56	; 0x38
   d5f70:	f005 faab 	bl	db4ca <_ZN6StringC1EPKc>
   d5f74:	64a5      	str	r5, [r4, #72]	; 0x48
    }
   d5f76:	4620      	mov	r0, r4
   d5f78:	bd38      	pop	{r3, r4, r5, pc}
   d5f7a:	bf00      	nop
   d5f7c:	000dd471 	.word	0x000dd471
   d5f80:	000dd47a 	.word	0x000dd47a
   d5f84:	000dd935 	.word	0x000dd935

000d5f88 <_ZNK12LocalTimeHMS9toSecondsEv>:
    if (hour < 0) {
   d5f88:	f990 3004 	ldrsb.w	r3, [r0, #4]
   d5f8c:	f990 2005 	ldrsb.w	r2, [r0, #5]
   d5f90:	f990 1006 	ldrsb.w	r1, [r0, #6]
   d5f94:	2b00      	cmp	r3, #0
        return - (((int)hour) * -3600 + ((int)minute) * 60 + (int) second);
   d5f96:	bfb8      	it	lt
   d5f98:	4808      	ldrlt	r0, [pc, #32]	; (d5fbc <_ZNK12LocalTimeHMS9toSecondsEv+0x34>)
   d5f9a:	ebc2 1202 	rsb	r2, r2, r2, lsl #4
   d5f9e:	ea4f 0282 	mov.w	r2, r2, lsl #2
   d5fa2:	bfbd      	ittte	lt
   d5fa4:	fb00 2003 	mlalt	r0, r0, r3, r2
   d5fa8:	1840      	addlt	r0, r0, r1
   d5faa:	4240      	neglt	r0, r0
        return ((int)hour) * 3600 + ((int)minute) * 60 + (int) second;
   d5fac:	f44f 6061 	movge.w	r0, #3600	; 0xe10
   d5fb0:	bfa4      	itt	ge
   d5fb2:	fb00 2303 	mlage	r3, r0, r3, r2
   d5fb6:	1858      	addge	r0, r3, r1
}
   d5fb8:	4770      	bx	lr
   d5fba:	bf00      	nop
   d5fbc:	fffff1f0 	.word	0xfffff1f0

000d5fc0 <_ZNK12LocalTimeHMS10toTimeInfoEP2tm>:
    if (!ignore) {
   d5fc0:	f990 3007 	ldrsb.w	r3, [r0, #7]
   d5fc4:	b943      	cbnz	r3, d5fd8 <_ZNK12LocalTimeHMS10toTimeInfoEP2tm+0x18>
        pTimeInfo->tm_hour = hour;
   d5fc6:	f990 3004 	ldrsb.w	r3, [r0, #4]
   d5fca:	608b      	str	r3, [r1, #8]
        pTimeInfo->tm_min = minute;
   d5fcc:	f990 3005 	ldrsb.w	r3, [r0, #5]
   d5fd0:	604b      	str	r3, [r1, #4]
        pTimeInfo->tm_sec = second;
   d5fd2:	f990 3006 	ldrsb.w	r3, [r0, #6]
   d5fd6:	600b      	str	r3, [r1, #0]
}
   d5fd8:	4770      	bx	lr

000d5fda <_ZNK12LocalTimeHMS14adjustTimeInfoEP2tm>:
    if (!ignore) {
   d5fda:	f990 3007 	ldrsb.w	r3, [r0, #7]
void LocalTimeHMS::adjustTimeInfo(struct tm *pTimeInfo) const {
   d5fde:	b530      	push	{r4, r5, lr}
    if (!ignore) {
   d5fe0:	b9b3      	cbnz	r3, d6010 <_ZNK12LocalTimeHMS14adjustTimeInfoEP2tm+0x36>
        if (hour < 0) {
   d5fe2:	f990 5004 	ldrsb.w	r5, [r0, #4]
   d5fe6:	688c      	ldr	r4, [r1, #8]
   d5fe8:	442c      	add	r4, r5
   d5fea:	e9d1 3200 	ldrd	r3, r2, [r1]
            pTimeInfo->tm_hour += hour;
   d5fee:	608c      	str	r4, [r1, #8]
            pTimeInfo->tm_min -= minute;
   d5ff0:	f990 4005 	ldrsb.w	r4, [r0, #5]
        if (hour < 0) {
   d5ff4:	2d00      	cmp	r5, #0
            pTimeInfo->tm_min -= minute;
   d5ff6:	bfb5      	itete	lt
   d5ff8:	1b12      	sublt	r2, r2, r4
            pTimeInfo->tm_min += minute;
   d5ffa:	1912      	addge	r2, r2, r4
            pTimeInfo->tm_min -= minute;
   d5ffc:	604a      	strlt	r2, [r1, #4]
            pTimeInfo->tm_min += minute;
   d5ffe:	604a      	strge	r2, [r1, #4]
            pTimeInfo->tm_sec -= second;
   d6000:	bfb5      	itete	lt
   d6002:	f990 2006 	ldrsblt.w	r2, [r0, #6]
            pTimeInfo->tm_sec += second;
   d6006:	f990 2006 	ldrsbge.w	r2, [r0, #6]
            pTimeInfo->tm_sec -= second;
   d600a:	1a9b      	sublt	r3, r3, r2
            pTimeInfo->tm_sec += second;
   d600c:	189b      	addge	r3, r3, r2
   d600e:	600b      	str	r3, [r1, #0]
}
   d6010:	bd30      	pop	{r4, r5, pc}

000d6012 <_ZNK23LocalTimeRestrictedDate13inOnlyOnDatesE12LocalTimeYMD>:
bool LocalTimeRestrictedDate::inOnlyOnDates(LocalTimeYMD ymd) const {
   d6012:	b538      	push	{r3, r4, r5, lr}
   d6014:	6844      	ldr	r4, [r0, #4]
   d6016:	4605      	mov	r5, r0
    for(auto it = onlyOnDates.begin(); it != onlyOnDates.end(); ++it) {
   d6018:	68ab      	ldr	r3, [r5, #8]
   d601a:	42a3      	cmp	r3, r4
   d601c:	d007      	beq.n	d602e <_ZNK23LocalTimeRestrictedDate13inOnlyOnDatesE12LocalTimeYMD+0x1c>
        return compareTo(other) == 0; 
   d601e:	4620      	mov	r0, r4
   d6020:	f7ff ff24 	bl	d5e6c <_ZNK12LocalTimeYMD9compareToES_>
   d6024:	3404      	adds	r4, #4
        if (*it == ymd) {
   d6026:	2800      	cmp	r0, #0
   d6028:	d1f6      	bne.n	d6018 <_ZNK23LocalTimeRestrictedDate13inOnlyOnDatesE12LocalTimeYMD+0x6>
            return true;
   d602a:	2001      	movs	r0, #1
}
   d602c:	bd38      	pop	{r3, r4, r5, pc}
    return false;
   d602e:	2000      	movs	r0, #0
   d6030:	e7fc      	b.n	d602c <_ZNK23LocalTimeRestrictedDate13inOnlyOnDatesE12LocalTimeYMD+0x1a>

000d6032 <_ZNK23LocalTimeRestrictedDate13inExceptDatesE12LocalTimeYMD>:
bool LocalTimeRestrictedDate::inExceptDates(LocalTimeYMD ymd) const {
   d6032:	b538      	push	{r3, r4, r5, lr}
   d6034:	6904      	ldr	r4, [r0, #16]
   d6036:	4605      	mov	r5, r0
    for(auto it = exceptDates.begin(); it != exceptDates.end(); ++it) {
   d6038:	696b      	ldr	r3, [r5, #20]
   d603a:	42a3      	cmp	r3, r4
   d603c:	d007      	beq.n	d604e <_ZNK23LocalTimeRestrictedDate13inExceptDatesE12LocalTimeYMD+0x1c>
   d603e:	4620      	mov	r0, r4
   d6040:	f7ff ff14 	bl	d5e6c <_ZNK12LocalTimeYMD9compareToES_>
   d6044:	3404      	adds	r4, #4
        if (*it == ymd) {
   d6046:	2800      	cmp	r0, #0
   d6048:	d1f6      	bne.n	d6038 <_ZNK23LocalTimeRestrictedDate13inExceptDatesE12LocalTimeYMD+0x6>
            return true;
   d604a:	2001      	movs	r0, #1
}
   d604c:	bd38      	pop	{r3, r4, r5, pc}
    return false;
   d604e:	2000      	movs	r0, #0
   d6050:	e7fc      	b.n	d604c <_ZNK23LocalTimeRestrictedDate13inExceptDatesE12LocalTimeYMD+0x1a>

000d6052 <_ZNK23LocalTimeRestrictedDate7isValidE12LocalTimeYMD>:
bool LocalTimeRestrictedDate::isValid(LocalTimeYMD ymd) const {
   d6052:	b573      	push	{r0, r1, r4, r5, r6, lr}
   d6054:	4605      	mov	r5, r0
   d6056:	460e      	mov	r6, r1
    if (inExceptDates(ymd)) {
   d6058:	f7ff ffeb 	bl	d6032 <_ZNK23LocalTimeRestrictedDate13inExceptDatesE12LocalTimeYMD>
   d605c:	b990      	cbnz	r0, d6084 <_ZNK23LocalTimeRestrictedDate7isValidE12LocalTimeYMD+0x32>
        int dayOfWeek = ymd.getDayOfWeek();
   d605e:	a801      	add	r0, sp, #4
   d6060:	9101      	str	r1, [sp, #4]
   d6062:	f7ff febe 	bl	d5de2 <_ZNK12LocalTimeYMD12getDayOfWeekEv>
        return (dayOfWeekMask & (1 << dayOfWeek)) != 0;
   d6066:	782b      	ldrb	r3, [r5, #0]
        bool isValidDates = inOnlyOnDates(ymd);
   d6068:	4631      	mov	r1, r6
   d606a:	fa43 f400 	asr.w	r4, r3, r0
   d606e:	4628      	mov	r0, r5
   d6070:	f7ff ffcf 	bl	d6012 <_ZNK23LocalTimeRestrictedDate13inOnlyOnDatesE12LocalTimeYMD>
   d6074:	f004 0401 	and.w	r4, r4, #1
        result = isValidDays || isValidDates;
   d6078:	2c00      	cmp	r4, #0
   d607a:	bf08      	it	eq
   d607c:	4604      	moveq	r4, r0
}
   d607e:	4620      	mov	r0, r4
   d6080:	b002      	add	sp, #8
   d6082:	bd70      	pop	{r4, r5, r6, pc}
        result = false;
   d6084:	2400      	movs	r4, #0
   d6086:	e7fa      	b.n	d607e <_ZNK23LocalTimeRestrictedDate7isValidE12LocalTimeYMD+0x2c>

000d6088 <_ZNK23LocalTimeRestrictedDate17getExpirationDateEv>:
LocalTimeYMD LocalTimeRestrictedDate::getExpirationDate() const {
   d6088:	e92d 43f8 	stmdb	sp!, {r3, r4, r5, r6, r7, r8, r9, lr}
        ymd.year = ymd.month = ymd.day = 0;
   d608c:	2400      	movs	r4, #0
   d608e:	6845      	ldr	r5, [r0, #4]
   d6090:	4680      	mov	r8, r0
   d6092:	4626      	mov	r6, r4
   d6094:	4627      	mov	r7, r4
    for(auto it = onlyOnDates.begin(); it != onlyOnDates.end(); ++it) {
   d6096:	f8d8 3008 	ldr.w	r3, [r8, #8]
   d609a:	429d      	cmp	r5, r3
   d609c:	d01e      	beq.n	d60dc <_ZNK23LocalTimeRestrictedDate17getExpirationDateEv+0x54>
        return ymd.year == 0 && ymd.month == 0 && ymd.day == 0;
   d609e:	f367 0916 	bfi	r9, r7, #0, #23
   d60a2:	f366 59da 	bfi	r9, r6, #23, #4
   d60a6:	f364 69df 	bfi	r9, r4, #27, #5
        if (result.isEmpty() || *it > result) {
   d60aa:	f1b9 0f00 	cmp.w	r9, #0
   d60ae:	d109      	bne.n	d60c4 <_ZNK23LocalTimeRestrictedDate17getExpirationDateEv+0x3c>
            result = *it;
   d60b0:	682f      	ldr	r7, [r5, #0]
   d60b2:	886e      	ldrh	r6, [r5, #2]
   d60b4:	78ec      	ldrb	r4, [r5, #3]
   d60b6:	f3c7 0716 	ubfx	r7, r7, #0, #23
   d60ba:	f3c6 16c3 	ubfx	r6, r6, #7, #4
   d60be:	08e4      	lsrs	r4, r4, #3
      pointer
      operator->() const _GLIBCXX_NOEXCEPT
      { return _M_current; }

      __normal_iterator&
      operator++() _GLIBCXX_NOEXCEPT
   d60c0:	3504      	adds	r5, #4
      {
	++_M_current;
	return *this;
   d60c2:	e7e8      	b.n	d6096 <_ZNK23LocalTimeRestrictedDate17getExpirationDateEv+0xe>
   d60c4:	f367 0116 	bfi	r1, r7, #0, #23
   d60c8:	f366 51da 	bfi	r1, r6, #23, #4
   d60cc:	f364 61df 	bfi	r1, r4, #27, #5
        return compareTo(other) > 0; 
   d60d0:	4628      	mov	r0, r5
   d60d2:	f7ff fecb 	bl	d5e6c <_ZNK12LocalTimeYMD9compareToES_>
        if (result.isEmpty() || *it > result) {
   d60d6:	2800      	cmp	r0, #0
   d60d8:	dcea      	bgt.n	d60b0 <_ZNK23LocalTimeRestrictedDate17getExpirationDateEv+0x28>
   d60da:	e7f1      	b.n	d60c0 <_ZNK23LocalTimeRestrictedDate17getExpirationDateEv+0x38>
    return result;
   d60dc:	2000      	movs	r0, #0
   d60de:	f367 0016 	bfi	r0, r7, #0, #23
   d60e2:	f366 50da 	bfi	r0, r6, #23, #4
   d60e6:	f364 60df 	bfi	r0, r4, #27, #5
}
   d60ea:	e8bd 83f8 	ldmia.w	sp!, {r3, r4, r5, r6, r7, r8, r9, pc}
	...

000d60f0 <_ZN15LocalTimeChangeC1Ev>:
LocalTimeChange::LocalTimeChange() {
   d60f0:	4a05      	ldr	r2, [pc, #20]	; (d6108 <_ZN15LocalTimeChangeC1Ev+0x18>)
   d60f2:	b508      	push	{r3, lr}
   d60f4:	6002      	str	r2, [r0, #0]
   d60f6:	2200      	movs	r2, #0
   d60f8:	4603      	mov	r3, r0
   d60fa:	6042      	str	r2, [r0, #4]
   d60fc:	3008      	adds	r0, #8
   d60fe:	f7ff fed3 	bl	d5ea8 <_ZN12LocalTimeHMSC1Ev>
}
   d6102:	4618      	mov	r0, r3
   d6104:	bd08      	pop	{r3, pc}
   d6106:	bf00      	nop
   d6108:	000dd4e0 	.word	0x000dd4e0

000d610c <_ZN15LocalTimeChange5clearEv>:
    month = week = dayOfWeek = valid = 0;
   d610c:	2300      	movs	r3, #0
   d610e:	6043      	str	r3, [r0, #4]
    hour = minute = second = 0;
   d6110:	8183      	strh	r3, [r0, #12]
   d6112:	7383      	strb	r3, [r0, #14]
}
   d6114:	4770      	bx	lr
	...

000d6118 <_ZN15LocalTimeChange5parseEPKc>:
void LocalTimeChange::parse(const char *str) {
   d6118:	b530      	push	{r4, r5, lr}
   d611a:	4604      	mov	r4, r0
   d611c:	b087      	sub	sp, #28
    if (!str || str[0] != 'M') {
   d611e:	460d      	mov	r5, r1
   d6120:	b111      	cbz	r1, d6128 <_ZN15LocalTimeChange5parseEPKc+0x10>
   d6122:	780b      	ldrb	r3, [r1, #0]
   d6124:	2b4d      	cmp	r3, #77	; 0x4d
   d6126:	d003      	beq.n	d6130 <_ZN15LocalTimeChange5parseEPKc+0x18>
        clear();
   d6128:	4620      	mov	r0, r4
   d612a:	f7ff ffef 	bl	d610c <_ZN15LocalTimeChange5clearEv>
   d612e:	e01b      	b.n	d6168 <_ZN15LocalTimeChange5parseEPKc+0x50>
    if (sscanf(str, "M%d.%d.%d", &values[0], &values[1], &values[2]) == 3) {
   d6130:	ab05      	add	r3, sp, #20
   d6132:	9300      	str	r3, [sp, #0]
   d6134:	490f      	ldr	r1, [pc, #60]	; (d6174 <_ZN15LocalTimeChange5parseEPKc+0x5c>)
   d6136:	ab04      	add	r3, sp, #16
   d6138:	aa03      	add	r2, sp, #12
   d613a:	4628      	mov	r0, r5
   d613c:	f002 feb0 	bl	d8ea0 <sscanf>
   d6140:	2803      	cmp	r0, #3
   d6142:	d1f1      	bne.n	d6128 <_ZN15LocalTimeChange5parseEPKc+0x10>
        month = (int8_t) values[0];
   d6144:	9b03      	ldr	r3, [sp, #12]
   d6146:	7123      	strb	r3, [r4, #4]
        week = (int8_t) values[1];
   d6148:	9b04      	ldr	r3, [sp, #16]
   d614a:	7163      	strb	r3, [r4, #5]
        dayOfWeek = (int8_t) values[2];
   d614c:	9b05      	ldr	r3, [sp, #20]
   d614e:	71a3      	strb	r3, [r4, #6]
        const char *cp = strchr(str, '/');
   d6150:	212f      	movs	r1, #47	; 0x2f
   d6152:	4628      	mov	r0, r5
   d6154:	f006 fc26 	bl	dc9a4 <strchr>
        if (cp) {
   d6158:	b140      	cbz	r0, d616c <_ZN15LocalTimeChange5parseEPKc+0x54>
            hms.parse(cp);
   d615a:	1c41      	adds	r1, r0, #1
   d615c:	f104 0008 	add.w	r0, r4, #8
   d6160:	f7ff feaa 	bl	d5eb8 <_ZN12LocalTimeHMS5parseEPKc>
        valid = true;
   d6164:	2301      	movs	r3, #1
   d6166:	71e3      	strb	r3, [r4, #7]
}
   d6168:	b007      	add	sp, #28
   d616a:	bd30      	pop	{r4, r5, pc}
    hour = minute = second = 0;
   d616c:	81a0      	strh	r0, [r4, #12]
   d616e:	73a0      	strb	r0, [r4, #14]
}
   d6170:	e7f8      	b.n	d6164 <_ZN15LocalTimeChange5parseEPKc+0x4c>
   d6172:	bf00      	nop
   d6174:	000dd483 	.word	0x000dd483

000d6178 <_ZN22LocalTimePosixTimezoneC1Ev>:
LocalTimePosixTimezone::LocalTimePosixTimezone() {
   d6178:	4b10      	ldr	r3, [pc, #64]	; (d61bc <_ZN22LocalTimePosixTimezoneC1Ev+0x44>)
   d617a:	4911      	ldr	r1, [pc, #68]	; (d61c0 <_ZN22LocalTimePosixTimezoneC1Ev+0x48>)
   d617c:	b510      	push	{r4, lr}
   d617e:	4604      	mov	r4, r0
   d6180:	f840 3b04 	str.w	r3, [r0], #4
   d6184:	f005 f9a1 	bl	db4ca <_ZN6StringC1EPKc>
   d6188:	f104 0014 	add.w	r0, r4, #20
   d618c:	f7ff fe8c 	bl	d5ea8 <_ZN12LocalTimeHMSC1Ev>
   d6190:	490b      	ldr	r1, [pc, #44]	; (d61c0 <_ZN22LocalTimePosixTimezoneC1Ev+0x48>)
   d6192:	f104 001c 	add.w	r0, r4, #28
   d6196:	f005 f998 	bl	db4ca <_ZN6StringC1EPKc>
   d619a:	f104 002c 	add.w	r0, r4, #44	; 0x2c
   d619e:	f7ff fe83 	bl	d5ea8 <_ZN12LocalTimeHMSC1Ev>
   d61a2:	f104 0034 	add.w	r0, r4, #52	; 0x34
   d61a6:	f7ff ffa3 	bl	d60f0 <_ZN15LocalTimeChangeC1Ev>
   d61aa:	f104 0044 	add.w	r0, r4, #68	; 0x44
   d61ae:	f7ff ff9f 	bl	d60f0 <_ZN15LocalTimeChangeC1Ev>
   d61b2:	2300      	movs	r3, #0
   d61b4:	f884 3054 	strb.w	r3, [r4, #84]	; 0x54
}
   d61b8:	4620      	mov	r0, r4
   d61ba:	bd10      	pop	{r4, pc}
   d61bc:	000dd4f0 	.word	0x000dd4f0
   d61c0:	000dd935 	.word	0x000dd935

000d61c4 <_ZN22LocalTimePosixTimezone5parseEPKc>:
bool LocalTimePosixTimezone::parse(const char *str) {
   d61c4:	e92d 4ff7 	stmdb	sp!, {r0, r1, r2, r4, r5, r6, r7, r8, r9, sl, fp, lr}
   d61c8:	4604      	mov	r4, r0
    char *mutableCopy = strdup(str);
   d61ca:	4608      	mov	r0, r1
   d61cc:	f006 fc14 	bl	dc9f8 <strdup>
    size_t ii = 0;
   d61d0:	2500      	movs	r5, #0
    char *mutableCopy = strdup(str);
   d61d2:	4606      	mov	r6, r0
    char *token, *save = mutableCopy;
   d61d4:	9001      	str	r0, [sp, #4]
                dstStart.parse(token);
   d61d6:	f104 0834 	add.w	r8, r4, #52	; 0x34
    while((token = strtok_r(save, ",", &save)) != 0) {
   d61da:	493f      	ldr	r1, [pc, #252]	; (d62d8 <_ZN22LocalTimePosixTimezone5parseEPKc+0x114>)
   d61dc:	9801      	ldr	r0, [sp, #4]
   d61de:	aa01      	add	r2, sp, #4
   d61e0:	f006 fc90 	bl	dcb04 <strtok_r>
   d61e4:	4601      	mov	r1, r0
   d61e6:	2800      	cmp	r0, #0
   d61e8:	d062      	beq.n	d62b0 <_ZN22LocalTimePosixTimezone5parseEPKc+0xec>
        switch(ii++) {
   d61ea:	2d01      	cmp	r5, #1
   d61ec:	f105 0301 	add.w	r3, r5, #1
   d61f0:	d053      	beq.n	d629a <_ZN22LocalTimePosixTimezone5parseEPKc+0xd6>
   d61f2:	2d02      	cmp	r5, #2
   d61f4:	d056      	beq.n	d62a4 <_ZN22LocalTimePosixTimezone5parseEPKc+0xe0>
   d61f6:	2d00      	cmp	r5, #0
   d61f8:	d146      	bne.n	d6288 <_ZN22LocalTimePosixTimezone5parseEPKc+0xc4>
   d61fa:	4602      	mov	r2, r0
                while(*cp >= 'A') {
   d61fc:	f892 9000 	ldrb.w	r9, [r2]
   d6200:	f1b9 0f40 	cmp.w	r9, #64	; 0x40
   d6204:	4615      	mov	r5, r2
   d6206:	4617      	mov	r7, r2
   d6208:	f102 0201 	add.w	r2, r2, #1
   d620c:	d8f6      	bhi.n	d61fc <_ZN22LocalTimePosixTimezone5parseEPKc+0x38>
                *cp = 0;
   d620e:	2200      	movs	r2, #0
   d6210:	702a      	strb	r2, [r5, #0]
                standardName = start;
   d6212:	f104 001c 	add.w	r0, r4, #28
   d6216:	f005 f9ae 	bl	db576 <_ZN6StringaSEPKc>
                valid = true;
   d621a:	2201      	movs	r2, #1
                *cp = save2;
   d621c:	f885 9000 	strb.w	r9, [r5]
                valid = true;
   d6220:	f884 2054 	strb.w	r2, [r4, #84]	; 0x54
                if (*cp) {
   d6224:	782a      	ldrb	r2, [r5, #0]
   d6226:	b36a      	cbz	r2, d6284 <_ZN22LocalTimePosixTimezone5parseEPKc+0xc0>
                    while(*cp && *cp < 'A') {
   d6228:	f897 a000 	ldrb.w	sl, [r7]
   d622c:	f10a 32ff 	add.w	r2, sl, #4294967295	; 0xffffffff
   d6230:	2a3f      	cmp	r2, #63	; 0x3f
   d6232:	46b9      	mov	r9, r7
   d6234:	46bb      	mov	fp, r7
   d6236:	f107 0701 	add.w	r7, r7, #1
   d623a:	d9f5      	bls.n	d6228 <_ZN22LocalTimePosixTimezone5parseEPKc+0x64>
                    *cp = 0;
   d623c:	2300      	movs	r3, #0
                    standardHMS.parse(start);
   d623e:	f104 072c 	add.w	r7, r4, #44	; 0x2c
                    *cp = 0;
   d6242:	f889 3000 	strb.w	r3, [r9]
                    standardHMS.parse(start);
   d6246:	4629      	mov	r1, r5
   d6248:	4638      	mov	r0, r7
   d624a:	f7ff fe35 	bl	d5eb8 <_ZN12LocalTimeHMS5parseEPKc>
                    *cp = save2;
   d624e:	f889 a000 	strb.w	sl, [r9]
                    if (*cp) {
   d6252:	f1ba 0f00 	cmp.w	sl, #0
   d6256:	d015      	beq.n	d6284 <_ZN22LocalTimePosixTimezone5parseEPKc+0xc0>
   d6258:	465d      	mov	r5, fp
                        while(*cp && *cp >= 'A') {
   d625a:	f81b ab01 	ldrb.w	sl, [fp], #1
   d625e:	f1ba 0f40 	cmp.w	sl, #64	; 0x40
   d6262:	d8f9      	bhi.n	d6258 <_ZN22LocalTimePosixTimezone5parseEPKc+0x94>
                        *cp = 0;
   d6264:	2200      	movs	r2, #0
   d6266:	702a      	strb	r2, [r5, #0]
                        dstName = start;
   d6268:	4649      	mov	r1, r9
   d626a:	1d20      	adds	r0, r4, #4
   d626c:	f005 f983 	bl	db576 <_ZN6StringaSEPKc>
                        *cp = save2;
   d6270:	f885 a000 	strb.w	sl, [r5]
                        if (*cp) {
   d6274:	f104 0014 	add.w	r0, r4, #20
   d6278:	f1ba 0f00 	cmp.w	sl, #0
   d627c:	d006      	beq.n	d628c <_ZN22LocalTimePosixTimezone5parseEPKc+0xc8>
                            dstHMS.parse(start);
   d627e:	4629      	mov	r1, r5
   d6280:	f7ff fe1a 	bl	d5eb8 <_ZN12LocalTimeHMS5parseEPKc>
                            dstHMS.hour--;
   d6284:	2501      	movs	r5, #1
   d6286:	e7a8      	b.n	d61da <_ZN22LocalTimePosixTimezone5parseEPKc+0x16>
        switch(ii++) {
   d6288:	461d      	mov	r5, r3
   d628a:	e7a6      	b.n	d61da <_ZN22LocalTimePosixTimezone5parseEPKc+0x16>
                            dstHMS = standardHMS;
   d628c:	4639      	mov	r1, r7
   d628e:	f7ff fd27 	bl	d5ce0 <_ZN12LocalTimeHMSaSERKS_>
                            dstHMS.hour--;
   d6292:	7e23      	ldrb	r3, [r4, #24]
   d6294:	3b01      	subs	r3, #1
   d6296:	7623      	strb	r3, [r4, #24]
   d6298:	e7f4      	b.n	d6284 <_ZN22LocalTimePosixTimezone5parseEPKc+0xc0>
                dstStart.parse(token);
   d629a:	4640      	mov	r0, r8
   d629c:	f7ff ff3c 	bl	d6118 <_ZN15LocalTimeChange5parseEPKc>
                break;
   d62a0:	2502      	movs	r5, #2
   d62a2:	e79a      	b.n	d61da <_ZN22LocalTimePosixTimezone5parseEPKc+0x16>
                standardStart.parse(token);
   d62a4:	f104 0044 	add.w	r0, r4, #68	; 0x44
   d62a8:	f7ff ff36 	bl	d6118 <_ZN15LocalTimeChange5parseEPKc>
                break;
   d62ac:	2503      	movs	r5, #3
   d62ae:	e794      	b.n	d61da <_ZN22LocalTimePosixTimezone5parseEPKc+0x16>
    if (dstStart.valid && !standardStart.valid) {
   d62b0:	f994 303b 	ldrsb.w	r3, [r4, #59]	; 0x3b
   d62b4:	b143      	cbz	r3, d62c8 <_ZN22LocalTimePosixTimezone5parseEPKc+0x104>
   d62b6:	f994 204b 	ldrsb.w	r2, [r4, #75]	; 0x4b
   d62ba:	b92a      	cbnz	r2, d62c8 <_ZN22LocalTimePosixTimezone5parseEPKc+0x104>
        dstStart.clear();
   d62bc:	f104 0034 	add.w	r0, r4, #52	; 0x34
   d62c0:	f7ff ff24 	bl	d610c <_ZN15LocalTimeChange5clearEv>
        valid = false;
   d62c4:	f884 2054 	strb.w	r2, [r4, #84]	; 0x54
    free(mutableCopy);
   d62c8:	4630      	mov	r0, r6
   d62ca:	f002 fdd1 	bl	d8e70 <free>
}
   d62ce:	f894 0054 	ldrb.w	r0, [r4, #84]	; 0x54
   d62d2:	b003      	add	sp, #12
   d62d4:	e8bd 8ff0 	ldmia.w	sp!, {r4, r5, r6, r7, r8, r9, sl, fp, pc}
   d62d8:	000dd48d 	.word	0x000dd48d

000d62dc <_ZN22LocalTimePosixTimezoneC1EPKc>:
LocalTimePosixTimezone::LocalTimePosixTimezone(const char *str) {
   d62dc:	b538      	push	{r3, r4, r5, lr}
   d62de:	4b13      	ldr	r3, [pc, #76]	; (d632c <_ZN22LocalTimePosixTimezoneC1EPKc+0x50>)
   d62e0:	4604      	mov	r4, r0
   d62e2:	460d      	mov	r5, r1
   d62e4:	f840 3b04 	str.w	r3, [r0], #4
   d62e8:	4911      	ldr	r1, [pc, #68]	; (d6330 <_ZN22LocalTimePosixTimezoneC1EPKc+0x54>)
   d62ea:	f005 f8ee 	bl	db4ca <_ZN6StringC1EPKc>
   d62ee:	f104 0014 	add.w	r0, r4, #20
   d62f2:	f7ff fdd9 	bl	d5ea8 <_ZN12LocalTimeHMSC1Ev>
   d62f6:	490e      	ldr	r1, [pc, #56]	; (d6330 <_ZN22LocalTimePosixTimezoneC1EPKc+0x54>)
   d62f8:	f104 001c 	add.w	r0, r4, #28
   d62fc:	f005 f8e5 	bl	db4ca <_ZN6StringC1EPKc>
   d6300:	f104 002c 	add.w	r0, r4, #44	; 0x2c
   d6304:	f7ff fdd0 	bl	d5ea8 <_ZN12LocalTimeHMSC1Ev>
   d6308:	f104 0034 	add.w	r0, r4, #52	; 0x34
   d630c:	f7ff fef0 	bl	d60f0 <_ZN15LocalTimeChangeC1Ev>
   d6310:	f104 0044 	add.w	r0, r4, #68	; 0x44
   d6314:	f7ff feec 	bl	d60f0 <_ZN15LocalTimeChangeC1Ev>
   d6318:	2300      	movs	r3, #0
   d631a:	f884 3054 	strb.w	r3, [r4, #84]	; 0x54
    parse(str);
   d631e:	4629      	mov	r1, r5
   d6320:	4620      	mov	r0, r4
   d6322:	f7ff ff4f 	bl	d61c4 <_ZN22LocalTimePosixTimezone5parseEPKc>
}
   d6326:	4620      	mov	r0, r4
   d6328:	bd38      	pop	{r3, r4, r5, pc}
   d632a:	bf00      	nop
   d632c:	000dd4f0 	.word	0x000dd4f0
   d6330:	000dd935 	.word	0x000dd935

000d6334 <_ZNK14LocalTimeValue3hmsEv>:
LocalTimeHMS LocalTimeValue::hms() const {
   d6334:	b508      	push	{r3, lr}
   d6336:	4603      	mov	r3, r0
    LocalTimeHMS result;
   d6338:	f7ff fdb6 	bl	d5ea8 <_ZN12LocalTimeHMSC1Ev>
    hour = (int8_t) pTimeInfo->tm_hour;
   d633c:	688a      	ldr	r2, [r1, #8]
   d633e:	711a      	strb	r2, [r3, #4]
    minute = (int8_t) pTimeInfo->tm_min;
   d6340:	684a      	ldr	r2, [r1, #4]
   d6342:	715a      	strb	r2, [r3, #5]
    second = (int8_t) pTimeInfo->tm_sec;
   d6344:	680a      	ldr	r2, [r1, #0]
   d6346:	719a      	strb	r2, [r3, #6]
}
   d6348:	4618      	mov	r0, r3
   d634a:	bd08      	pop	{r3, pc}

000d634c <_ZN12LocalTimeHMSC1ERK14LocalTimeValue>:
LocalTimeHMS::LocalTimeHMS(const LocalTimeValue &value) {
   d634c:	b513      	push	{r0, r1, r4, lr}
   d634e:	4b07      	ldr	r3, [pc, #28]	; (d636c <_ZN12LocalTimeHMSC1ERK14LocalTimeValue+0x20>)
   d6350:	6003      	str	r3, [r0, #0]
   d6352:	2300      	movs	r3, #0
   d6354:	4604      	mov	r4, r0
   d6356:	6043      	str	r3, [r0, #4]
    *this = value.hms();
   d6358:	4668      	mov	r0, sp
   d635a:	f7ff ffeb 	bl	d6334 <_ZNK14LocalTimeValue3hmsEv>
   d635e:	4669      	mov	r1, sp
   d6360:	4620      	mov	r0, r4
   d6362:	f7ff fcbd 	bl	d5ce0 <_ZN12LocalTimeHMSaSERKS_>
}
   d6366:	4620      	mov	r0, r4
   d6368:	b002      	add	sp, #8
   d636a:	bd10      	pop	{r4, pc}
   d636c:	000dd4d0 	.word	0x000dd4d0

000d6370 <_ZN14LocalTimeValue6setHMSE12LocalTimeHMS>:
    if (!hms.ignore) {
   d6370:	f991 3007 	ldrsb.w	r3, [r1, #7]
   d6374:	b943      	cbnz	r3, d6388 <_ZN14LocalTimeValue6setHMSE12LocalTimeHMS+0x18>
        tm_hour = hms.hour;
   d6376:	f991 3004 	ldrsb.w	r3, [r1, #4]
   d637a:	6083      	str	r3, [r0, #8]
        tm_min = hms.minute;
   d637c:	f991 3005 	ldrsb.w	r3, [r1, #5]
   d6380:	6043      	str	r3, [r0, #4]
        tm_sec = hms.second;
   d6382:	f991 3006 	ldrsb.w	r3, [r1, #6]
   d6386:	6003      	str	r3, [r0, #0]
}
   d6388:	4770      	bx	lr

000d638a <_ZNK14LocalTimeValue3ymdEv>:
LocalTimeYMD LocalTimeValue::ymd() const {
   d638a:	b507      	push	{r0, r1, r2, lr}
        ymd.year = ymd.month = ymd.day = 0;
   d638c:	2300      	movs	r3, #0
   d638e:	4601      	mov	r1, r0
    result.fromTimeInfo(this);
   d6390:	a801      	add	r0, sp, #4
   d6392:	9301      	str	r3, [sp, #4]
   d6394:	f7ff fd13 	bl	d5dbe <_ZN12LocalTimeYMD12fromTimeInfoEPK2tm>
}
   d6398:	9801      	ldr	r0, [sp, #4]
   d639a:	b003      	add	sp, #12
   d639c:	f85d fb04 	ldr.w	pc, [sp], #4

000d63a0 <_ZN22LocalTimePosixTimezoneC1ERKS_>:
class LocalTimePosixTimezone {
   d63a0:	4b19      	ldr	r3, [pc, #100]	; (d6408 <_ZN22LocalTimePosixTimezoneC1ERKS_+0x68>)
   d63a2:	b570      	push	{r4, r5, r6, lr}
   d63a4:	4604      	mov	r4, r0
   d63a6:	460d      	mov	r5, r1
   d63a8:	f840 3b04 	str.w	r3, [r0], #4
   d63ac:	3104      	adds	r1, #4
   d63ae:	f005 f8d7 	bl	db560 <_ZN6StringC1ERKS_>
   d63b2:	f105 0114 	add.w	r1, r5, #20
   d63b6:	f104 0014 	add.w	r0, r4, #20
   d63ba:	f7ff fc89 	bl	d5cd0 <_ZN12LocalTimeHMSC1ERKS_>
   d63be:	f105 011c 	add.w	r1, r5, #28
   d63c2:	f104 001c 	add.w	r0, r4, #28
   d63c6:	f005 f8cb 	bl	db560 <_ZN6StringC1ERKS_>
   d63ca:	f105 012c 	add.w	r1, r5, #44	; 0x2c
   d63ce:	f104 002c 	add.w	r0, r4, #44	; 0x2c
   d63d2:	f7ff fc7d 	bl	d5cd0 <_ZN12LocalTimeHMSC1ERKS_>
class LocalTimeChange {
   d63d6:	4e0d      	ldr	r6, [pc, #52]	; (d640c <_ZN22LocalTimePosixTimezoneC1ERKS_+0x6c>)
   d63d8:	6bab      	ldr	r3, [r5, #56]	; 0x38
   d63da:	63a3      	str	r3, [r4, #56]	; 0x38
   d63dc:	f105 013c 	add.w	r1, r5, #60	; 0x3c
   d63e0:	6366      	str	r6, [r4, #52]	; 0x34
   d63e2:	f104 003c 	add.w	r0, r4, #60	; 0x3c
   d63e6:	f7ff fc73 	bl	d5cd0 <_ZN12LocalTimeHMSC1ERKS_>
   d63ea:	6cab      	ldr	r3, [r5, #72]	; 0x48
   d63ec:	64a3      	str	r3, [r4, #72]	; 0x48
   d63ee:	6466      	str	r6, [r4, #68]	; 0x44
   d63f0:	f105 014c 	add.w	r1, r5, #76	; 0x4c
   d63f4:	f104 004c 	add.w	r0, r4, #76	; 0x4c
   d63f8:	f7ff fc6a 	bl	d5cd0 <_ZN12LocalTimeHMSC1ERKS_>
class LocalTimePosixTimezone {
   d63fc:	f895 3054 	ldrb.w	r3, [r5, #84]	; 0x54
   d6400:	f884 3054 	strb.w	r3, [r4, #84]	; 0x54
   d6404:	4620      	mov	r0, r4
   d6406:	bd70      	pop	{r4, r5, r6, pc}
   d6408:	000dd4f0 	.word	0x000dd4f0
   d640c:	000dd4e0 	.word	0x000dd4e0

000d6410 <_ZN16LocalTimeConvertC1ERKS_>:
class LocalTimeConvert {
   d6410:	b5f8      	push	{r3, r4, r5, r6, r7, lr}
   d6412:	460c      	mov	r4, r1
   d6414:	f851 3b04 	ldr.w	r3, [r1], #4
   d6418:	4607      	mov	r7, r0
   d641a:	f840 3b04 	str.w	r3, [r0], #4
   d641e:	f7ff ffbf 	bl	d63a0 <_ZN22LocalTimePosixTimezoneC1ERKS_>
   d6422:	e9d4 2318 	ldrd	r2, r3, [r4, #96]	; 0x60
   d6426:	f104 0668 	add.w	r6, r4, #104	; 0x68
   d642a:	e9c7 2318 	strd	r2, r3, [r7, #96]	; 0x60
   d642e:	ce0f      	ldmia	r6!, {r0, r1, r2, r3}
   d6430:	f107 0568 	add.w	r5, r7, #104	; 0x68
   d6434:	c50f      	stmia	r5!, {r0, r1, r2, r3}
   d6436:	ce0f      	ldmia	r6!, {r0, r1, r2, r3}
   d6438:	c50f      	stmia	r5!, {r0, r1, r2, r3}
   d643a:	6833      	ldr	r3, [r6, #0]
   d643c:	602b      	str	r3, [r5, #0]
   d643e:	e9d4 2324 	ldrd	r2, r3, [r4, #144]	; 0x90
   d6442:	f104 0698 	add.w	r6, r4, #152	; 0x98
   d6446:	e9c7 2324 	strd	r2, r3, [r7, #144]	; 0x90
   d644a:	ce0f      	ldmia	r6!, {r0, r1, r2, r3}
   d644c:	f107 0598 	add.w	r5, r7, #152	; 0x98
   d6450:	c50f      	stmia	r5!, {r0, r1, r2, r3}
   d6452:	ce0f      	ldmia	r6!, {r0, r1, r2, r3}
   d6454:	c50f      	stmia	r5!, {r0, r1, r2, r3}
   d6456:	6833      	ldr	r3, [r6, #0]
   d6458:	602b      	str	r3, [r5, #0]
   d645a:	e9d4 2330 	ldrd	r2, r3, [r4, #192]	; 0xc0
   d645e:	34c8      	adds	r4, #200	; 0xc8
   d6460:	e9c7 2330 	strd	r2, r3, [r7, #192]	; 0xc0
   d6464:	cc0f      	ldmia	r4!, {r0, r1, r2, r3}
   d6466:	f107 05c8 	add.w	r5, r7, #200	; 0xc8
   d646a:	c50f      	stmia	r5!, {r0, r1, r2, r3}
   d646c:	cc0f      	ldmia	r4!, {r0, r1, r2, r3}
   d646e:	c50f      	stmia	r5!, {r0, r1, r2, r3}
   d6470:	6823      	ldr	r3, [r4, #0]
   d6472:	602b      	str	r3, [r5, #0]
   d6474:	4638      	mov	r0, r7
   d6476:	bdf8      	pop	{r3, r4, r5, r6, r7, pc}

000d6478 <_ZN21LocalTimeScheduleItemD1Ev>:
class LocalTimeScheduleItem {
   d6478:	b510      	push	{r4, lr}
   d647a:	4604      	mov	r4, r0
   d647c:	3038      	adds	r0, #56	; 0x38
   d647e:	f004 ffd9 	bl	db434 <_ZN6StringD1Ev>
	_M_deallocate(_M_impl._M_start,
   d6482:	6920      	ldr	r0, [r4, #16]
   d6484:	f7ff fbec 	bl	d5c60 <_ZNSt12_Vector_baseI12LocalTimeYMDSaIS0_EE13_M_deallocateEPS0_j.isra.0>
   d6488:	6860      	ldr	r0, [r4, #4]
   d648a:	f7ff fbe9 	bl	d5c60 <_ZNSt12_Vector_baseI12LocalTimeYMDSaIS0_EE13_M_deallocateEPS0_j.isra.0>
   d648e:	4620      	mov	r0, r4
   d6490:	bd10      	pop	{r4, pc}

000d6492 <_ZN16LocalTimeConvert7timeStrEv>:
String LocalTimeConvert::timeStr() {
   d6492:	b510      	push	{r4, lr}
   d6494:	4604      	mov	r4, r0
   d6496:	b088      	sub	sp, #32
   d6498:	4608      	mov	r0, r1
    asctime_r(&localTimeValue, ascstr);
   d649a:	3068      	adds	r0, #104	; 0x68
   d649c:	a901      	add	r1, sp, #4
   d649e:	f006 f9bb 	bl	dc818 <asctime_r>
    int len = strlen(ascstr);
   d64a2:	a801      	add	r0, sp, #4
   d64a4:	f006 fac5 	bl	dca32 <strlen>
    ascstr[len-1] = 0; // remove final newline
   d64a8:	ab08      	add	r3, sp, #32
   d64aa:	4418      	add	r0, r3
   d64ac:	2300      	movs	r3, #0
   d64ae:	f800 3c1d 	strb.w	r3, [r0, #-29]
    return String(ascstr);
   d64b2:	a901      	add	r1, sp, #4
   d64b4:	4620      	mov	r0, r4
   d64b6:	f005 f808 	bl	db4ca <_ZN6StringC1EPKc>
}
   d64ba:	4620      	mov	r0, r4
   d64bc:	b008      	add	sp, #32
   d64be:	bd10      	pop	{r4, pc}

000d64c0 <_ZNK16LocalTimeConvert8zoneNameEv>:
String LocalTimeConvert::zoneName() const { 
   d64c0:	b538      	push	{r3, r4, r5, lr}
    bool isZ() const { return !valid || (!hasDST() && standardHMS.toSeconds() == 0); };
   d64c2:	f891 3058 	ldrb.w	r3, [r1, #88]	; 0x58
   d64c6:	4605      	mov	r5, r0
   d64c8:	460c      	mov	r4, r1
   d64ca:	b13b      	cbz	r3, d64dc <_ZNK16LocalTimeConvert8zoneNameEv+0x1c>
   d64cc:	f991 303f 	ldrsb.w	r3, [r1, #63]	; 0x3f
   d64d0:	b953      	cbnz	r3, d64e8 <_ZNK16LocalTimeConvert8zoneNameEv+0x28>
   d64d2:	f101 0030 	add.w	r0, r1, #48	; 0x30
   d64d6:	f7ff fd57 	bl	d5f88 <_ZNK12LocalTimeHMS9toSecondsEv>
   d64da:	b928      	cbnz	r0, d64e8 <_ZNK16LocalTimeConvert8zoneNameEv+0x28>
        return "Z";
   d64dc:	4909      	ldr	r1, [pc, #36]	; (d6504 <_ZNK16LocalTimeConvert8zoneNameEv+0x44>)
   d64de:	4628      	mov	r0, r5
   d64e0:	f004 fff3 	bl	db4ca <_ZN6StringC1EPKc>
};
   d64e4:	4628      	mov	r0, r5
   d64e6:	bd38      	pop	{r3, r4, r5, pc}
    if (isDST()) {
   d64e8:	6820      	ldr	r0, [r4, #0]
   d64ea:	f7ff fbaf 	bl	d5c4c <_ZNK16LocalTimeConvert5isDSTEv.isra.0>
   d64ee:	b128      	cbz	r0, d64fc <_ZNK16LocalTimeConvert8zoneNameEv+0x3c>
        return config.dstName;
   d64f0:	f104 0108 	add.w	r1, r4, #8
        return config.standardName;
   d64f4:	4628      	mov	r0, r5
   d64f6:	f005 f833 	bl	db560 <_ZN6StringC1ERKS_>
   d64fa:	e7f3      	b.n	d64e4 <_ZNK16LocalTimeConvert8zoneNameEv+0x24>
   d64fc:	f104 0120 	add.w	r1, r4, #32
   d6500:	e7f8      	b.n	d64f4 <_ZNK16LocalTimeConvert8zoneNameEv+0x34>
   d6502:	bf00      	nop
   d6504:	000dd48f 	.word	0x000dd48f

000d6508 <_ZN16LocalTimeConvert6formatEPKc>:
String LocalTimeConvert::format(const char* format_spec) {
   d6508:	e92d 4ff0 	stmdb	sp!, {r4, r5, r6, r7, r8, r9, sl, fp, lr}
   d650c:	4680      	mov	r8, r0
   d650e:	b0a9      	sub	sp, #164	; 0xa4
   d6510:	460c      	mov	r4, r1
    if (!format_spec || !strcmp(format_spec, TIME_FORMAT_DEFAULT)) {
   d6512:	4615      	mov	r5, r2
   d6514:	b12a      	cbz	r2, d6522 <_ZN16LocalTimeConvert6formatEPKc+0x1a>
   d6516:	4b4b      	ldr	r3, [pc, #300]	; (d6644 <_ZN16LocalTimeConvert6formatEPKc+0x13c>)
   d6518:	4610      	mov	r0, r2
   d651a:	6819      	ldr	r1, [r3, #0]
   d651c:	f006 fa59 	bl	dc9d2 <strcmp>
   d6520:	b938      	cbnz	r0, d6532 <_ZN16LocalTimeConvert6formatEPKc+0x2a>
        return timeStr();
   d6522:	4621      	mov	r1, r4
   d6524:	4640      	mov	r0, r8
   d6526:	f7ff ffb4 	bl	d6492 <_ZN16LocalTimeConvert7timeStrEv>
}
   d652a:	4640      	mov	r0, r8
   d652c:	b029      	add	sp, #164	; 0xa4
   d652e:	e8bd 8ff0 	ldmia.w	sp!, {r4, r5, r6, r7, r8, r9, sl, fp, pc}
    strncpy(format_str, format_spec, sizeof(format_str) - 1); // Flawfinder: ignore (ch42318)
   d6532:	4629      	mov	r1, r5
   d6534:	223f      	movs	r2, #63	; 0x3f
   d6536:	a818      	add	r0, sp, #96	; 0x60
   d6538:	f006 fa95 	bl	dca66 <strncpy>
    format_str[sizeof(format_str) - 1] = '\0'; // ensure null termination
   d653c:	2300      	movs	r3, #0
    size_t len = strlen(format_str); // Flawfinder: ignore (ch42318)
   d653e:	a818      	add	r0, sp, #96	; 0x60
    format_str[sizeof(format_str) - 1] = '\0'; // ensure null termination
   d6540:	f88d 309f 	strb.w	r3, [sp, #159]	; 0x9f
    size_t len = strlen(format_str); // Flawfinder: ignore (ch42318)
   d6544:	f006 fa75 	bl	dca32 <strlen>
    String zoneNameStr = zoneName();
   d6548:	4621      	mov	r1, r4
    size_t len = strlen(format_str); // Flawfinder: ignore (ch42318)
   d654a:	4605      	mov	r5, r0
    String zoneNameStr = zoneName();
   d654c:	a803      	add	r0, sp, #12
   d654e:	f7ff ffb7 	bl	d64c0 <_ZNK16LocalTimeConvert8zoneNameEv>
   d6552:	f894 3058 	ldrb.w	r3, [r4, #88]	; 0x58
   d6556:	b13b      	cbz	r3, d6568 <_ZN16LocalTimeConvert6formatEPKc+0x60>
   d6558:	f994 303f 	ldrsb.w	r3, [r4, #63]	; 0x3f
   d655c:	bb83      	cbnz	r3, d65c0 <_ZN16LocalTimeConvert6formatEPKc+0xb8>
   d655e:	f104 0030 	add.w	r0, r4, #48	; 0x30
   d6562:	f7ff fd11 	bl	d5f88 <_ZNK12LocalTimeHMS9toSecondsEv>
   d6566:	bb58      	cbnz	r0, d65c0 <_ZN16LocalTimeConvert6formatEPKc+0xb8>
        strcpy(time_zone_str, "Z");
   d6568:	4937      	ldr	r1, [pc, #220]	; (d6648 <_ZN16LocalTimeConvert6formatEPKc+0x140>)
   d656a:	a807      	add	r0, sp, #28
   d656c:	f006 fa3b 	bl	dc9e6 <strcpy>
   d6570:	af18      	add	r7, sp, #96	; 0x60
String LocalTimeConvert::format(const char* format_spec) {
   d6572:	2600      	movs	r6, #0
    for (size_t i=0; i<len-1; i++)
   d6574:	f105 3bff 	add.w	fp, r5, #4294967295	; 0xffffffff
   d6578:	45b3      	cmp	fp, r6
   d657a:	d94e      	bls.n	d661a <_ZN16LocalTimeConvert6formatEPKc+0x112>
        if (format_str[i]=='%' && format_str[i+1]=='z')
   d657c:	46ba      	mov	sl, r7
   d657e:	f106 0901 	add.w	r9, r6, #1
   d6582:	f81a 3b01 	ldrb.w	r3, [sl], #1
   d6586:	2b25      	cmp	r3, #37	; 0x25
   d6588:	d117      	bne.n	d65ba <_ZN16LocalTimeConvert6formatEPKc+0xb2>
   d658a:	787b      	ldrb	r3, [r7, #1]
   d658c:	2b7a      	cmp	r3, #122	; 0x7a
   d658e:	d136      	bne.n	d65fe <_ZN16LocalTimeConvert6formatEPKc+0xf6>
            size_t tzlen = strlen(time_zone_str);
   d6590:	a807      	add	r0, sp, #28
   d6592:	f006 fa4e 	bl	dca32 <strlen>
            memcpy(format_str+i+tzlen, format_str+i+2, len-i-1);    // +1 include the 0 char
   d6596:	ab18      	add	r3, sp, #96	; 0x60
            size_t tzlen = strlen(time_zone_str);
   d6598:	4605      	mov	r5, r0
            memcpy(format_str+i+tzlen, format_str+i+2, len-i-1);    // +1 include the 0 char
   d659a:	1830      	adds	r0, r6, r0
   d659c:	ebab 0206 	sub.w	r2, fp, r6
   d65a0:	1cb9      	adds	r1, r7, #2
   d65a2:	4418      	add	r0, r3
   d65a4:	f006 f976 	bl	dc894 <memcpy>
            memcpy(format_str+i, time_zone_str, tzlen);
   d65a8:	462a      	mov	r2, r5
   d65aa:	a907      	add	r1, sp, #28
            memcpy(format_str+i, zoneNameStr.c_str(), tzlen);
   d65ac:	4638      	mov	r0, r7
   d65ae:	f006 f971 	bl	dc894 <memcpy>
            len = strlen(format_str);
   d65b2:	a818      	add	r0, sp, #96	; 0x60
   d65b4:	f006 fa3d 	bl	dca32 <strlen>
   d65b8:	4605      	mov	r5, r0
    for (size_t i=0; i<len-1; i++)
   d65ba:	4657      	mov	r7, sl
   d65bc:	464e      	mov	r6, r9
   d65be:	e7d9      	b.n	d6574 <_ZN16LocalTimeConvert6formatEPKc+0x6c>
        int time_zone = isDST() ? config.dstHMS.toSeconds() : config.standardHMS.toSeconds();
   d65c0:	6820      	ldr	r0, [r4, #0]
   d65c2:	f7ff fb43 	bl	d5c4c <_ZNK16LocalTimeConvert5isDSTEv.isra.0>
   d65c6:	b1b8      	cbz	r0, d65f8 <_ZN16LocalTimeConvert6formatEPKc+0xf0>
   d65c8:	f104 0018 	add.w	r0, r4, #24
   d65cc:	f7ff fcdc 	bl	d5f88 <_ZNK12LocalTimeHMS9toSecondsEv>
        snprintf(time_zone_str, sizeof(time_zone_str), "%+03d:%02u", -time_zone/3600, abs(time_zone/60)%60);
   d65d0:	213c      	movs	r1, #60	; 0x3c
   d65d2:	fb90 f3f1 	sdiv	r3, r0, r1
   d65d6:	2b00      	cmp	r3, #0
   d65d8:	bfb8      	it	lt
   d65da:	425b      	neglt	r3, r3
   d65dc:	fbb3 f2f1 	udiv	r2, r3, r1
   d65e0:	fb01 3312 	mls	r3, r1, r2, r3
   d65e4:	9300      	str	r3, [sp, #0]
   d65e6:	4a19      	ldr	r2, [pc, #100]	; (d664c <_ZN16LocalTimeConvert6formatEPKc+0x144>)
   d65e8:	4b19      	ldr	r3, [pc, #100]	; (d6650 <_ZN16LocalTimeConvert6formatEPKc+0x148>)
   d65ea:	fb90 f3f3 	sdiv	r3, r0, r3
   d65ee:	2110      	movs	r1, #16
   d65f0:	a807      	add	r0, sp, #28
   d65f2:	f002 fc5d 	bl	d8eb0 <snprintf>
   d65f6:	e7bb      	b.n	d6570 <_ZN16LocalTimeConvert6formatEPKc+0x68>
        int time_zone = isDST() ? config.dstHMS.toSeconds() : config.standardHMS.toSeconds();
   d65f8:	f104 0030 	add.w	r0, r4, #48	; 0x30
   d65fc:	e7e6      	b.n	d65cc <_ZN16LocalTimeConvert6formatEPKc+0xc4>
        if (format_str[i]=='%' && format_str[i+1]=='Z')
   d65fe:	2b5a      	cmp	r3, #90	; 0x5a
   d6600:	d1db      	bne.n	d65ba <_ZN16LocalTimeConvert6formatEPKc+0xb2>
            size_t tzlen = zoneNameStr.length();
   d6602:	9d05      	ldr	r5, [sp, #20]
            memcpy(format_str+i+tzlen, format_str+i+2, len-i-1);    // +1 include the 0 char
   d6604:	ab18      	add	r3, sp, #96	; 0x60
   d6606:	1970      	adds	r0, r6, r5
   d6608:	ebab 0206 	sub.w	r2, fp, r6
   d660c:	1cb9      	adds	r1, r7, #2
   d660e:	4418      	add	r0, r3
   d6610:	f006 f940 	bl	dc894 <memcpy>
            memcpy(format_str+i, zoneNameStr.c_str(), tzlen);
   d6614:	9903      	ldr	r1, [sp, #12]
   d6616:	462a      	mov	r2, r5
   d6618:	e7c8      	b.n	d65ac <_ZN16LocalTimeConvert6formatEPKc+0xa4>
    char buf[50] = {};
   d661a:	2100      	movs	r1, #0
   d661c:	222e      	movs	r2, #46	; 0x2e
   d661e:	a80c      	add	r0, sp, #48	; 0x30
   d6620:	910b      	str	r1, [sp, #44]	; 0x2c
   d6622:	f006 f95f 	bl	dc8e4 <memset>
    strftime(buf, sizeof(buf), format_str, &localTimeValue);
   d6626:	f104 0368 	add.w	r3, r4, #104	; 0x68
   d662a:	aa18      	add	r2, sp, #96	; 0x60
   d662c:	2132      	movs	r1, #50	; 0x32
   d662e:	a80b      	add	r0, sp, #44	; 0x2c
   d6630:	f002 fc66 	bl	d8f00 <strftime>
    return String(buf);    
   d6634:	a90b      	add	r1, sp, #44	; 0x2c
   d6636:	4640      	mov	r0, r8
   d6638:	f004 ff47 	bl	db4ca <_ZN6StringC1EPKc>
    String zoneNameStr = zoneName();
   d663c:	a803      	add	r0, sp, #12
   d663e:	f004 fef9 	bl	db434 <_ZN6StringD1Ev>
   d6642:	e772      	b.n	d652a <_ZN16LocalTimeConvert6formatEPKc+0x22>
   d6644:	2003dcf0 	.word	0x2003dcf0
   d6648:	000dd48f 	.word	0x000dd48f
   d664c:	000dd491 	.word	0x000dd491
   d6650:	fffff1f0 	.word	0xfffff1f0

000d6654 <_ZN9LocalTime8instanceEv>:
LocalTime &LocalTime::instance() {
   d6654:	b538      	push	{r3, r4, r5, lr}
    if (!_instance) {
   d6656:	4d09      	ldr	r5, [pc, #36]	; (d667c <_ZN9LocalTime8instanceEv+0x28>)
   d6658:	682b      	ldr	r3, [r5, #0]
   d665a:	b963      	cbnz	r3, d6676 <_ZN9LocalTime8instanceEv+0x22>
        _instance = new LocalTime();
   d665c:	2060      	movs	r0, #96	; 0x60
   d665e:	f7fd fd1a 	bl	d4096 <_Znwj>
   d6662:	4604      	mov	r4, r0
   d6664:	b130      	cbz	r0, d6674 <_ZN9LocalTime8instanceEv+0x20>
    LocalTime() {};
   d6666:	4b06      	ldr	r3, [pc, #24]	; (d6680 <_ZN9LocalTime8instanceEv+0x2c>)
   d6668:	f840 3b04 	str.w	r3, [r0], #4
   d666c:	f7ff fd84 	bl	d6178 <_ZN22LocalTimePosixTimezoneC1Ev>
   d6670:	2364      	movs	r3, #100	; 0x64
   d6672:	65e3      	str	r3, [r4, #92]	; 0x5c
   d6674:	602c      	str	r4, [r5, #0]
}
   d6676:	6828      	ldr	r0, [r5, #0]
   d6678:	bd38      	pop	{r3, r4, r5, pc}
   d667a:	bf00      	nop
   d667c:	2003e2f8 	.word	0x2003e2f8
   d6680:	000dd4c0 	.word	0x000dd4c0

000d6684 <_ZN9LocalTime8tmToTimeEP2tm>:
    return mktime(pTimeInfo);
   d6684:	f002 bc54 	b.w	d8f30 <mktime>

000d6688 <_ZN9LocalTime14lastDayOfMonthEii>:
}


// [static]
int LocalTime::lastDayOfMonth(int year, int month) {
    switch(month) {
   d6688:	3901      	subs	r1, #1
   d668a:	290b      	cmp	r1, #11
   d668c:	d815      	bhi.n	d66ba <_ZN9LocalTime14lastDayOfMonthEii+0x32>
   d668e:	e8df f001 	tbb	[pc, r1]
   d6692:	0816      	.short	0x0816
   d6694:	06160616 	.word	0x06160616
   d6698:	16061616 	.word	0x16061616
   d669c:	1606      	.short	0x1606
        case 6:
        case 9:
        case 11:
            return 30;
    }
    return 0;
   d669e:	201e      	movs	r0, #30
   d66a0:	4770      	bx	lr
            if ((year % 4) == 0) {
   d66a2:	0783      	lsls	r3, r0, #30
   d66a4:	d10d      	bne.n	d66c2 <_ZN9LocalTime14lastDayOfMonthEii+0x3a>
                if ((year % 100) == 0) {
   d66a6:	2264      	movs	r2, #100	; 0x64
   d66a8:	fb90 f3f2 	sdiv	r3, r0, r2
   d66ac:	fb02 0013 	mls	r0, r2, r3, r0
   d66b0:	2800      	cmp	r0, #0
                    return 29;
   d66b2:	bf0c      	ite	eq
   d66b4:	201c      	moveq	r0, #28
   d66b6:	201d      	movne	r0, #29
   d66b8:	4770      	bx	lr
    return 0;
   d66ba:	2000      	movs	r0, #0
   d66bc:	4770      	bx	lr
            return 31;
   d66be:	201f      	movs	r0, #31
   d66c0:	4770      	bx	lr
                return 28;
   d66c2:	201c      	movs	r0, #28
}
   d66c4:	4770      	bx	lr

000d66c6 <_ZNK15LocalTimeChange9calculateEP2tm12LocalTimeHMS>:
time_t LocalTimeChange::calculate(struct tm *pTimeInfo, LocalTimeHMS tzAdjust) const {
   d66c6:	b5f8      	push	{r3, r4, r5, r6, r7, lr}
    pTimeInfo->tm_mday = 1;
   d66c8:	2301      	movs	r3, #1
   d66ca:	60cb      	str	r3, [r1, #12]
    pTimeInfo->tm_mon = month - 1; // tm_mon is zero-based!
   d66cc:	f990 3004 	ldrsb.w	r3, [r0, #4]
   d66d0:	3b01      	subs	r3, #1
   d66d2:	610b      	str	r3, [r1, #16]
    pTimeInfo->tm_hour = pTimeInfo->tm_min = pTimeInfo->tm_sec = 0;
   d66d4:	2300      	movs	r3, #0
   d66d6:	e9c1 3300 	strd	r3, r3, [r1]
time_t LocalTimeChange::calculate(struct tm *pTimeInfo, LocalTimeHMS tzAdjust) const {
   d66da:	4606      	mov	r6, r0
   d66dc:	460c      	mov	r4, r1
   d66de:	4617      	mov	r7, r2
    pTimeInfo->tm_hour = pTimeInfo->tm_min = pTimeInfo->tm_sec = 0;
   d66e0:	608b      	str	r3, [r1, #8]
    LocalTime::tmToTime(pTimeInfo);
   d66e2:	4620      	mov	r0, r4
   d66e4:	f7ff ffce 	bl	d6684 <_ZN9LocalTime8tmToTimeEP2tm>
    while(pTimeInfo->tm_wday != dayOfWeek) {
   d66e8:	f996 3006 	ldrsb.w	r3, [r6, #6]
   d66ec:	69a2      	ldr	r2, [r4, #24]
   d66ee:	429a      	cmp	r2, r3
   d66f0:	d003      	beq.n	d66fa <_ZNK15LocalTimeChange9calculateEP2tm12LocalTimeHMS+0x34>
        pTimeInfo->tm_mday++;
   d66f2:	68e3      	ldr	r3, [r4, #12]
   d66f4:	3301      	adds	r3, #1
   d66f6:	60e3      	str	r3, [r4, #12]
        LocalTime::tmToTime(pTimeInfo);
   d66f8:	e7f3      	b.n	d66e2 <_ZNK15LocalTimeChange9calculateEP2tm12LocalTimeHMS+0x1c>
    if (week != 1) {
   d66fa:	f996 5005 	ldrsb.w	r5, [r6, #5]
   d66fe:	2d01      	cmp	r5, #1
   d6700:	d013      	beq.n	d672a <_ZNK15LocalTimeChange9calculateEP2tm12LocalTimeHMS+0x64>
        pTimeInfo->tm_mday += (week - 1) * 7;
   d6702:	68e3      	ldr	r3, [r4, #12]
        if (pTimeInfo->tm_mday > LocalTime::lastDayOfMonth(pTimeInfo->tm_year + 1900, month)) {
   d6704:	6960      	ldr	r0, [r4, #20]
        pTimeInfo->tm_mday += (week - 1) * 7;
   d6706:	3d01      	subs	r5, #1
   d6708:	ebc5 05c5 	rsb	r5, r5, r5, lsl #3
   d670c:	441d      	add	r5, r3
   d670e:	60e5      	str	r5, [r4, #12]
        if (pTimeInfo->tm_mday > LocalTime::lastDayOfMonth(pTimeInfo->tm_year + 1900, month)) {
   d6710:	f996 1004 	ldrsb.w	r1, [r6, #4]
   d6714:	f200 706c 	addw	r0, r0, #1900	; 0x76c
   d6718:	f7ff ffb6 	bl	d6688 <_ZN9LocalTime14lastDayOfMonthEii>
   d671c:	4285      	cmp	r5, r0
            pTimeInfo->tm_mday -= 7;
   d671e:	bfc4      	itt	gt
   d6720:	3d07      	subgt	r5, #7
   d6722:	60e5      	strgt	r5, [r4, #12]
        LocalTime::tmToTime(pTimeInfo);        
   d6724:	4620      	mov	r0, r4
   d6726:	f7ff ffad 	bl	d6684 <_ZN9LocalTime8tmToTimeEP2tm>
    hms.toTimeInfo(pTimeInfo);
   d672a:	4621      	mov	r1, r4
   d672c:	f106 0008 	add.w	r0, r6, #8
   d6730:	f7ff fc46 	bl	d5fc0 <_ZNK12LocalTimeHMS10toTimeInfoEP2tm>
    tzAdjust.adjustTimeInfo(pTimeInfo);
   d6734:	4638      	mov	r0, r7
   d6736:	f7ff fc50 	bl	d5fda <_ZNK12LocalTimeHMS14adjustTimeInfoEP2tm>
    return mktime(pTimeInfo);
   d673a:	4620      	mov	r0, r4
}
   d673c:	e8bd 40f8 	ldmia.w	sp!, {r3, r4, r5, r6, r7, lr}
    return mktime(pTimeInfo);
   d6740:	f002 bbf6 	b.w	d8f30 <mktime>

000d6744 <_ZN16LocalTimeConvert7convertEv>:
void LocalTimeConvert::convert() {
   d6744:	b5f0      	push	{r4, r5, r6, r7, lr}
    if (!config.isValid()) {
   d6746:	f890 3058 	ldrb.w	r3, [r0, #88]	; 0x58
void LocalTimeConvert::convert() {
   d674a:	b085      	sub	sp, #20
   d674c:	4604      	mov	r4, r0
    if (!config.isValid()) {
   d674e:	b92b      	cbnz	r3, d675c <_ZN16LocalTimeConvert7convertEv+0x18>
        config = LocalTime::instance().getConfig();
   d6750:	f7ff ff80 	bl	d6654 <_ZN9LocalTime8instanceEv>
   d6754:	1d01      	adds	r1, r0, #4
   d6756:	1d20      	adds	r0, r4, #4
   d6758:	f7ff fae6 	bl	d5d28 <_ZN22LocalTimePosixTimezoneaSERKS_>
    if (config.hasDST()) {
   d675c:	f994 303f 	ldrsb.w	r3, [r4, #63]	; 0x3f
   d6760:	2b00      	cmp	r3, #0
   d6762:	d069      	beq.n	d6838 <_ZN16LocalTimeConvert7convertEv+0xf4>
        LocalTime::timeToTm(time, &dstStartTimeInfo);
   d6764:	e9d4 2318 	ldrd	r2, r3, [r4, #96]	; 0x60
   d6768:	f104 0798 	add.w	r7, r4, #152	; 0x98
    localtime_r(&time, pTimeInfo);
   d676c:	4639      	mov	r1, r7
        standardStartTimeInfo = dstStartTimeInfo;
   d676e:	463e      	mov	r6, r7
    localtime_r(&time, pTimeInfo);
   d6770:	a802      	add	r0, sp, #8
   d6772:	e9cd 2302 	strd	r2, r3, [sp, #8]
   d6776:	f002 fbcb 	bl	d8f10 <localtime_r>
        standardStartTimeInfo = dstStartTimeInfo;
   d677a:	ce0f      	ldmia	r6!, {r0, r1, r2, r3}
   d677c:	f104 05c8 	add.w	r5, r4, #200	; 0xc8
   d6780:	c50f      	stmia	r5!, {r0, r1, r2, r3}
   d6782:	ce0f      	ldmia	r6!, {r0, r1, r2, r3}
   d6784:	c50f      	stmia	r5!, {r0, r1, r2, r3}
   d6786:	6833      	ldr	r3, [r6, #0]
   d6788:	602b      	str	r3, [r5, #0]
        dstStart = config.dstStart.calculate(&dstStartTimeInfo, config.standardHMS);
   d678a:	f104 0130 	add.w	r1, r4, #48	; 0x30
   d678e:	a802      	add	r0, sp, #8
   d6790:	f7ff fa9e 	bl	d5cd0 <_ZN12LocalTimeHMSC1ERKS_>
   d6794:	aa02      	add	r2, sp, #8
   d6796:	4639      	mov	r1, r7
   d6798:	f104 0038 	add.w	r0, r4, #56	; 0x38
   d679c:	f7ff ff93 	bl	d66c6 <_ZNK15LocalTimeChange9calculateEP2tm12LocalTimeHMS>
   d67a0:	e9c4 0124 	strd	r0, r1, [r4, #144]	; 0x90
        standardStart = config.standardStart.calculate(&standardStartTimeInfo, config.dstHMS);
   d67a4:	f104 0118 	add.w	r1, r4, #24
   d67a8:	a802      	add	r0, sp, #8
   d67aa:	f7ff fa91 	bl	d5cd0 <_ZN12LocalTimeHMSC1ERKS_>
   d67ae:	aa02      	add	r2, sp, #8
   d67b0:	f104 01c8 	add.w	r1, r4, #200	; 0xc8
   d67b4:	f104 0048 	add.w	r0, r4, #72	; 0x48
   d67b8:	f7ff ff85 	bl	d66c6 <_ZNK15LocalTimeChange9calculateEP2tm12LocalTimeHMS>
        if (dstStart < standardStart) {
   d67bc:	e9d4 6724 	ldrd	r6, r7, [r4, #144]	; 0x90
        standardStart = config.standardStart.calculate(&standardStartTimeInfo, config.dstHMS);
   d67c0:	460b      	mov	r3, r1
        if (dstStart < standardStart) {
   d67c2:	4286      	cmp	r6, r0
        standardStart = config.standardStart.calculate(&standardStartTimeInfo, config.dstHMS);
   d67c4:	4602      	mov	r2, r0
        if (dstStart < standardStart) {
   d67c6:	eb77 0103 	sbcs.w	r1, r7, r3
        standardStart = config.standardStart.calculate(&standardStartTimeInfo, config.dstHMS);
   d67ca:	e9c4 2330 	strd	r2, r3, [r4, #192]	; 0xc0
        if (dstStart < standardStart) {
   d67ce:	e9d4 0118 	ldrd	r0, r1, [r4, #96]	; 0x60
   d67d2:	da24      	bge.n	d681e <_ZN16LocalTimeConvert7convertEv+0xda>
            if (time < dstStart) {
   d67d4:	42b0      	cmp	r0, r6
   d67d6:	eb71 0507 	sbcs.w	r5, r1, r7
   d67da:	da19      	bge.n	d6810 <_ZN16LocalTimeConvert7convertEv+0xcc>
                position = Position::BEFORE_DST;
   d67dc:	2300      	movs	r3, #0
        position = Position::NO_DST;
   d67de:	6023      	str	r3, [r4, #0]
    if (!isDST()) {
   d67e0:	6820      	ldr	r0, [r4, #0]
   d67e2:	f7ff fa33 	bl	d5c4c <_ZNK16LocalTimeConvert5isDSTEv.isra.0>
   d67e6:	f104 0168 	add.w	r1, r4, #104	; 0x68
   d67ea:	e9d4 6718 	ldrd	r6, r7, [r4, #96]	; 0x60
   d67ee:	9101      	str	r1, [sp, #4]
   d67f0:	bb20      	cbnz	r0, d683c <_ZN16LocalTimeConvert7convertEv+0xf8>
        LocalTime::timeToTm(time - config.standardHMS.toSeconds(), &localTimeValue);
   d67f2:	f104 0030 	add.w	r0, r4, #48	; 0x30
        LocalTime::timeToTm(time - config.dstHMS.toSeconds(), &localTimeValue);
   d67f6:	f7ff fbc7 	bl	d5f88 <_ZNK12LocalTimeHMS9toSecondsEv>
   d67fa:	1a36      	subs	r6, r6, r0
   d67fc:	eb67 77e0 	sbc.w	r7, r7, r0, asr #31
    localtime_r(&time, pTimeInfo);
   d6800:	9901      	ldr	r1, [sp, #4]
   d6802:	a802      	add	r0, sp, #8
   d6804:	e9cd 6702 	strd	r6, r7, [sp, #8]
   d6808:	f002 fb82 	bl	d8f10 <localtime_r>
}
   d680c:	b005      	add	sp, #20
   d680e:	bdf0      	pop	{r4, r5, r6, r7, pc}
            else if (time < standardStart) {
   d6810:	4290      	cmp	r0, r2
   d6812:	eb71 0303 	sbcs.w	r3, r1, r3
                position = Position::IN_DST;
   d6816:	bfb4      	ite	lt
   d6818:	2301      	movlt	r3, #1
                position = Position::AFTER_DST;
   d681a:	2302      	movge	r3, #2
   d681c:	e7df      	b.n	d67de <_ZN16LocalTimeConvert7convertEv+0x9a>
            if (time < standardStart) {
   d681e:	4290      	cmp	r0, r2
   d6820:	eb71 0303 	sbcs.w	r3, r1, r3
   d6824:	da01      	bge.n	d682a <_ZN16LocalTimeConvert7convertEv+0xe6>
                position = Position::BEFORE_STANDARD;
   d6826:	2303      	movs	r3, #3
   d6828:	e7d9      	b.n	d67de <_ZN16LocalTimeConvert7convertEv+0x9a>
            else if (time < dstStart) {
   d682a:	42b0      	cmp	r0, r6
   d682c:	eb71 0307 	sbcs.w	r3, r1, r7
                position = Position::IN_STANDARD;
   d6830:	bfb4      	ite	lt
   d6832:	2304      	movlt	r3, #4
                position = Position::AFTER_STANDARD;
   d6834:	2305      	movge	r3, #5
   d6836:	e7d2      	b.n	d67de <_ZN16LocalTimeConvert7convertEv+0x9a>
        position = Position::NO_DST;
   d6838:	2306      	movs	r3, #6
   d683a:	e7d0      	b.n	d67de <_ZN16LocalTimeConvert7convertEv+0x9a>
        LocalTime::timeToTm(time - config.dstHMS.toSeconds(), &localTimeValue);
   d683c:	f104 0018 	add.w	r0, r4, #24
   d6840:	e7d9      	b.n	d67f6 <_ZN16LocalTimeConvert7convertEv+0xb2>

000d6842 <_ZNK14LocalTimeValue5toUTCE22LocalTimePosixTimezone>:
time_t LocalTimeValue::toUTC(LocalTimePosixTimezone config) const {
   d6842:	e92d 4370 	stmdb	sp!, {r4, r5, r6, r8, r9, lr}
    struct tm mutableTimeInfo = *this;
   d6846:	4604      	mov	r4, r0
time_t LocalTimeValue::toUTC(LocalTimePosixTimezone config) const {
   d6848:	460e      	mov	r6, r1
    struct tm mutableTimeInfo = *this;
   d684a:	cc0f      	ldmia	r4!, {r0, r1, r2, r3}
time_t LocalTimeValue::toUTC(LocalTimePosixTimezone config) const {
   d684c:	b0dc      	sub	sp, #368	; 0x170
    struct tm mutableTimeInfo = *this;
   d684e:	ad01      	add	r5, sp, #4
   d6850:	c50f      	stmia	r5!, {r0, r1, r2, r3}
   d6852:	cc0f      	ldmia	r4!, {r0, r1, r2, r3}
   d6854:	c50f      	stmia	r5!, {r0, r1, r2, r3}
   d6856:	6823      	ldr	r3, [r4, #0]
   d6858:	602b      	str	r3, [r5, #0]
    return mktime(pTimeInfo);
   d685a:	a801      	add	r0, sp, #4
   d685c:	f002 fb68 	bl	d8f30 <mktime>
   d6860:	4604      	mov	r4, r0
    standardTime += config.standardHMS.toSeconds();
   d6862:	f106 002c 	add.w	r0, r6, #44	; 0x2c
    return mktime(pTimeInfo);
   d6866:	460d      	mov	r5, r1
    standardTime += config.standardHMS.toSeconds();
   d6868:	f7ff fb8e 	bl	d5f88 <_ZNK12LocalTimeHMS9toSecondsEv>
    if (config.hasDST()) {
   d686c:	f996 303b 	ldrsb.w	r3, [r6, #59]	; 0x3b
    standardTime += config.standardHMS.toSeconds();
   d6870:	eb14 0800 	adds.w	r8, r4, r0
   d6874:	eb45 79e0 	adc.w	r9, r5, r0, asr #31
    if (config.hasDST()) {
   d6878:	b31b      	cbz	r3, d68c2 <_ZNK14LocalTimeValue5toUTCE22LocalTimePosixTimezone+0x80>
class LocalTimeConvert {
   d687a:	2306      	movs	r3, #6
   d687c:	a821      	add	r0, sp, #132	; 0x84
   d687e:	9320      	str	r3, [sp, #128]	; 0x80
   d6880:	f7ff fc7a 	bl	d6178 <_ZN22LocalTimePosixTimezoneC1Ev>
        convert.withConfig(config).withTime(standardTime).convert();
   d6884:	4631      	mov	r1, r6
   d6886:	a80a      	add	r0, sp, #40	; 0x28
   d6888:	f7ff fd8a 	bl	d63a0 <_ZN22LocalTimePosixTimezoneC1ERKS_>
    LocalTimeConvert &withConfig(LocalTimePosixTimezone config) { this->config = config; return *this; };
   d688c:	a90a      	add	r1, sp, #40	; 0x28
   d688e:	a821      	add	r0, sp, #132	; 0x84
   d6890:	f7ff fa4a 	bl	d5d28 <_ZN22LocalTimePosixTimezoneaSERKS_>
   d6894:	a820      	add	r0, sp, #128	; 0x80
    LocalTimeConvert &withTime(time_t time) { this->time = time; return *this; };
   d6896:	e9cd 8938 	strd	r8, r9, [sp, #224]	; 0xe0
   d689a:	f7ff ff53 	bl	d6744 <_ZN16LocalTimeConvert7convertEv>
   d689e:	a80a      	add	r0, sp, #40	; 0x28
   d68a0:	f7ff f9a6 	bl	d5bf0 <_ZN22LocalTimePosixTimezoneD1Ev>
        if (convert.isDST()) {
   d68a4:	9820      	ldr	r0, [sp, #128]	; 0x80
   d68a6:	f7ff f9d1 	bl	d5c4c <_ZNK16LocalTimeConvert5isDSTEv.isra.0>
   d68aa:	b138      	cbz	r0, d68bc <_ZNK14LocalTimeValue5toUTCE22LocalTimePosixTimezone+0x7a>
            dstTime += config.dstHMS.toSeconds();
   d68ac:	f106 0014 	add.w	r0, r6, #20
   d68b0:	f7ff fb6a 	bl	d5f88 <_ZNK12LocalTimeHMS9toSecondsEv>
   d68b4:	eb14 0800 	adds.w	r8, r4, r0
   d68b8:	eb45 79e0 	adc.w	r9, r5, r0, asr #31
class LocalTimeConvert {
   d68bc:	a821      	add	r0, sp, #132	; 0x84
   d68be:	f7ff f997 	bl	d5bf0 <_ZN22LocalTimePosixTimezoneD1Ev>
}
   d68c2:	4640      	mov	r0, r8
   d68c4:	4649      	mov	r1, r9
   d68c6:	b05c      	add	sp, #368	; 0x170
   d68c8:	e8bd 8370 	ldmia.w	sp!, {r4, r5, r6, r8, r9, pc}

000d68cc <_ZN16LocalTimeConvert11atLocalTimeE12LocalTimeHMS>:
void LocalTimeConvert::atLocalTime(LocalTimeHMS hms) {
   d68cc:	b530      	push	{r4, r5, lr}
    if (!hms.ignore) {
   d68ce:	f991 3007 	ldrsb.w	r3, [r1, #7]
void LocalTimeConvert::atLocalTime(LocalTimeHMS hms) {
   d68d2:	b097      	sub	sp, #92	; 0x5c
   d68d4:	4604      	mov	r4, r0
    if (!hms.ignore) {
   d68d6:	b9c3      	cbnz	r3, d690a <_ZN16LocalTimeConvert11atLocalTimeE12LocalTimeHMS+0x3e>
        localTimeValue.setHMS(hms);
   d68d8:	f100 0568 	add.w	r5, r0, #104	; 0x68
   d68dc:	4668      	mov	r0, sp
   d68de:	f7ff f9f7 	bl	d5cd0 <_ZN12LocalTimeHMSC1ERKS_>
   d68e2:	4669      	mov	r1, sp
   d68e4:	4628      	mov	r0, r5
   d68e6:	f7ff fd43 	bl	d6370 <_ZN14LocalTimeValue6setHMSE12LocalTimeHMS>
        time = localTimeValue.toUTC(config);
   d68ea:	1d21      	adds	r1, r4, #4
   d68ec:	4668      	mov	r0, sp
   d68ee:	f7ff fd57 	bl	d63a0 <_ZN22LocalTimePosixTimezoneC1ERKS_>
   d68f2:	4669      	mov	r1, sp
   d68f4:	4628      	mov	r0, r5
   d68f6:	f7ff ffa4 	bl	d6842 <_ZNK14LocalTimeValue5toUTCE22LocalTimePosixTimezone>
   d68fa:	e9c4 0118 	strd	r0, r1, [r4, #96]	; 0x60
   d68fe:	4668      	mov	r0, sp
   d6900:	f7ff f976 	bl	d5bf0 <_ZN22LocalTimePosixTimezoneD1Ev>
        convert();
   d6904:	4620      	mov	r0, r4
   d6906:	f7ff ff1d 	bl	d6744 <_ZN16LocalTimeConvert7convertEv>
}
   d690a:	b017      	add	sp, #92	; 0x5c
   d690c:	bd30      	pop	{r4, r5, pc}
	...

000d6910 <_ZN16LocalTimeConvert7nextDayE12LocalTimeHMS>:
void LocalTimeConvert::nextDay(LocalTimeHMS hms) {
   d6910:	b530      	push	{r4, r5, lr}
    time += 86400;
   d6912:	e9d0 3218 	ldrd	r3, r2, [r0, #96]	; 0x60
   d6916:	4d0b      	ldr	r5, [pc, #44]	; (d6944 <_ZN16LocalTimeConvert7nextDayE12LocalTimeHMS+0x34>)
   d6918:	195b      	adds	r3, r3, r5
   d691a:	f04f 0500 	mov.w	r5, #0
void LocalTimeConvert::nextDay(LocalTimeHMS hms) {
   d691e:	b085      	sub	sp, #20
    time += 86400;
   d6920:	eb45 0202 	adc.w	r2, r5, r2
   d6924:	e9c0 3218 	strd	r3, r2, [r0, #96]	; 0x60
void LocalTimeConvert::nextDay(LocalTimeHMS hms) {
   d6928:	4604      	mov	r4, r0
   d692a:	9101      	str	r1, [sp, #4]
    convert();
   d692c:	f7ff ff0a 	bl	d6744 <_ZN16LocalTimeConvert7convertEv>
    atLocalTime(hms);
   d6930:	9901      	ldr	r1, [sp, #4]
   d6932:	a802      	add	r0, sp, #8
   d6934:	f7ff f9cc 	bl	d5cd0 <_ZN12LocalTimeHMSC1ERKS_>
   d6938:	a902      	add	r1, sp, #8
   d693a:	4620      	mov	r0, r4
   d693c:	f7ff ffc6 	bl	d68cc <_ZN16LocalTimeConvert11atLocalTimeE12LocalTimeHMS>
}
   d6940:	b005      	add	sp, #20
   d6942:	bd30      	pop	{r4, r5, pc}
   d6944:	00015180 	.word	0x00015180

000d6948 <_ZN9LocalTime16dayOfWeekOfMonthEiiii>:

// [static]
int LocalTime::dayOfWeekOfMonth(int year, int month, int dayOfWeek, int ordinal) {
   d6948:	e92d 41f0 	stmdb	sp!, {r4, r5, r6, r7, r8, lr}
   d694c:	b08a      	sub	sp, #40	; 0x28
   d694e:	4617      	mov	r7, r2
   d6950:	4606      	mov	r6, r0
   d6952:	460d      	mov	r5, r1
    struct tm timeInfo = {0};
   d6954:	2224      	movs	r2, #36	; 0x24
   d6956:	2100      	movs	r1, #0
   d6958:	a801      	add	r0, sp, #4
int LocalTime::dayOfWeekOfMonth(int year, int month, int dayOfWeek, int ordinal) {
   d695a:	461c      	mov	r4, r3
    struct tm timeInfo = {0};
   d695c:	f005 ffc2 	bl	dc8e4 <memset>

    if (dayOfWeek < 0 || dayOfWeek >= 7) {
   d6960:	2f06      	cmp	r7, #6
   d6962:	d829      	bhi.n	d69b8 <_ZN9LocalTime16dayOfWeekOfMonthEiiii+0x70>
        // Invalid values of dayOfWeek can cause infinite loop below
        return 0;
    }

    int lastDay = lastDayOfMonth(year, month);
   d6964:	4629      	mov	r1, r5
   d6966:	4630      	mov	r0, r6
   d6968:	f7ff fe8e 	bl	d6688 <_ZN9LocalTime14lastDayOfMonthEii>

    if (ordinal > 0) {
   d696c:	2c00      	cmp	r4, #0
    int lastDay = lastDayOfMonth(year, month);
   d696e:	4680      	mov	r8, r0
    if (ordinal > 0) {
   d6970:	dd24      	ble.n	d69bc <_ZN9LocalTime16dayOfWeekOfMonthEiiii+0x74>
        timeInfo.tm_year = year - 1900;
   d6972:	f2a6 766c 	subw	r6, r6, #1900	; 0x76c
        timeInfo.tm_mon = month - 1;
   d6976:	3d01      	subs	r5, #1
        timeInfo.tm_year = year - 1900;
   d6978:	9606      	str	r6, [sp, #24]
        timeInfo.tm_mon = month - 1;
   d697a:	9505      	str	r5, [sp, #20]
        timeInfo.tm_mday = 1;
   d697c:	2301      	movs	r3, #1
        tmToTime(&timeInfo);
   d697e:	a801      	add	r0, sp, #4
        timeInfo.tm_mday = 1;
   d6980:	9304      	str	r3, [sp, #16]
        tmToTime(&timeInfo);
   d6982:	f7ff fe7f 	bl	d6684 <_ZN9LocalTime8tmToTimeEP2tm>

        while(timeInfo.tm_wday != dayOfWeek) {
   d6986:	9a07      	ldr	r2, [sp, #28]
   d6988:	9b04      	ldr	r3, [sp, #16]
   d698a:	42ba      	cmp	r2, r7
   d698c:	d001      	beq.n	d6992 <_ZN9LocalTime16dayOfWeekOfMonthEiiii+0x4a>
            timeInfo.tm_mday++;
   d698e:	3301      	adds	r3, #1
   d6990:	e7f5      	b.n	d697e <_ZN9LocalTime16dayOfWeekOfMonthEiiii+0x36>
   d6992:	2100      	movs	r1, #0
            tmToTime(&timeInfo);
        }

        for(int loops = 1; loops <= 5; loops++) {
   d6994:	2201      	movs	r2, #1
            if (loops >= ordinal) {
   d6996:	4294      	cmp	r4, r2
   d6998:	d106      	bne.n	d69a8 <_ZN9LocalTime16dayOfWeekOfMonthEiiii+0x60>
   d699a:	b101      	cbz	r1, d699e <_ZN9LocalTime16dayOfWeekOfMonthEiiii+0x56>
   d699c:	9304      	str	r3, [sp, #16]
            timeInfo.tm_mday--;
            tmToTime(&timeInfo);
        }
        for(int loops = 1; loops <= 5; loops++) {
            if (loops >= -ordinal) {
                return timeInfo.tm_mday;
   d699e:	9c04      	ldr	r4, [sp, #16]
        }
    }

    
    return 0;
}
   d69a0:	4620      	mov	r0, r4
   d69a2:	b00a      	add	sp, #40	; 0x28
   d69a4:	e8bd 81f0 	ldmia.w	sp!, {r4, r5, r6, r7, r8, pc}
            timeInfo.tm_mday += 7;
   d69a8:	3307      	adds	r3, #7
            if (timeInfo.tm_mday > lastDay) {
   d69aa:	4543      	cmp	r3, r8
   d69ac:	dc04      	bgt.n	d69b8 <_ZN9LocalTime16dayOfWeekOfMonthEiiii+0x70>
        for(int loops = 1; loops <= 5; loops++) {
   d69ae:	3201      	adds	r2, #1
   d69b0:	2a06      	cmp	r2, #6
   d69b2:	f04f 0101 	mov.w	r1, #1
   d69b6:	d1ee      	bne.n	d6996 <_ZN9LocalTime16dayOfWeekOfMonthEiiii+0x4e>
                return 0;
   d69b8:	2400      	movs	r4, #0
   d69ba:	e7f1      	b.n	d69a0 <_ZN9LocalTime16dayOfWeekOfMonthEiiii+0x58>
    if (ordinal < 0) {
   d69bc:	d0f0      	beq.n	d69a0 <_ZN9LocalTime16dayOfWeekOfMonthEiiii+0x58>
        timeInfo.tm_mon = month - 1;
   d69be:	3d01      	subs	r5, #1
        timeInfo.tm_mday = lastDay;
   d69c0:	e9cd 0504 	strd	r0, r5, [sp, #16]
        timeInfo.tm_year = year - 1900;
   d69c4:	f2a6 766c 	subw	r6, r6, #1900	; 0x76c
   d69c8:	9606      	str	r6, [sp, #24]
        tmToTime(&timeInfo);
   d69ca:	a801      	add	r0, sp, #4
   d69cc:	f7ff fe5a 	bl	d6684 <_ZN9LocalTime8tmToTimeEP2tm>
        while(timeInfo.tm_wday != dayOfWeek) {
   d69d0:	9b07      	ldr	r3, [sp, #28]
   d69d2:	9904      	ldr	r1, [sp, #16]
   d69d4:	42bb      	cmp	r3, r7
   d69d6:	d002      	beq.n	d69de <_ZN9LocalTime16dayOfWeekOfMonthEiiii+0x96>
            timeInfo.tm_mday--;
   d69d8:	3901      	subs	r1, #1
   d69da:	9104      	str	r1, [sp, #16]
            tmToTime(&timeInfo);
   d69dc:	e7f5      	b.n	d69ca <_ZN9LocalTime16dayOfWeekOfMonthEiiii+0x82>
   d69de:	2000      	movs	r0, #0
        for(int loops = 1; loops <= 5; loops++) {
   d69e0:	2201      	movs	r2, #1
            if (loops >= -ordinal) {
   d69e2:	4264      	negs	r4, r4
   d69e4:	4294      	cmp	r4, r2
   d69e6:	dc03      	bgt.n	d69f0 <_ZN9LocalTime16dayOfWeekOfMonthEiiii+0xa8>
   d69e8:	2800      	cmp	r0, #0
   d69ea:	d0d8      	beq.n	d699e <_ZN9LocalTime16dayOfWeekOfMonthEiiii+0x56>
   d69ec:	9104      	str	r1, [sp, #16]
   d69ee:	e7d6      	b.n	d699e <_ZN9LocalTime16dayOfWeekOfMonthEiiii+0x56>
            timeInfo.tm_mday -= 7;
   d69f0:	3907      	subs	r1, #7
            if (timeInfo.tm_mday < 1) {
   d69f2:	2900      	cmp	r1, #0
   d69f4:	dde0      	ble.n	d69b8 <_ZN9LocalTime16dayOfWeekOfMonthEiiii+0x70>
        for(int loops = 1; loops <= 5; loops++) {
   d69f6:	3201      	adds	r2, #1
   d69f8:	2a06      	cmp	r2, #6
   d69fa:	f04f 0001 	mov.w	r0, #1
   d69fe:	d1f1      	bne.n	d69e4 <_ZN9LocalTime16dayOfWeekOfMonthEiiii+0x9c>
   d6a00:	e7da      	b.n	d69b8 <_ZN9LocalTime16dayOfWeekOfMonthEiiii+0x70>
	...

000d6a04 <_ZNK21LocalTimeScheduleItem20getNextScheduledTimeER16LocalTimeConvert>:
bool LocalTimeScheduleItem::getNextScheduledTime(LocalTimeConvert &conv) const {
   d6a04:	e92d 46f0 	stmdb	sp!, {r4, r5, r6, r7, r9, sl, lr}
   d6a08:	b0cd      	sub	sp, #308	; 0x134
   d6a0a:	4604      	mov	r4, r0
    LocalTimeConvert tempConv(conv);
   d6a0c:	a810      	add	r0, sp, #64	; 0x40
bool LocalTimeScheduleItem::getNextScheduledTime(LocalTimeConvert &conv) const {
   d6a0e:	460d      	mov	r5, r1
    LocalTimeConvert tempConv(conv);
   d6a10:	f7ff fcfe 	bl	d6410 <_ZN16LocalTimeConvertC1ERKS_>
        ymd.year = ymd.month = ymd.day = 0;
   d6a14:	2300      	movs	r3, #0
        return LocalTimeRestrictedDate::getExpirationDate();
   d6a16:	4620      	mov	r0, r4
        ymd.year = ymd.month = ymd.day = 0;
   d6a18:	9302      	str	r3, [sp, #8]
        return LocalTimeRestrictedDate::getExpirationDate();
   d6a1a:	f7ff fb35 	bl	d6088 <_ZNK23LocalTimeRestrictedDate17getExpirationDateEv>
    if (expirationDate.isEmpty()) {
   d6a1e:	bb58      	cbnz	r0, d6a78 <_ZNK21LocalTimeScheduleItem20getNextScheduledTimeER16LocalTimeConvert+0x74>
    *this = value.ymd();
   d6a20:	a82a      	add	r0, sp, #168	; 0xa8
   d6a22:	f7ff fcb2 	bl	d638a <_ZNK14LocalTimeValue3ymdEv>
        endYMD = tempConv.getLocalTimeYMD();
   d6a26:	9002      	str	r0, [sp, #8]
        endYMD.addDay(LocalTime::instance().getScheduleLookaheadDays());
   d6a28:	f7ff fe14 	bl	d6654 <_ZN9LocalTime8instanceEv>
   d6a2c:	6dc1      	ldr	r1, [r0, #92]	; 0x5c
   d6a2e:	a802      	add	r0, sp, #8
   d6a30:	f7ff f9f7 	bl	d5e22 <_ZN12LocalTimeYMD6addDayEi>
    for(;; tempConv.nextDay(LocalTimeHMS("00:00:00"))) {
   d6a34:	f8df a20c 	ldr.w	sl, [pc, #524]	; d6c44 <_ZNK21LocalTimeScheduleItem20getNextScheduledTimeER16LocalTimeConvert+0x240>
    *this = value.ymd();
   d6a38:	a82a      	add	r0, sp, #168	; 0xa8
   d6a3a:	f7ff fca6 	bl	d638a <_ZNK14LocalTimeValue3ymdEv>
        return compareTo(other) > 0; 
   d6a3e:	9902      	ldr	r1, [sp, #8]
        LocalTimeYMD curYMD = tempConv.getLocalTimeYMD();
   d6a40:	9003      	str	r0, [sp, #12]
    *this = value.ymd();
   d6a42:	4606      	mov	r6, r0
   d6a44:	a803      	add	r0, sp, #12
   d6a46:	f7ff fa11 	bl	d5e6c <_ZNK12LocalTimeYMD9compareToES_>
        if (curYMD > endYMD) {
   d6a4a:	2800      	cmp	r0, #0
   d6a4c:	f300 80f2 	bgt.w	d6c34 <_ZNK21LocalTimeScheduleItem20getNextScheduledTimeER16LocalTimeConvert+0x230>
        return LocalTimeRestrictedDate::isValid(ymd);
   d6a50:	4631      	mov	r1, r6
   d6a52:	4620      	mov	r0, r4
   d6a54:	f7ff fafd 	bl	d6052 <_ZNK23LocalTimeRestrictedDate7isValidE12LocalTimeYMD>
        if (!timeRange.isValidDate(curYMD)) {
   d6a58:	4607      	mov	r7, r0
   d6a5a:	2800      	cmp	r0, #0
   d6a5c:	f000 8094 	beq.w	d6b88 <_ZNK21LocalTimeScheduleItem20getNextScheduledTimeER16LocalTimeConvert+0x184>
        switch(scheduleItemType) {
   d6a60:	6ca3      	ldr	r3, [r4, #72]	; 0x48
   d6a62:	3b01      	subs	r3, #1
   d6a64:	2b04      	cmp	r3, #4
   d6a66:	f200 808f 	bhi.w	d6b88 <_ZNK21LocalTimeScheduleItem20getNextScheduledTimeER16LocalTimeConvert+0x184>
   d6a6a:	e8df f013 	tbh	[pc, r3, lsl #1]
   d6a6e:	0007      	.short	0x0007
   d6a70:	00960007 	.word	0x00960007
   d6a74:	00d500b8 	.word	0x00d500b8
        endYMD = expirationDate;
   d6a78:	9002      	str	r0, [sp, #8]
   d6a7a:	e7db      	b.n	d6a34 <_ZNK21LocalTimeScheduleItem20getNextScheduledTimeER16LocalTimeConvert+0x30>
                int cmp = timeRange.compareTo(tempConv.localTimeValue.hms());
   d6a7c:	a92a      	add	r1, sp, #168	; 0xa8
   d6a7e:	a807      	add	r0, sp, #28
   d6a80:	f7ff fc58 	bl	d6334 <_ZNK14LocalTimeValue3hmsEv>
   d6a84:	a907      	add	r1, sp, #28
   d6a86:	4620      	mov	r0, r4
   d6a88:	f7ff f937 	bl	d5cfa <_ZNK14LocalTimeRange9compareToE12LocalTimeHMS>
                if (cmp < 0) {
   d6a8c:	2800      	cmp	r0, #0
   d6a8e:	da0d      	bge.n	d6aac <_ZNK21LocalTimeScheduleItem20getNextScheduledTimeER16LocalTimeConvert+0xa8>
                    tempConv.atLocalTime(timeRange.hmsStart);
   d6a90:	f104 011c 	add.w	r1, r4, #28
   d6a94:	a807      	add	r0, sp, #28
   d6a96:	f7ff f91b 	bl	d5cd0 <_ZN12LocalTimeHMSC1ERKS_>
   d6a9a:	a907      	add	r1, sp, #28
   d6a9c:	a810      	add	r0, sp, #64	; 0x40
   d6a9e:	f7ff ff15 	bl	d68cc <_ZN16LocalTimeConvert11atLocalTimeE12LocalTimeHMS>
                        conv.time = tempConv.time;
   d6aa2:	e9dd 2328 	ldrd	r2, r3, [sp, #160]	; 0xa0
   d6aa6:	e9c5 2318 	strd	r2, r3, [r5, #96]	; 0x60
   d6aaa:	e094      	b.n	d6bd6 <_ZNK21LocalTimeScheduleItem20getNextScheduledTimeER16LocalTimeConvert+0x1d2>
                if (cmp == 0) {
   d6aac:	d16c      	bne.n	d6b88 <_ZNK21LocalTimeScheduleItem20getNextScheduledTimeER16LocalTimeConvert+0x184>
                    switch(scheduleItemType) {
   d6aae:	6ca3      	ldr	r3, [r4, #72]	; 0x48
   d6ab0:	2b01      	cmp	r3, #1
   d6ab2:	d025      	beq.n	d6b00 <_ZNK21LocalTimeScheduleItem20getNextScheduledTimeER16LocalTimeConvert+0xfc>
   d6ab4:	2b02      	cmp	r3, #2
   d6ab6:	d167      	bne.n	d6b88 <_ZNK21LocalTimeScheduleItem20getNextScheduledTimeER16LocalTimeConvert+0x184>
                        for(LocalTimeHMS tempHMS = timeRange.hmsStart; tempHMS <= timeRange.hmsEnd; tempHMS.hour += increment) {
   d6ab8:	f104 011c 	add.w	r1, r4, #28
   d6abc:	a804      	add	r0, sp, #16
   d6abe:	f7ff f907 	bl	d5cd0 <_ZN12LocalTimeHMSC1ERKS_>
   d6ac2:	f104 0924 	add.w	r9, r4, #36	; 0x24
        return compareTo(other) <= 0;
   d6ac6:	4649      	mov	r1, r9
   d6ac8:	a804      	add	r0, sp, #16
   d6aca:	f7ff f8e3 	bl	d5c94 <_ZNK12LocalTimeHMS9compareToERKS_>
   d6ace:	2800      	cmp	r0, #0
   d6ad0:	dc5a      	bgt.n	d6b88 <_ZNK21LocalTimeScheduleItem20getNextScheduledTimeER16LocalTimeConvert+0x184>
                            tempConv.atLocalTime(tempHMS);
   d6ad2:	a904      	add	r1, sp, #16
   d6ad4:	a807      	add	r0, sp, #28
   d6ad6:	f7ff f8fb 	bl	d5cd0 <_ZN12LocalTimeHMSC1ERKS_>
   d6ada:	a907      	add	r1, sp, #28
   d6adc:	a810      	add	r0, sp, #64	; 0x40
   d6ade:	f7ff fef5 	bl	d68cc <_ZN16LocalTimeConvert11atLocalTimeE12LocalTimeHMS>
                            if (tempConv.time > conv.time) {
   d6ae2:	e9d5 0118 	ldrd	r0, r1, [r5, #96]	; 0x60
   d6ae6:	e9dd 2328 	ldrd	r2, r3, [sp, #160]	; 0xa0
   d6aea:	4290      	cmp	r0, r2
   d6aec:	eb71 0303 	sbcs.w	r3, r1, r3
   d6af0:	db41      	blt.n	d6b76 <_ZNK21LocalTimeScheduleItem20getNextScheduledTimeER16LocalTimeConvert+0x172>
                        for(LocalTimeHMS tempHMS = timeRange.hmsStart; tempHMS <= timeRange.hmsEnd; tempHMS.hour += increment) {
   d6af2:	f89d 3014 	ldrb.w	r3, [sp, #20]
   d6af6:	6ae2      	ldr	r2, [r4, #44]	; 0x2c
   d6af8:	4413      	add	r3, r2
   d6afa:	f88d 3014 	strb.w	r3, [sp, #20]
   d6afe:	e7e2      	b.n	d6ac6 <_ZNK21LocalTimeScheduleItem20getNextScheduledTimeER16LocalTimeConvert+0xc2>
                        startingModulo = timeRange.hmsStart.minute % increment;
   d6b00:	6ae2      	ldr	r2, [r4, #44]	; 0x2c
   d6b02:	f994 3021 	ldrsb.w	r3, [r4, #33]	; 0x21
   d6b06:	fb93 f6f2 	sdiv	r6, r3, r2
                        tempConv.time += increment * 60;
   d6b0a:	213c      	movs	r1, #60	; 0x3c
   d6b0c:	4351      	muls	r1, r2
                        startingModulo = timeRange.hmsStart.minute % increment;
   d6b0e:	fb02 3616 	mls	r6, r2, r6, r3
                        tempConv.time += increment * 60;
   d6b12:	e9dd 2328 	ldrd	r2, r3, [sp, #160]	; 0xa0
   d6b16:	1852      	adds	r2, r2, r1
   d6b18:	eb43 73e1 	adc.w	r3, r3, r1, asr #31
                        tempConv.convert();
   d6b1c:	a810      	add	r0, sp, #64	; 0x40
                        tempConv.time += increment * 60;
   d6b1e:	e9cd 2328 	strd	r2, r3, [sp, #160]	; 0xa0
                        tempConv.convert();
   d6b22:	f7ff fe0f 	bl	d6744 <_ZN16LocalTimeConvert7convertEv>
                        LocalTime::timeToTm(tempConv.time, &timeInfo);
   d6b26:	e9dd 2328 	ldrd	r2, r3, [sp, #160]	; 0xa0
    localtime_r(&time, pTimeInfo);
   d6b2a:	a907      	add	r1, sp, #28
   d6b2c:	a804      	add	r0, sp, #16
   d6b2e:	e9cd 2304 	strd	r2, r3, [sp, #16]
   d6b32:	f002 f9ed 	bl	d8f10 <localtime_r>
                        timeInfo.tm_min -= ((tempConv.localTimeValue.minute() - startingModulo) % increment);
   d6b36:	9b2b      	ldr	r3, [sp, #172]	; 0xac
   d6b38:	6ae1      	ldr	r1, [r4, #44]	; 0x2c
   d6b3a:	1b9b      	subs	r3, r3, r6
   d6b3c:	fb93 f2f1 	sdiv	r2, r3, r1
   d6b40:	fb01 3312 	mls	r3, r1, r2, r3
   d6b44:	9a08      	ldr	r2, [sp, #32]
    return mktime(pTimeInfo);
   d6b46:	a807      	add	r0, sp, #28
                        timeInfo.tm_min -= ((tempConv.localTimeValue.minute() - startingModulo) % increment);
   d6b48:	1ad2      	subs	r2, r2, r3
                        timeInfo.tm_sec = timeRange.hmsStart.second;
   d6b4a:	f994 3022 	ldrsb.w	r3, [r4, #34]	; 0x22
                        timeInfo.tm_min -= ((tempConv.localTimeValue.minute() - startingModulo) % increment);
   d6b4e:	9208      	str	r2, [sp, #32]
                        timeInfo.tm_sec = timeRange.hmsStart.second;
   d6b50:	9307      	str	r3, [sp, #28]
    return mktime(pTimeInfo);
   d6b52:	f002 f9ed 	bl	d8f30 <mktime>
                        tempConv.time = LocalTime::tmToTime(&timeInfo);
   d6b56:	e9cd 0128 	strd	r0, r1, [sp, #160]	; 0xa0
                        tempConv.convert();
   d6b5a:	a810      	add	r0, sp, #64	; 0x40
   d6b5c:	f7ff fdf2 	bl	d6744 <_ZN16LocalTimeConvert7convertEv>
    LocalTimeHMS getLocalTimeHMS() const { return LocalTimeHMS(localTimeValue); };
   d6b60:	a92a      	add	r1, sp, #168	; 0xa8
   d6b62:	a804      	add	r0, sp, #16
   d6b64:	f7ff fbf2 	bl	d634c <_ZN12LocalTimeHMSC1ERK14LocalTimeValue>
        return compareTo(other) < 0;
   d6b68:	f104 0124 	add.w	r1, r4, #36	; 0x24
   d6b6c:	a804      	add	r0, sp, #16
   d6b6e:	f7ff f891 	bl	d5c94 <_ZNK12LocalTimeHMS9compareToERKS_>
                        if (tempConv.getLocalTimeHMS() < timeRange.hmsEnd) {
   d6b72:	2800      	cmp	r0, #0
   d6b74:	da08      	bge.n	d6b88 <_ZNK21LocalTimeScheduleItem20getNextScheduledTimeER16LocalTimeConvert+0x184>
    *this = value.ymd();
   d6b76:	a82a      	add	r0, sp, #168	; 0xa8
   d6b78:	f7ff fc07 	bl	d638a <_ZNK14LocalTimeValue3ymdEv>
   d6b7c:	4601      	mov	r1, r0
        return LocalTimeRestrictedDate::isValid(ymd);
   d6b7e:	4620      	mov	r0, r4
   d6b80:	f7ff fa67 	bl	d6052 <_ZNK23LocalTimeRestrictedDate7isValidE12LocalTimeYMD>
                        if (!timeRange.isValidDate(tempConv.getLocalTimeYMD())) {
   d6b84:	2800      	cmp	r0, #0
   d6b86:	d18c      	bne.n	d6aa2 <_ZNK21LocalTimeScheduleItem20getNextScheduledTimeER16LocalTimeConvert+0x9e>
    for(;; tempConv.nextDay(LocalTimeHMS("00:00:00"))) {
   d6b88:	4651      	mov	r1, sl
   d6b8a:	a807      	add	r0, sp, #28
   d6b8c:	f7ff f9ca 	bl	d5f24 <_ZN12LocalTimeHMSC1EPKc>
   d6b90:	a907      	add	r1, sp, #28
   d6b92:	a810      	add	r0, sp, #64	; 0x40
   d6b94:	f7ff febc 	bl	d6910 <_ZN16LocalTimeConvert7nextDayE12LocalTimeHMS>
    }
   d6b98:	e74e      	b.n	d6a38 <_ZNK21LocalTimeScheduleItem20getNextScheduledTimeER16LocalTimeConvert+0x34>
                int day = LocalTime::dayOfWeekOfMonth(tempConv.localTimeValue.year(), tempConv.localTimeValue.month(), dayOfWeek, increment);
   d6b9a:	992e      	ldr	r1, [sp, #184]	; 0xb8
   d6b9c:	982f      	ldr	r0, [sp, #188]	; 0xbc
   d6b9e:	e9d4 320b 	ldrd	r3, r2, [r4, #44]	; 0x2c
   d6ba2:	3101      	adds	r1, #1
   d6ba4:	f200 706c 	addw	r0, r0, #1900	; 0x76c
   d6ba8:	f7ff fece 	bl	d6948 <_ZN9LocalTime16dayOfWeekOfMonthEiiii>
                if (day == tempConv.localTimeValue.day()) {
   d6bac:	9b2d      	ldr	r3, [sp, #180]	; 0xb4
   d6bae:	4298      	cmp	r0, r3
   d6bb0:	d1ea      	bne.n	d6b88 <_ZNK21LocalTimeScheduleItem20getNextScheduledTimeER16LocalTimeConvert+0x184>
                        tempConv.atLocalTime(timeRange.hmsStart);
   d6bb2:	f104 011c 	add.w	r1, r4, #28
                tempConv.atLocalTime(timeRange.hmsStart);
   d6bb6:	a807      	add	r0, sp, #28
   d6bb8:	f7ff f88a 	bl	d5cd0 <_ZN12LocalTimeHMSC1ERKS_>
   d6bbc:	a907      	add	r1, sp, #28
   d6bbe:	a810      	add	r0, sp, #64	; 0x40
   d6bc0:	f7ff fe84 	bl	d68cc <_ZN16LocalTimeConvert11atLocalTimeE12LocalTimeHMS>
                if (tempConv.time > conv.time) {
   d6bc4:	e9dd 0128 	ldrd	r0, r1, [sp, #160]	; 0xa0
   d6bc8:	e9d5 2318 	ldrd	r2, r3, [r5, #96]	; 0x60
   d6bcc:	4282      	cmp	r2, r0
   d6bce:	418b      	sbcs	r3, r1
   d6bd0:	dada      	bge.n	d6b88 <_ZNK21LocalTimeScheduleItem20getNextScheduledTimeER16LocalTimeConvert+0x184>
                    conv.time = tempConv.time;
   d6bd2:	e9c5 0118 	strd	r0, r1, [r5, #96]	; 0x60
                        conv.convert();
   d6bd6:	4628      	mov	r0, r5
   d6bd8:	f7ff fdb4 	bl	d6744 <_ZN16LocalTimeConvert7convertEv>
                        return true;
   d6bdc:	e02b      	b.n	d6c36 <_ZNK21LocalTimeScheduleItem20getNextScheduledTimeER16LocalTimeConvert+0x232>
                int tempIncrement = increment;
   d6bde:	6ae6      	ldr	r6, [r4, #44]	; 0x2c
                if (tempIncrement < 0) {
   d6be0:	2e00      	cmp	r6, #0
   d6be2:	da08      	bge.n	d6bf6 <_ZNK21LocalTimeScheduleItem20getNextScheduledTimeER16LocalTimeConvert+0x1f2>
                    tempIncrement = LocalTime::lastDayOfMonth(tempConv.localTimeValue.year(), tempConv.localTimeValue.month()) + tempIncrement + 1;
   d6be4:	992e      	ldr	r1, [sp, #184]	; 0xb8
   d6be6:	982f      	ldr	r0, [sp, #188]	; 0xbc
   d6be8:	3101      	adds	r1, #1
   d6bea:	f200 706c 	addw	r0, r0, #1900	; 0x76c
   d6bee:	f7ff fd4b 	bl	d6688 <_ZN9LocalTime14lastDayOfMonthEii>
   d6bf2:	4430      	add	r0, r6
   d6bf4:	1c46      	adds	r6, r0, #1
                if (tempConv.localTimeValue.ymd().getDay() == tempIncrement) {
   d6bf6:	a82a      	add	r0, sp, #168	; 0xa8
   d6bf8:	f7ff fbc7 	bl	d638a <_ZNK14LocalTimeValue3ymdEv>
   d6bfc:	ebb6 6fd0 	cmp.w	r6, r0, lsr #27
   d6c00:	d1c2      	bne.n	d6b88 <_ZNK21LocalTimeScheduleItem20getNextScheduledTimeER16LocalTimeConvert+0x184>
                    int cmp = timeRange.compareTo(tempConv.localTimeValue.hms());
   d6c02:	a92a      	add	r1, sp, #168	; 0xa8
   d6c04:	a807      	add	r0, sp, #28
   d6c06:	f7ff fb95 	bl	d6334 <_ZNK14LocalTimeValue3hmsEv>
   d6c0a:	a907      	add	r1, sp, #28
   d6c0c:	4620      	mov	r0, r4
   d6c0e:	f7ff f874 	bl	d5cfa <_ZNK14LocalTimeRange9compareToE12LocalTimeHMS>
                    if (cmp <= 0) {
   d6c12:	2800      	cmp	r0, #0
   d6c14:	dcb8      	bgt.n	d6b88 <_ZNK21LocalTimeScheduleItem20getNextScheduledTimeER16LocalTimeConvert+0x184>
   d6c16:	e7cc      	b.n	d6bb2 <_ZNK21LocalTimeScheduleItem20getNextScheduledTimeER16LocalTimeConvert+0x1ae>
            if (tempConv.localTimeValue.hms() <= timeRange.hmsStart) {
   d6c18:	a92a      	add	r1, sp, #168	; 0xa8
   d6c1a:	a807      	add	r0, sp, #28
   d6c1c:	f7ff fb8a 	bl	d6334 <_ZNK14LocalTimeValue3hmsEv>
   d6c20:	f104 011c 	add.w	r1, r4, #28
        return compareTo(other) <= 0;
   d6c24:	a807      	add	r0, sp, #28
   d6c26:	9101      	str	r1, [sp, #4]
   d6c28:	f7ff f834 	bl	d5c94 <_ZNK12LocalTimeHMS9compareToERKS_>
   d6c2c:	2800      	cmp	r0, #0
   d6c2e:	9901      	ldr	r1, [sp, #4]
   d6c30:	dcaa      	bgt.n	d6b88 <_ZNK21LocalTimeScheduleItem20getNextScheduledTimeER16LocalTimeConvert+0x184>
   d6c32:	e7c0      	b.n	d6bb6 <_ZNK21LocalTimeScheduleItem20getNextScheduledTimeER16LocalTimeConvert+0x1b2>
    return false;
   d6c34:	2700      	movs	r7, #0
class LocalTimeConvert {
   d6c36:	a811      	add	r0, sp, #68	; 0x44
   d6c38:	f7fe ffda 	bl	d5bf0 <_ZN22LocalTimePosixTimezoneD1Ev>
}
   d6c3c:	4638      	mov	r0, r7
   d6c3e:	b04d      	add	sp, #308	; 0x134
   d6c40:	e8bd 86f0 	ldmia.w	sp!, {r4, r5, r6, r7, r9, sl, pc}
   d6c44:	000dd471 	.word	0x000dd471

000d6c48 <_ZN5spark18JSONObjectIteratorC1ERKNS_9JSONValueE>:
        k_(nullptr),
        v_(nullptr),
        n_(0) {
}

inline spark::JSONObjectIterator::JSONObjectIterator(const JSONValue &value) :
   d6c48:	b537      	push	{r0, r1, r2, r4, r5, lr}
        JSONObjectIterator(value.t_, value.d_) {
   d6c4a:	688d      	ldr	r5, [r1, #8]
inline spark::JSONObjectIterator::JSONObjectIterator(const JSONValue &value) :
   d6c4c:	4604      	mov	r4, r0
       *  @brief  Construct an empty %shared_ptr.
       *  @post   use_count()==0 && get()==0
       */
      constexpr shared_ptr() noexcept : __shared_ptr<_Tp>() { }

      shared_ptr(const shared_ptr&) noexcept = default;
   d6c4e:	4668      	mov	r0, sp
   d6c50:	f7ff f817 	bl	d5c82 <_ZNSt12__shared_ptrIN5spark6detail8JSONDataELN9__gnu_cxx12_Lock_policyE0EEC1ERKS5_>
        JSONObjectIterator(value.t_, value.d_) {
   d6c54:	466a      	mov	r2, sp
   d6c56:	4629      	mov	r1, r5
   d6c58:	4620      	mov	r0, r4
   d6c5a:	f003 f8c3 	bl	d9de4 <_ZN5spark18JSONObjectIteratorC1EPK9jsmntok_tSt10shared_ptrINS_6detail8JSONDataEE>
      ~__shared_ptr() = default;
   d6c5e:	a801      	add	r0, sp, #4
   d6c60:	f7fd ff66 	bl	d4b30 <_ZNSt14__shared_countILN9__gnu_cxx12_Lock_policyE0EED1Ev>
}
   d6c64:	4620      	mov	r0, r4
   d6c66:	b003      	add	sp, #12
   d6c68:	bd30      	pop	{r4, r5, pc}

000d6c6a <_ZNK5spark18JSONObjectIterator4nameEv>:

inline spark::JSONString spark::JSONObjectIterator::name() const {
   d6c6a:	b537      	push	{r0, r1, r2, r4, r5, lr}
    return JSONString(k_, d_);
   d6c6c:	68cd      	ldr	r5, [r1, #12]
inline spark::JSONString spark::JSONObjectIterator::name() const {
   d6c6e:	4604      	mov	r4, r0
   d6c70:	4668      	mov	r0, sp
   d6c72:	f7ff f806 	bl	d5c82 <_ZNSt12__shared_ptrIN5spark6detail8JSONDataELN9__gnu_cxx12_Lock_policyE0EEC1ERKS5_>
    return JSONString(k_, d_);
   d6c76:	466a      	mov	r2, sp
   d6c78:	4629      	mov	r1, r5
   d6c7a:	4620      	mov	r0, r4
   d6c7c:	f003 f88e 	bl	d9d9c <_ZN5spark10JSONStringC1EPK9jsmntok_tSt10shared_ptrINS_6detail8JSONDataEE>
   d6c80:	a801      	add	r0, sp, #4
   d6c82:	f7fd ff55 	bl	d4b30 <_ZNSt14__shared_countILN9__gnu_cxx12_Lock_policyE0EED1Ev>
}
   d6c86:	4620      	mov	r0, r4
   d6c88:	b003      	add	sp, #12
   d6c8a:	bd30      	pop	{r4, r5, pc}

000d6c8c <_ZNK5spark18JSONObjectIterator5valueEv>:

inline spark::JSONValue spark::JSONObjectIterator::value() const {
   d6c8c:	b537      	push	{r0, r1, r2, r4, r5, lr}
    return JSONValue(v_, d_);
   d6c8e:	690d      	ldr	r5, [r1, #16]
inline spark::JSONValue spark::JSONObjectIterator::value() const {
   d6c90:	4604      	mov	r4, r0
   d6c92:	4668      	mov	r0, sp
   d6c94:	f7fe fff5 	bl	d5c82 <_ZNSt12__shared_ptrIN5spark6detail8JSONDataELN9__gnu_cxx12_Lock_policyE0EEC1ERKS5_>
    return JSONValue(v_, d_);
   d6c98:	466a      	mov	r2, sp
   d6c9a:	4629      	mov	r1, r5
   d6c9c:	4620      	mov	r0, r4
   d6c9e:	f003 f826 	bl	d9cee <_ZN5spark9JSONValueC1EPK9jsmntok_tSt10shared_ptrINS_6detail8JSONDataEE>
   d6ca2:	a801      	add	r0, sp, #4
   d6ca4:	f7fd ff44 	bl	d4b30 <_ZNSt14__shared_countILN9__gnu_cxx12_Lock_policyE0EED1Ev>
}
   d6ca8:	4620      	mov	r0, r4
   d6caa:	b003      	add	sp, #12
   d6cac:	bd30      	pop	{r4, r5, pc}

000d6cae <_ZNSt6vectorI12LocalTimeYMDSaIS0_EEC1ERKS2_>:
       *  (i.e. capacity() == size() in the new %vector).
       *
       *  The newly-created %vector uses a copy of the allocator object used
       *  by @a __x (unless the allocator traits dictate a different object).
       */
      vector(const vector& __x)
   d6cae:	b570      	push	{r4, r5, r6, lr}

      // [23.2.4.2] capacity
      /**  Returns the number of elements in the %vector.  */
      size_type
      size() const _GLIBCXX_NOEXCEPT
      { return size_type(this->_M_impl._M_finish - this->_M_impl._M_start); }
   d6cb0:	e9d1 3600 	ldrd	r3, r6, [r1]
   d6cb4:	1af6      	subs	r6, r6, r3
	: _M_start(), _M_finish(), _M_end_of_storage()
   d6cb6:	2300      	movs	r3, #0
   d6cb8:	e9c0 3300 	strd	r3, r3, [r0]
      vector(const vector& __x)
   d6cbc:	4604      	mov	r4, r0
	: _M_start(), _M_finish(), _M_end_of_storage()
   d6cbe:	6083      	str	r3, [r0, #8]
	this->_M_impl._M_start = this->_M_allocate(__n);
   d6cc0:	10b0      	asrs	r0, r6, #2
      vector(const vector& __x)
   d6cc2:	460d      	mov	r5, r1
	this->_M_impl._M_start = this->_M_allocate(__n);
   d6cc4:	f7fe ffd0 	bl	d5c68 <_ZNSt12_Vector_baseI12LocalTimeYMDSaIS0_EE11_M_allocateEj.isra.0>
   d6cc8:	e9d5 5300 	ldrd	r5, r3, [r5]
	this->_M_impl._M_finish = this->_M_impl._M_start;
   d6ccc:	e9c4 0000 	strd	r0, r0, [r4]
	this->_M_impl._M_end_of_storage = this->_M_impl._M_start + __n;
   d6cd0:	4406      	add	r6, r0
   d6cd2:	60a6      	str	r6, [r4, #8]
	  std::__uninitialized_copy_a(__x.begin(), __x.end(),
   d6cd4:	462a      	mov	r2, r5
      template<typename _InputIterator, typename _ForwardIterator>
        static _ForwardIterator
        __uninit_copy(_InputIterator __first, _InputIterator __last,
		      _ForwardIterator __result)
        {
	  _ForwardIterator __cur = __result;
   d6cd6:	4601      	mov	r1, r0
	  __try
	    {
	      for (; __first != __last; ++__first, (void)++__cur)
   d6cd8:	4293      	cmp	r3, r2
   d6cda:	d005      	beq.n	d6ce8 <_ZNSt6vectorI12LocalTimeYMDSaIS0_EEC1ERKS2_+0x3a>
   */
#if __cplusplus >= 201103L
  template<typename _T1, typename... _Args>
    inline void
    _Construct(_T1* __p, _Args&&... __args)
    { ::new(static_cast<void*>(__p)) _T1(std::forward<_Args>(__args)...); }
   d6cdc:	b109      	cbz	r1, d6ce2 <_ZNSt6vectorI12LocalTimeYMDSaIS0_EEC1ERKS2_+0x34>
   d6cde:	6816      	ldr	r6, [r2, #0]
   d6ce0:	600e      	str	r6, [r1, #0]
   d6ce2:	3104      	adds	r1, #4
   d6ce4:	3204      	adds	r2, #4
   d6ce6:	e7f7      	b.n	d6cd8 <_ZNSt6vectorI12LocalTimeYMDSaIS0_EEC1ERKS2_+0x2a>
	this->_M_impl._M_finish =
   d6ce8:	1b5b      	subs	r3, r3, r5
   d6cea:	4418      	add	r0, r3
   d6cec:	6060      	str	r0, [r4, #4]
      }
   d6cee:	4620      	mov	r0, r4
   d6cf0:	bd70      	pop	{r4, r5, r6, pc}

000d6cf2 <_ZN23LocalTimeRestrictedDateC1ERKS_>:
class LocalTimeRestrictedDate {
   d6cf2:	b538      	push	{r3, r4, r5, lr}
   d6cf4:	460d      	mov	r5, r1
   d6cf6:	f811 3b04 	ldrb.w	r3, [r1], #4
   d6cfa:	4604      	mov	r4, r0
   d6cfc:	f800 3b04 	strb.w	r3, [r0], #4
   d6d00:	f7ff ffd5 	bl	d6cae <_ZNSt6vectorI12LocalTimeYMDSaIS0_EEC1ERKS2_>
   d6d04:	f105 0110 	add.w	r1, r5, #16
   d6d08:	f104 0010 	add.w	r0, r4, #16
   d6d0c:	f7ff ffcf 	bl	d6cae <_ZNSt6vectorI12LocalTimeYMDSaIS0_EEC1ERKS2_>
   d6d10:	4620      	mov	r0, r4
   d6d12:	bd38      	pop	{r3, r4, r5, pc}

000d6d14 <_ZN21LocalTimeScheduleItemC1ERKS_>:
class LocalTimeScheduleItem {
   d6d14:	b538      	push	{r3, r4, r5, lr}
   d6d16:	4604      	mov	r4, r0
   d6d18:	460d      	mov	r5, r1
class LocalTimeRange : public LocalTimeRestrictedDate {
   d6d1a:	f7ff ffea 	bl	d6cf2 <_ZN23LocalTimeRestrictedDateC1ERKS_>
   d6d1e:	f105 011c 	add.w	r1, r5, #28
   d6d22:	f104 001c 	add.w	r0, r4, #28
   d6d26:	f7fe ffd3 	bl	d5cd0 <_ZN12LocalTimeHMSC1ERKS_>
   d6d2a:	f105 0124 	add.w	r1, r5, #36	; 0x24
   d6d2e:	f104 0024 	add.w	r0, r4, #36	; 0x24
   d6d32:	f7fe ffcd 	bl	d5cd0 <_ZN12LocalTimeHMSC1ERKS_>
class LocalTimeScheduleItem {
   d6d36:	6aeb      	ldr	r3, [r5, #44]	; 0x2c
   d6d38:	62e3      	str	r3, [r4, #44]	; 0x2c
   d6d3a:	6b2b      	ldr	r3, [r5, #48]	; 0x30
   d6d3c:	6323      	str	r3, [r4, #48]	; 0x30
   d6d3e:	6b6b      	ldr	r3, [r5, #52]	; 0x34
   d6d40:	6363      	str	r3, [r4, #52]	; 0x34
   d6d42:	f105 0138 	add.w	r1, r5, #56	; 0x38
   d6d46:	f104 0038 	add.w	r0, r4, #56	; 0x38
   d6d4a:	f004 fc09 	bl	db560 <_ZN6StringC1ERKS_>
   d6d4e:	6cab      	ldr	r3, [r5, #72]	; 0x48
   d6d50:	64a3      	str	r3, [r4, #72]	; 0x48
   d6d52:	4620      	mov	r0, r4
   d6d54:	bd38      	pop	{r3, r4, r5, pc}

000d6d56 <_ZNK17LocalTimeSchedule20getNextScheduledTimeER16LocalTimeConvertSt8functionIFbR21LocalTimeScheduleItemEE>:
bool LocalTimeSchedule::getNextScheduledTime(LocalTimeConvert &conv, std::function<bool(LocalTimeScheduleItem &item)> filter) const {
   d6d56:	e92d 43f0 	stmdb	sp!, {r4, r5, r6, r7, r8, r9, lr}
   d6d5a:	f8d0 8020 	ldr.w	r8, [r0, #32]
   d6d5e:	b0d1      	sub	sp, #324	; 0x144
   d6d60:	4681      	mov	r9, r0
   d6d62:	460c      	mov	r4, r1
   d6d64:	4615      	mov	r5, r2
    time_t closestTime = 0;
   d6d66:	2600      	movs	r6, #0
   d6d68:	2700      	movs	r7, #0
    for(auto it = scheduleItems.begin(); it != scheduleItems.end(); ++it) {
   d6d6a:	f8d9 3024 	ldr.w	r3, [r9, #36]	; 0x24
   d6d6e:	4543      	cmp	r3, r8
   d6d70:	d029      	beq.n	d6dc6 <_ZNK17LocalTimeSchedule20getNextScheduledTimeER16LocalTimeConvertSt8functionIFbR21LocalTimeScheduleItemEE+0x70>
        LocalTimeScheduleItem item = *it;
   d6d72:	4641      	mov	r1, r8
   d6d74:	a801      	add	r0, sp, #4
   d6d76:	f7ff ffcd 	bl	d6d14 <_ZN21LocalTimeScheduleItemC1ERKS_>
  template<typename _Res, typename... _ArgTypes>
    _Res
    function<_Res(_ArgTypes...)>::
    operator()(_ArgTypes... __args) const
    {
      if (_M_empty())
   d6d7a:	68ab      	ldr	r3, [r5, #8]
   d6d7c:	b90b      	cbnz	r3, d6d82 <_ZNK17LocalTimeSchedule20getNextScheduledTimeER16LocalTimeConvertSt8functionIFbR21LocalTimeScheduleItemEE+0x2c>
	__throw_bad_function_call();
   d6d7e:	f005 f909 	bl	dbf94 <_ZSt25__throw_bad_function_callv>
      return _M_invoker(_M_functor, std::forward<_ArgTypes>(__args)...);
   d6d82:	68eb      	ldr	r3, [r5, #12]
   d6d84:	a901      	add	r1, sp, #4
   d6d86:	4628      	mov	r0, r5
   d6d88:	4798      	blx	r3
        if (filter(item)) {
   d6d8a:	b1b0      	cbz	r0, d6dba <_ZNK17LocalTimeSchedule20getNextScheduledTimeER16LocalTimeConvertSt8functionIFbR21LocalTimeScheduleItemEE+0x64>
            LocalTimeConvert tmpConvert(conv);
   d6d8c:	4621      	mov	r1, r4
   d6d8e:	a814      	add	r0, sp, #80	; 0x50
   d6d90:	f7ff fb3e 	bl	d6410 <_ZN16LocalTimeConvertC1ERKS_>
            bool bResult = item.getNextScheduledTime(tmpConvert);
   d6d94:	a914      	add	r1, sp, #80	; 0x50
   d6d96:	a801      	add	r0, sp, #4
   d6d98:	f7ff fe34 	bl	d6a04 <_ZNK21LocalTimeScheduleItem20getNextScheduledTimeER16LocalTimeConvert>
            if (bResult && closestTime == 0 || tmpConvert.time < closestTime) {
   d6d9c:	e9dd 232c 	ldrd	r2, r3, [sp, #176]	; 0xb0
   d6da0:	b110      	cbz	r0, d6da8 <_ZNK17LocalTimeSchedule20getNextScheduledTimeER16LocalTimeConvertSt8functionIFbR21LocalTimeScheduleItemEE+0x52>
   d6da2:	ea56 0107 	orrs.w	r1, r6, r7
   d6da6:	d003      	beq.n	d6db0 <_ZNK17LocalTimeSchedule20getNextScheduledTimeER16LocalTimeConvertSt8functionIFbR21LocalTimeScheduleItemEE+0x5a>
   d6da8:	42b2      	cmp	r2, r6
   d6daa:	eb73 0107 	sbcs.w	r1, r3, r7
   d6dae:	da01      	bge.n	d6db4 <_ZNK17LocalTimeSchedule20getNextScheduledTimeER16LocalTimeConvertSt8functionIFbR21LocalTimeScheduleItemEE+0x5e>
                closestTime = tmpConvert.time;
   d6db0:	4616      	mov	r6, r2
   d6db2:	461f      	mov	r7, r3
class LocalTimeConvert {
   d6db4:	a815      	add	r0, sp, #84	; 0x54
   d6db6:	f7fe ff1b 	bl	d5bf0 <_ZN22LocalTimePosixTimezoneD1Ev>
        LocalTimeScheduleItem item = *it;
   d6dba:	a801      	add	r0, sp, #4
   d6dbc:	f7ff fb5c 	bl	d6478 <_ZN21LocalTimeScheduleItemD1Ev>
      operator++() _GLIBCXX_NOEXCEPT
   d6dc0:	f108 084c 	add.w	r8, r8, #76	; 0x4c
	return *this;
   d6dc4:	e7d1      	b.n	d6d6a <_ZNK17LocalTimeSchedule20getNextScheduledTimeER16LocalTimeConvertSt8functionIFbR21LocalTimeScheduleItemEE+0x14>
    if (closestTime != 0) {
   d6dc6:	ea56 0307 	orrs.w	r3, r6, r7
   d6dca:	d008      	beq.n	d6dde <_ZNK17LocalTimeSchedule20getNextScheduledTimeER16LocalTimeConvertSt8functionIFbR21LocalTimeScheduleItemEE+0x88>
        conv.convert();
   d6dcc:	4620      	mov	r0, r4
        conv.time = closestTime;
   d6dce:	e9c4 6718 	strd	r6, r7, [r4, #96]	; 0x60
        conv.convert();
   d6dd2:	f7ff fcb7 	bl	d6744 <_ZN16LocalTimeConvert7convertEv>
        return true;
   d6dd6:	2001      	movs	r0, #1
}
   d6dd8:	b051      	add	sp, #324	; 0x144
   d6dda:	e8bd 83f0 	ldmia.w	sp!, {r4, r5, r6, r7, r8, r9, pc}
        return false;
   d6dde:	2000      	movs	r0, #0
   d6de0:	e7fa      	b.n	d6dd8 <_ZNK17LocalTimeSchedule20getNextScheduledTimeER16LocalTimeConvertSt8functionIFbR21LocalTimeScheduleItemEE+0x82>
	...

000d6de4 <_ZNK17LocalTimeSchedule20getNextScheduledTimeER16LocalTimeConvert>:
bool LocalTimeSchedule::getNextScheduledTime(LocalTimeConvert &conv) const {
   d6de4:	b51f      	push	{r0, r1, r2, r3, r4, lr}
	    _M_invoker = &_My_handler::_M_invoke;
   d6de6:	4b08      	ldr	r3, [pc, #32]	; (d6e08 <_ZNK17LocalTimeSchedule20getNextScheduledTimeER16LocalTimeConvert+0x24>)
   d6de8:	9303      	str	r3, [sp, #12]
    return getNextScheduledTime(conv, [](LocalTimeScheduleItem &item) {
   d6dea:	466a      	mov	r2, sp
	    _M_manager = &_My_handler::_M_manager;
   d6dec:	4b07      	ldr	r3, [pc, #28]	; (d6e0c <_ZNK17LocalTimeSchedule20getNextScheduledTimeER16LocalTimeConvert+0x28>)
   d6dee:	9302      	str	r3, [sp, #8]
   d6df0:	f7ff ffb1 	bl	d6d56 <_ZNK17LocalTimeSchedule20getNextScheduledTimeER16LocalTimeConvertSt8functionIFbR21LocalTimeScheduleItemEE>
      if (_M_manager)
   d6df4:	9b02      	ldr	r3, [sp, #8]
   d6df6:	4604      	mov	r4, r0
   d6df8:	b11b      	cbz	r3, d6e02 <_ZNK17LocalTimeSchedule20getNextScheduledTimeER16LocalTimeConvert+0x1e>
	_M_manager(_M_functor, _M_functor, __destroy_functor);
   d6dfa:	4669      	mov	r1, sp
   d6dfc:	2203      	movs	r2, #3
   d6dfe:	4608      	mov	r0, r1
   d6e00:	4798      	blx	r3
}
   d6e02:	4620      	mov	r0, r4
   d6e04:	b004      	add	sp, #16
   d6e06:	bd10      	pop	{r4, pc}
   d6e08:	000d5bc5 	.word	0x000d5bc5
   d6e0c:	000d5bc9 	.word	0x000d5bc9

000d6e10 <_ZN17LocalTimeSchedule15isScheduledTimeER16LocalTimeConvertx>:
bool LocalTimeSchedule::isScheduledTime(LocalTimeConvert &conv, time_t timeNow) {
   d6e10:	b570      	push	{r4, r5, r6, lr}
   d6e12:	4604      	mov	r4, r0
   d6e14:	460d      	mov	r5, r1
   d6e16:	4610      	mov	r0, r2
   d6e18:	4619      	mov	r1, r3
    if (nextTime != 0 && nextTime <= timeNow) {
   d6e1a:	e9d4 2306 	ldrd	r2, r3, [r4, #24]
   d6e1e:	ea52 0603 	orrs.w	r6, r2, r3
   d6e22:	d013      	beq.n	d6e4c <_ZN17LocalTimeSchedule15isScheduledTimeER16LocalTimeConvertx+0x3c>
   d6e24:	4290      	cmp	r0, r2
   d6e26:	eb71 0303 	sbcs.w	r3, r1, r3
   d6e2a:	db0f      	blt.n	d6e4c <_ZN17LocalTimeSchedule15isScheduledTimeER16LocalTimeConvertx+0x3c>
        nextTime = 0;
   d6e2c:	2200      	movs	r2, #0
   d6e2e:	2300      	movs	r3, #0
   d6e30:	e9c4 2306 	strd	r2, r3, [r4, #24]
        result = true;
   d6e34:	2601      	movs	r6, #1
    if (getNextScheduledTime(conv)) {
   d6e36:	4629      	mov	r1, r5
   d6e38:	4620      	mov	r0, r4
   d6e3a:	f7ff ffd3 	bl	d6de4 <_ZNK17LocalTimeSchedule20getNextScheduledTimeER16LocalTimeConvert>
   d6e3e:	b118      	cbz	r0, d6e48 <_ZN17LocalTimeSchedule15isScheduledTimeER16LocalTimeConvertx+0x38>
        nextTime = conv.time;
   d6e40:	e9d5 2318 	ldrd	r2, r3, [r5, #96]	; 0x60
   d6e44:	e9c4 2306 	strd	r2, r3, [r4, #24]
}
   d6e48:	4630      	mov	r0, r6
   d6e4a:	bd70      	pop	{r4, r5, r6, pc}
    bool result = false;
   d6e4c:	2600      	movs	r6, #0
   d6e4e:	e7f2      	b.n	d6e36 <_ZN17LocalTimeSchedule15isScheduledTimeER16LocalTimeConvertx+0x26>

000d6e50 <_ZN17LocalTimeSchedule15isScheduledTimeEv>:
bool LocalTimeSchedule::isScheduledTime() {
   d6e50:	b530      	push	{r4, r5, lr}
   d6e52:	b0bd      	sub	sp, #244	; 0xf4
   d6e54:	4605      	mov	r5, r0
    if (!Time.isValid()) {
   d6e56:	f004 fd8d 	bl	db974 <_ZN9TimeClass7isValidEv>
   d6e5a:	4604      	mov	r4, r0
   d6e5c:	b1c0      	cbz	r0, d6e90 <_ZN17LocalTimeSchedule15isScheduledTimeEv+0x40>
   d6e5e:	2306      	movs	r3, #6
   d6e60:	a801      	add	r0, sp, #4
   d6e62:	9300      	str	r3, [sp, #0]
   d6e64:	f7ff f988 	bl	d6178 <_ZN22LocalTimePosixTimezoneC1Ev>
    LocalTimeConvert &withCurrentTime() { this->time = Time.now(); return *this; };
   d6e68:	f004 fda1 	bl	db9ae <_ZN9TimeClass3nowEv>
   d6e6c:	17c1      	asrs	r1, r0, #31
   d6e6e:	e9cd 0118 	strd	r0, r1, [sp, #96]	; 0x60
    conv.withCurrentTime().convert();
   d6e72:	4668      	mov	r0, sp
   d6e74:	f7ff fc66 	bl	d6744 <_ZN16LocalTimeConvert7convertEv>
    return isScheduledTime(conv, Time.now());
   d6e78:	f004 fd99 	bl	db9ae <_ZN9TimeClass3nowEv>
   d6e7c:	4669      	mov	r1, sp
   d6e7e:	4602      	mov	r2, r0
   d6e80:	17c3      	asrs	r3, r0, #31
   d6e82:	4628      	mov	r0, r5
   d6e84:	f7ff ffc4 	bl	d6e10 <_ZN17LocalTimeSchedule15isScheduledTimeER16LocalTimeConvertx>
   d6e88:	4604      	mov	r4, r0
class LocalTimeConvert {
   d6e8a:	a801      	add	r0, sp, #4
   d6e8c:	f7fe feb0 	bl	d5bf0 <_ZN22LocalTimePosixTimezoneD1Ev>
}
   d6e90:	4620      	mov	r0, r4
   d6e92:	b03d      	add	sp, #244	; 0xf4
   d6e94:	bd30      	pop	{r4, r5, pc}

000d6e96 <_ZNSt6vectorI12LocalTimeYMDSaIS0_EEaSERKS2_>:
  template<typename _Tp, typename _Alloc>
    vector<_Tp, _Alloc>&
    vector<_Tp, _Alloc>::
    operator=(const vector<_Tp, _Alloc>& __x)
    {
      if (&__x != this)
   d6e96:	4281      	cmp	r1, r0
    vector<_Tp, _Alloc>::
   d6e98:	e92d 41f0 	stmdb	sp!, {r4, r5, r6, r7, r8, lr}
   d6e9c:	4604      	mov	r4, r0
   d6e9e:	460e      	mov	r6, r1
      if (&__x != this)
   d6ea0:	d022      	beq.n	d6ee8 <_ZNSt6vectorI12LocalTimeYMDSaIS0_EEaSERKS2_+0x52>
      { return size_type(this->_M_impl._M_finish - this->_M_impl._M_start); }
   d6ea2:	e9d1 5800 	ldrd	r5, r8, [r1]
       *  hold before needing to allocate more memory.
       */
      size_type
      capacity() const _GLIBCXX_NOEXCEPT
      { return size_type(this->_M_impl._M_end_of_storage
			 - this->_M_impl._M_start); }
   d6ea6:	6800      	ldr	r0, [r0, #0]
   d6ea8:	68a3      	ldr	r3, [r4, #8]
   d6eaa:	1a1b      	subs	r3, r3, r0
      { return size_type(this->_M_impl._M_finish - this->_M_impl._M_start); }
   d6eac:	eba8 0705 	sub.w	r7, r8, r5
			 - this->_M_impl._M_start); }
   d6eb0:	109b      	asrs	r3, r3, #2
	      std::__alloc_on_copy(_M_get_Tp_allocator(),
				   __x._M_get_Tp_allocator());
	    }
#endif
	  const size_type __xlen = __x.size();
	  if (__xlen > capacity())
   d6eb2:	ebb3 0fa7 	cmp.w	r3, r7, asr #2
      { return size_type(this->_M_impl._M_finish - this->_M_impl._M_start); }
   d6eb6:	ea4f 01a7 	mov.w	r1, r7, asr #2
   d6eba:	d218      	bcs.n	d6eee <_ZNSt6vectorI12LocalTimeYMDSaIS0_EEaSERKS2_+0x58>
      template<typename _ForwardIterator>
	pointer
	_M_allocate_and_copy(size_type __n,
			     _ForwardIterator __first, _ForwardIterator __last)
	{
	  pointer __result = this->_M_allocate(__n);
   d6ebc:	4608      	mov	r0, r1
   d6ebe:	f7fe fed3 	bl	d5c68 <_ZNSt12_Vector_baseI12LocalTimeYMDSaIS0_EE11_M_allocateEj.isra.0>
   d6ec2:	4606      	mov	r6, r0
	  _ForwardIterator __cur = __result;
   d6ec4:	4603      	mov	r3, r0
	      for (; __first != __last; ++__first, (void)++__cur)
   d6ec6:	45a8      	cmp	r8, r5
   d6ec8:	d005      	beq.n	d6ed6 <_ZNSt6vectorI12LocalTimeYMDSaIS0_EEaSERKS2_+0x40>
   d6eca:	b10b      	cbz	r3, d6ed0 <_ZNSt6vectorI12LocalTimeYMDSaIS0_EEaSERKS2_+0x3a>
   d6ecc:	682a      	ldr	r2, [r5, #0]
   d6ece:	601a      	str	r2, [r3, #0]
   d6ed0:	3304      	adds	r3, #4
   d6ed2:	3504      	adds	r5, #4
   d6ed4:	e7f7      	b.n	d6ec6 <_ZNSt6vectorI12LocalTimeYMDSaIS0_EEaSERKS2_+0x30>
	    {
	      pointer __tmp = _M_allocate_and_copy(__xlen, __x.begin(),
						   __x.end());
	      std::_Destroy(this->_M_impl._M_start, this->_M_impl._M_finish,
			    _M_get_Tp_allocator());
	      _M_deallocate(this->_M_impl._M_start,
   d6ed6:	6820      	ldr	r0, [r4, #0]
   d6ed8:	f7fe fec2 	bl	d5c60 <_ZNSt12_Vector_baseI12LocalTimeYMDSaIS0_EE13_M_deallocateEPS0_j.isra.0>
			    this->_M_impl._M_end_of_storage
			    - this->_M_impl._M_start);
	      this->_M_impl._M_start = __tmp;
   d6edc:	6026      	str	r6, [r4, #0]
	      this->_M_impl._M_end_of_storage = this->_M_impl._M_start + __xlen;
   d6ede:	443e      	add	r6, r7
   d6ee0:	60a6      	str	r6, [r4, #8]
	      std::__uninitialized_copy_a(__x._M_impl._M_start + size(),
					  __x._M_impl._M_finish,
					  this->_M_impl._M_finish,
					  _M_get_Tp_allocator());
	    }
	  this->_M_impl._M_finish = this->_M_impl._M_start + __xlen;
   d6ee2:	6823      	ldr	r3, [r4, #0]
   d6ee4:	441f      	add	r7, r3
   d6ee6:	6067      	str	r7, [r4, #4]
	}
      return *this;
    }
   d6ee8:	4620      	mov	r0, r4
   d6eea:	e8bd 81f0 	ldmia.w	sp!, {r4, r5, r6, r7, r8, pc}
      { return size_type(this->_M_impl._M_finish - this->_M_impl._M_start); }
   d6eee:	6862      	ldr	r2, [r4, #4]
   d6ef0:	1a12      	subs	r2, r2, r0
	  else if (size() >= __xlen)
   d6ef2:	ebb1 0fa2 	cmp.w	r1, r2, asr #2
   d6ef6:	d806      	bhi.n	d6f06 <_ZNSt6vectorI12LocalTimeYMDSaIS0_EEaSERKS2_+0x70>
					   is_copy_assignable<_Tp>>;
	  // trivial types can have deleted assignment
	  static_assert( __assignable::type::value, "type is not assignable" );
#endif
	  const ptrdiff_t _Num = __last - __first;
	  if (_Num)
   d6ef8:	45a8      	cmp	r8, r5
   d6efa:	d0f2      	beq.n	d6ee2 <_ZNSt6vectorI12LocalTimeYMDSaIS0_EEaSERKS2_+0x4c>
	    __builtin_memmove(__result, __first, sizeof(_Tp) * _Num);
   d6efc:	463a      	mov	r2, r7
   d6efe:	4629      	mov	r1, r5
   d6f00:	f005 fcd6 	bl	dc8b0 <memmove>
      __normal_iterator(const _Iterator& __i) _GLIBCXX_NOEXCEPT
   d6f04:	e7ed      	b.n	d6ee2 <_ZNSt6vectorI12LocalTimeYMDSaIS0_EEaSERKS2_+0x4c>
	  if (_Num)
   d6f06:	b112      	cbz	r2, d6f0e <_ZNSt6vectorI12LocalTimeYMDSaIS0_EEaSERKS2_+0x78>
	    __builtin_memmove(__result, __first, sizeof(_Tp) * _Num);
   d6f08:	4629      	mov	r1, r5
   d6f0a:	f005 fcd1 	bl	dc8b0 <memmove>
   d6f0e:	e9d4 3200 	ldrd	r3, r2, [r4]
   d6f12:	1ad1      	subs	r1, r2, r3
	      std::__uninitialized_copy_a(__x._M_impl._M_start + size(),
   d6f14:	6833      	ldr	r3, [r6, #0]
   d6f16:	440b      	add	r3, r1
					  __x._M_impl._M_finish,
   d6f18:	6871      	ldr	r1, [r6, #4]
   d6f1a:	4299      	cmp	r1, r3
   d6f1c:	d0e1      	beq.n	d6ee2 <_ZNSt6vectorI12LocalTimeYMDSaIS0_EEaSERKS2_+0x4c>
   d6f1e:	b10a      	cbz	r2, d6f24 <_ZNSt6vectorI12LocalTimeYMDSaIS0_EEaSERKS2_+0x8e>
   d6f20:	6818      	ldr	r0, [r3, #0]
   d6f22:	6010      	str	r0, [r2, #0]
   d6f24:	3304      	adds	r3, #4
   d6f26:	3204      	adds	r2, #4
   d6f28:	e7f7      	b.n	d6f1a <_ZNSt6vectorI12LocalTimeYMDSaIS0_EEaSERKS2_+0x84>

000d6f2a <_ZN14LocalTimeRangeaSERKS_>:
class LocalTimeRange : public LocalTimeRestrictedDate {
   d6f2a:	b538      	push	{r3, r4, r5, lr}
   d6f2c:	460d      	mov	r5, r1
class LocalTimeRestrictedDate {
   d6f2e:	f811 3b04 	ldrb.w	r3, [r1], #4
class LocalTimeRange : public LocalTimeRestrictedDate {
   d6f32:	4604      	mov	r4, r0
class LocalTimeRestrictedDate {
   d6f34:	f800 3b04 	strb.w	r3, [r0], #4
   d6f38:	f7ff ffad 	bl	d6e96 <_ZNSt6vectorI12LocalTimeYMDSaIS0_EEaSERKS2_>
   d6f3c:	f105 0110 	add.w	r1, r5, #16
   d6f40:	f104 0010 	add.w	r0, r4, #16
   d6f44:	f7ff ffa7 	bl	d6e96 <_ZNSt6vectorI12LocalTimeYMDSaIS0_EEaSERKS2_>
class LocalTimeRange : public LocalTimeRestrictedDate {
   d6f48:	f105 011c 	add.w	r1, r5, #28
   d6f4c:	f104 001c 	add.w	r0, r4, #28
   d6f50:	f7fe fec6 	bl	d5ce0 <_ZN12LocalTimeHMSaSERKS_>
   d6f54:	f105 0124 	add.w	r1, r5, #36	; 0x24
   d6f58:	f104 0024 	add.w	r0, r4, #36	; 0x24
   d6f5c:	f7fe fec0 	bl	d5ce0 <_ZN12LocalTimeHMSaSERKS_>
   d6f60:	4620      	mov	r0, r4
   d6f62:	bd38      	pop	{r3, r4, r5, pc}

000d6f64 <_ZNSt6vectorI21LocalTimeScheduleItemSaIS0_EE17_M_realloc_insertIJRKS0_EEEvN9__gnu_cxx17__normal_iteratorIPS0_S2_EEDpOT_>:

#if __cplusplus >= 201103L
  template<typename _Tp, typename _Alloc>
    template<typename... _Args>
      void
      vector<_Tp, _Alloc>::
   d6f64:	e92d 4ff7 	stmdb	sp!, {r0, r1, r2, r4, r5, r6, r7, r8, r9, sl, fp, lr}
   d6f68:	e9d0 6900 	ldrd	r6, r9, [r0]
   d6f6c:	4d3b      	ldr	r5, [pc, #236]	; (d705c <_ZNSt6vectorI21LocalTimeScheduleItemSaIS0_EE17_M_realloc_insertIJRKS0_EEEvN9__gnu_cxx17__normal_iteratorIPS0_S2_EEDpOT_+0xf8>)

      // Called by _M_fill_insert, _M_insert_aux etc.
      size_type
      _M_check_len(size_type __n, const char* __s) const
      {
	if (max_size() - size() < __n)
   d6f6e:	4b3c      	ldr	r3, [pc, #240]	; (d7060 <_ZNSt6vectorI21LocalTimeScheduleItemSaIS0_EE17_M_realloc_insertIJRKS0_EEEvN9__gnu_cxx17__normal_iteratorIPS0_S2_EEDpOT_+0xfc>)
      { return size_type(this->_M_impl._M_finish - this->_M_impl._M_start); }
   d6f70:	eba9 0406 	sub.w	r4, r9, r6
   d6f74:	10a4      	asrs	r4, r4, #2
   d6f76:	436c      	muls	r4, r5
	if (max_size() - size() < __n)
   d6f78:	429c      	cmp	r4, r3
   d6f7a:	468a      	mov	sl, r1
   d6f7c:	4607      	mov	r7, r0
   d6f7e:	4611      	mov	r1, r2
   d6f80:	46a8      	mov	r8, r5
   d6f82:	d102      	bne.n	d6f8a <_ZNSt6vectorI21LocalTimeScheduleItemSaIS0_EE17_M_realloc_insertIJRKS0_EEEvN9__gnu_cxx17__normal_iteratorIPS0_S2_EEDpOT_+0x26>
	  __throw_length_error(__N(__s));
   d6f84:	4837      	ldr	r0, [pc, #220]	; (d7064 <_ZNSt6vectorI21LocalTimeScheduleItemSaIS0_EE17_M_realloc_insertIJRKS0_EEEvN9__gnu_cxx17__normal_iteratorIPS0_S2_EEDpOT_+0x100>)
   d6f86:	f005 f802 	bl	dbf8e <_ZSt20__throw_length_errorPKc>
   d6f8a:	2c01      	cmp	r4, #1
   d6f8c:	4622      	mov	r2, r4
   d6f8e:	bf38      	it	cc
   d6f90:	2201      	movcc	r2, #1
   d6f92:	18a4      	adds	r4, r4, r2
   d6f94:	ebaa 0506 	sub.w	r5, sl, r6

	const size_type __len = size() + (std::max)(size(), __n);
	return (__len < size() || __len > max_size()) ? max_size() : __len;
   d6f98:	d25d      	bcs.n	d7056 <_ZNSt6vectorI21LocalTimeScheduleItemSaIS0_EE17_M_realloc_insertIJRKS0_EEEvN9__gnu_cxx17__normal_iteratorIPS0_S2_EEDpOT_+0xf2>
	return __n != 0 ? _Tr::allocate(_M_impl, __n) : pointer();
   d6f9a:	b154      	cbz	r4, d6fb2 <_ZNSt6vectorI21LocalTimeScheduleItemSaIS0_EE17_M_realloc_insertIJRKS0_EEEvN9__gnu_cxx17__normal_iteratorIPS0_S2_EEDpOT_+0x4e>
   d6f9c:	429c      	cmp	r4, r3
   d6f9e:	bf28      	it	cs
   d6fa0:	461c      	movcs	r4, r3
   d6fa2:	204c      	movs	r0, #76	; 0x4c
   d6fa4:	4360      	muls	r0, r4
   d6fa6:	9100      	str	r1, [sp, #0]
   d6fa8:	f7fd f875 	bl	d4096 <_Znwj>
   d6fac:	9900      	ldr	r1, [sp, #0]
   d6fae:	4683      	mov	fp, r0
   d6fb0:	e000      	b.n	d6fb4 <_ZNSt6vectorI21LocalTimeScheduleItemSaIS0_EE17_M_realloc_insertIJRKS0_EEEvN9__gnu_cxx17__normal_iteratorIPS0_S2_EEDpOT_+0x50>
   d6fb2:	46a3      	mov	fp, r4
      template<typename _Up, typename... _Args>
	void
	construct(_Up* __p, _Args&&... __args)
	noexcept(noexcept(::new((void *)__p)
			    _Up(std::forward<_Args>(__args)...)))
	{ ::new((void *)__p) _Up(std::forward<_Args>(__args)...); }
   d6fb4:	eb1b 0005 	adds.w	r0, fp, r5
   d6fb8:	d001      	beq.n	d6fbe <_ZNSt6vectorI21LocalTimeScheduleItemSaIS0_EE17_M_realloc_insertIJRKS0_EEEvN9__gnu_cxx17__normal_iteratorIPS0_S2_EEDpOT_+0x5a>
   d6fba:	f7ff feab 	bl	d6d14 <_ZN21LocalTimeScheduleItemC1ERKS_>
   d6fbe:	465b      	mov	r3, fp
      { return size_type(this->_M_impl._M_finish - this->_M_impl._M_start); }
   d6fc0:	4631      	mov	r1, r6
   d6fc2:	458a      	cmp	sl, r1
   d6fc4:	d00a      	beq.n	d6fdc <_ZNSt6vectorI21LocalTimeScheduleItemSaIS0_EE17_M_realloc_insertIJRKS0_EEEvN9__gnu_cxx17__normal_iteratorIPS0_S2_EEDpOT_+0x78>
   d6fc6:	b133      	cbz	r3, d6fd6 <_ZNSt6vectorI21LocalTimeScheduleItemSaIS0_EE17_M_realloc_insertIJRKS0_EEEvN9__gnu_cxx17__normal_iteratorIPS0_S2_EEDpOT_+0x72>
   d6fc8:	4618      	mov	r0, r3
   d6fca:	9101      	str	r1, [sp, #4]
   d6fcc:	9300      	str	r3, [sp, #0]
   d6fce:	f7ff fea1 	bl	d6d14 <_ZN21LocalTimeScheduleItemC1ERKS_>
   d6fd2:	e9dd 3100 	ldrd	r3, r1, [sp]
   d6fd6:	314c      	adds	r1, #76	; 0x4c
   d6fd8:	334c      	adds	r3, #76	; 0x4c
   d6fda:	e7f2      	b.n	d6fc2 <_ZNSt6vectorI21LocalTimeScheduleItemSaIS0_EE17_M_realloc_insertIJRKS0_EEEvN9__gnu_cxx17__normal_iteratorIPS0_S2_EEDpOT_+0x5e>
   d6fdc:	08ad      	lsrs	r5, r5, #2
   d6fde:	fb08 fa05 	mul.w	sl, r8, r5
   d6fe2:	f02a 4540 	bic.w	r5, sl, #3221225472	; 0xc0000000
   d6fe6:	f04f 0a4c 	mov.w	sl, #76	; 0x4c
   d6fea:	fb0a fa05 	mul.w	sl, sl, r5
   d6fee:	eb06 050a 	add.w	r5, r6, sl
	      __new_finish
		= std::__uninitialized_move_if_noexcept_a
		(__old_start, __position.base(),
		 __new_start, _M_get_Tp_allocator());

	      ++__new_finish;
   d6ff2:	f10a 0a4c 	add.w	sl, sl, #76	; 0x4c
   d6ff6:	44da      	add	sl, fp
	  _ForwardIterator __cur = __result;
   d6ff8:	4653      	mov	r3, sl
   d6ffa:	4629      	mov	r1, r5
	      for (; __first != __last; ++__first, (void)++__cur)
   d6ffc:	4549      	cmp	r1, r9
   d6ffe:	d113      	bne.n	d7028 <_ZNSt6vectorI21LocalTimeScheduleItemSaIS0_EE17_M_realloc_insertIJRKS0_EEEvN9__gnu_cxx17__normal_iteratorIPS0_S2_EEDpOT_+0xc4>
   d7000:	eba9 0505 	sub.w	r5, r9, r5
   d7004:	08ad      	lsrs	r5, r5, #2
   d7006:	fb08 f505 	mul.w	r5, r8, r5
   d700a:	f025 4540 	bic.w	r5, r5, #3221225472	; 0xc0000000
   d700e:	f04f 084c 	mov.w	r8, #76	; 0x4c
   d7012:	fb08 a505 	mla	r5, r8, r5, sl
   d7016:	46b0      	mov	r8, r6
    {
      template<typename _ForwardIterator>
        static void
        __destroy(_ForwardIterator __first, _ForwardIterator __last)
	{
	  for (; __first != __last; ++__first)
   d7018:	45c8      	cmp	r8, r9
   d701a:	d00f      	beq.n	d703c <_ZNSt6vectorI21LocalTimeScheduleItemSaIS0_EE17_M_realloc_insertIJRKS0_EEEvN9__gnu_cxx17__normal_iteratorIPS0_S2_EEDpOT_+0xd8>
    { __pointer->~_Tp(); }
   d701c:	4640      	mov	r0, r8
   d701e:	f7ff fa2b 	bl	d6478 <_ZN21LocalTimeScheduleItemD1Ev>
	  for (; __first != __last; ++__first)
   d7022:	f108 084c 	add.w	r8, r8, #76	; 0x4c
   d7026:	e7f7      	b.n	d7018 <_ZNSt6vectorI21LocalTimeScheduleItemSaIS0_EE17_M_realloc_insertIJRKS0_EEEvN9__gnu_cxx17__normal_iteratorIPS0_S2_EEDpOT_+0xb4>
    { ::new(static_cast<void*>(__p)) _T1(std::forward<_Args>(__args)...); }
   d7028:	4618      	mov	r0, r3
   d702a:	9101      	str	r1, [sp, #4]
   d702c:	9300      	str	r3, [sp, #0]
   d702e:	f7ff fe71 	bl	d6d14 <_ZN21LocalTimeScheduleItemC1ERKS_>
   d7032:	9901      	ldr	r1, [sp, #4]
   d7034:	9b00      	ldr	r3, [sp, #0]
   d7036:	314c      	adds	r1, #76	; 0x4c
   d7038:	334c      	adds	r3, #76	; 0x4c
   d703a:	e7df      	b.n	d6ffc <_ZNSt6vectorI21LocalTimeScheduleItemSaIS0_EE17_M_realloc_insertIJRKS0_EEEvN9__gnu_cxx17__normal_iteratorIPS0_S2_EEDpOT_+0x98>
	if (__p)
   d703c:	b116      	cbz	r6, d7044 <_ZNSt6vectorI21LocalTimeScheduleItemSaIS0_EE17_M_realloc_insertIJRKS0_EEEvN9__gnu_cxx17__normal_iteratorIPS0_S2_EEDpOT_+0xe0>
	::operator delete(__p);
   d703e:	4630      	mov	r0, r6
   d7040:	f7fd f82d 	bl	d409e <_ZdlPv>
      _GLIBCXX_ASAN_ANNOTATE_REINIT;
      _M_deallocate(__old_start,
		    this->_M_impl._M_end_of_storage - __old_start);
      this->_M_impl._M_start = __new_start;
      this->_M_impl._M_finish = __new_finish;
      this->_M_impl._M_end_of_storage = __new_start + __len;
   d7044:	204c      	movs	r0, #76	; 0x4c
   d7046:	fb00 b404 	mla	r4, r0, r4, fp
      this->_M_impl._M_finish = __new_finish;
   d704a:	e9c7 b500 	strd	fp, r5, [r7]
      this->_M_impl._M_end_of_storage = __new_start + __len;
   d704e:	60bc      	str	r4, [r7, #8]
    }
   d7050:	b003      	add	sp, #12
   d7052:	e8bd 8ff0 	ldmia.w	sp!, {r4, r5, r6, r7, r8, r9, sl, fp, pc}
	return (__len < size() || __len > max_size()) ? max_size() : __len;
   d7056:	461c      	mov	r4, r3
   d7058:	e7a3      	b.n	d6fa2 <_ZNSt6vectorI21LocalTimeScheduleItemSaIS0_EE17_M_realloc_insertIJRKS0_EEEvN9__gnu_cxx17__normal_iteratorIPS0_S2_EEDpOT_+0x3e>
   d705a:	bf00      	nop
   d705c:	286bca1b 	.word	0x286bca1b
   d7060:	01af286b 	.word	0x01af286b
   d7064:	000dd49c 	.word	0x000dd49c

000d7068 <_ZNSt6vectorI21LocalTimeScheduleItemSaIS0_EE9push_backERKS0_>:
      push_back(const value_type& __x)
   d7068:	b538      	push	{r3, r4, r5, lr}
	if (this->_M_impl._M_finish != this->_M_impl._M_end_of_storage)
   d706a:	e9d0 3501 	ldrd	r3, r5, [r0, #4]
   d706e:	42ab      	cmp	r3, r5
      push_back(const value_type& __x)
   d7070:	4604      	mov	r4, r0
   d7072:	460a      	mov	r2, r1
	if (this->_M_impl._M_finish != this->_M_impl._M_end_of_storage)
   d7074:	d007      	beq.n	d7086 <_ZNSt6vectorI21LocalTimeScheduleItemSaIS0_EE9push_backERKS0_+0x1e>
	{ ::new((void *)__p) _Up(std::forward<_Args>(__args)...); }
   d7076:	b113      	cbz	r3, d707e <_ZNSt6vectorI21LocalTimeScheduleItemSaIS0_EE9push_backERKS0_+0x16>
   d7078:	4618      	mov	r0, r3
   d707a:	f7ff fe4b 	bl	d6d14 <_ZN21LocalTimeScheduleItemC1ERKS_>
	    ++this->_M_impl._M_finish;
   d707e:	6863      	ldr	r3, [r4, #4]
   d7080:	334c      	adds	r3, #76	; 0x4c
   d7082:	6063      	str	r3, [r4, #4]
      }
   d7084:	bd38      	pop	{r3, r4, r5, pc}
	  _M_realloc_insert(end(), __x);
   d7086:	4619      	mov	r1, r3
   d7088:	f7ff ff6c 	bl	d6f64 <_ZNSt6vectorI21LocalTimeScheduleItemSaIS0_EE17_M_realloc_insertIJRKS0_EEEvN9__gnu_cxx17__normal_iteratorIPS0_S2_EEDpOT_>
      }
   d708c:	e7fa      	b.n	d7084 <_ZNSt6vectorI21LocalTimeScheduleItemSaIS0_EE9push_backERKS0_+0x1c>

000d708e <_ZN17LocalTimeSchedule16withMinuteOfHourEi14LocalTimeRange>:
LocalTimeSchedule &LocalTimeSchedule::withMinuteOfHour(int increment, LocalTimeRange timeRange) {
   d708e:	b530      	push	{r4, r5, lr}
   d7090:	b097      	sub	sp, #92	; 0x5c
   d7092:	4604      	mov	r4, r0
    LocalTimeScheduleItem item;
   d7094:	a803      	add	r0, sp, #12
LocalTimeSchedule &LocalTimeSchedule::withMinuteOfHour(int increment, LocalTimeRange timeRange) {
   d7096:	9201      	str	r2, [sp, #4]
   d7098:	460d      	mov	r5, r1
    LocalTimeScheduleItem item;
   d709a:	f7fe ff4f 	bl	d5f3c <_ZN21LocalTimeScheduleItemC1Ev>
    item.scheduleItemType = LocalTimeScheduleItem::ScheduleItemType::MINUTE_OF_HOUR;
   d709e:	2301      	movs	r3, #1
    item.timeRange = timeRange;
   d70a0:	9901      	ldr	r1, [sp, #4]
    item.scheduleItemType = LocalTimeScheduleItem::ScheduleItemType::MINUTE_OF_HOUR;
   d70a2:	9315      	str	r3, [sp, #84]	; 0x54
    item.timeRange = timeRange;
   d70a4:	a803      	add	r0, sp, #12
    item.increment = increment;
   d70a6:	950e      	str	r5, [sp, #56]	; 0x38
    item.timeRange = timeRange;
   d70a8:	f7ff ff3f 	bl	d6f2a <_ZN14LocalTimeRangeaSERKS_>
    scheduleItems.push_back(item);
   d70ac:	a903      	add	r1, sp, #12
   d70ae:	f104 0020 	add.w	r0, r4, #32
   d70b2:	f7ff ffd9 	bl	d7068 <_ZNSt6vectorI21LocalTimeScheduleItemSaIS0_EE9push_backERKS0_>
    LocalTimeScheduleItem item;
   d70b6:	a803      	add	r0, sp, #12
   d70b8:	f7ff f9de 	bl	d6478 <_ZN21LocalTimeScheduleItemD1Ev>
}
   d70bc:	4620      	mov	r0, r4
   d70be:	b017      	add	sp, #92	; 0x5c
   d70c0:	bd30      	pop	{r4, r5, pc}

000d70c2 <_ZN6MB85RCD1Ev>:
MB85RC::MB85RC(TwoWire &wire, size_t memorySize, int addr) :
	wire(wire), memorySize(memorySize), addr(addr) {
}

MB85RC::~MB85RC() {
}
   d70c2:	4770      	bx	lr

000d70c4 <_ZN6MB85RCD0Ev>:
MB85RC::~MB85RC() {
   d70c4:	b510      	push	{r4, lr}
}
   d70c6:	2110      	movs	r1, #16
MB85RC::~MB85RC() {
   d70c8:	4604      	mov	r4, r0
}
   d70ca:	f004 ff57 	bl	dbf7c <_ZdlPvj>
   d70ce:	4620      	mov	r0, r4
   d70d0:	bd10      	pop	{r4, pc}

000d70d2 <_ZN7TwoWire5writeEj>:
  bool lock();
  bool unlock();

  inline size_t write(unsigned long n) { return write((uint8_t)n); }
  inline size_t write(long n) { return write((uint8_t)n); }
  inline size_t write(unsigned int n) { return write((uint8_t)n); }
   d70d2:	6803      	ldr	r3, [r0, #0]
   d70d4:	b2c9      	uxtb	r1, r1
   d70d6:	689b      	ldr	r3, [r3, #8]
   d70d8:	4718      	bx	r3
	...

000d70dc <_ZN6MB85RCC1ER7TwoWireji>:
MB85RC::MB85RC(TwoWire &wire, size_t memorySize, int addr) :
   d70dc:	b530      	push	{r4, r5, lr}
	wire(wire), memorySize(memorySize), addr(addr) {
   d70de:	4d03      	ldr	r5, [pc, #12]	; (d70ec <_ZN6MB85RCC1ER7TwoWireji+0x10>)
   d70e0:	e9c0 2302 	strd	r2, r3, [r0, #8]
   d70e4:	e9c0 5100 	strd	r5, r1, [r0]
}
   d70e8:	bd30      	pop	{r4, r5, pc}
   d70ea:	bf00      	nop
   d70ec:	000dd52c 	.word	0x000dd52c

000d70f0 <_ZN6MB85RC5beginEv>:

void MB85RC::begin() {
	wire.begin();
   d70f0:	6840      	ldr	r0, [r0, #4]
   d70f2:	f002 bc79 	b.w	d99e8 <_ZN7TwoWire5beginEv>

000d70f6 <_ZNSt10lock_guardIR7TwoWireED1Ev>:
      { _M_device.lock(); }

      lock_guard(mutex_type& __m, adopt_lock_t) noexcept : _M_device(__m)
      { } // calling thread owns mutex

      ~lock_guard()
   d70f6:	b510      	push	{r4, lr}
   d70f8:	4604      	mov	r4, r0
      { _M_device.unlock(); }
   d70fa:	6800      	ldr	r0, [r0, #0]
   d70fc:	f002 fccf 	bl	d9a9e <_ZN7TwoWire6unlockEv>
   d7100:	4620      	mov	r0, r4
   d7102:	bd10      	pop	{r4, pc}

000d7104 <_ZN6MB85RC5eraseEv>:
}

bool MB85RC::erase() {
   d7104:	e92d 41f0 	stmdb	sp!, {r4, r5, r6, r7, r8, lr}
   d7108:	b08a      	sub	sp, #40	; 0x28
   d710a:	4604      	mov	r4, r0

	WITH_LOCK(wire) {
   d710c:	6840      	ldr	r0, [r0, #4]
      explicit lock_guard(mutex_type& __m) : _M_device(__m)
   d710e:	9001      	str	r0, [sp, #4]
      { _M_device.lock(); }
   d7110:	f002 fcbc 	bl	d9a8c <_ZN7TwoWire4lockEv>
		size_t framAddr = 0;
		size_t totalLen = memorySize;

		uint8_t zero[30];
		memset(zero, 0, sizeof(zero));
   d7114:	221e      	movs	r2, #30
   d7116:	2100      	movs	r1, #0
   d7118:	a802      	add	r0, sp, #8
		size_t totalLen = memorySize;
   d711a:	68a7      	ldr	r7, [r4, #8]
		memset(zero, 0, sizeof(zero));
   d711c:	f005 fbe2 	bl	dc8e4 <memset>
		size_t framAddr = 0;
   d7120:	2600      	movs	r6, #0

		while(totalLen > 0) {
   d7122:	b1ef      	cbz	r7, d7160 <_ZN6MB85RC5eraseEv+0x5c>
			size_t count = totalLen;
			if (count > sizeof(zero)) {
				count = sizeof(zero);
			}

			bool result = writeData(framAddr, zero, count);
   d7124:	6823      	ldr	r3, [r4, #0]
   d7126:	2f1e      	cmp	r7, #30
   d7128:	46b8      	mov	r8, r7
   d712a:	bf28      	it	cs
   d712c:	f04f 081e 	movcs.w	r8, #30
   d7130:	68dd      	ldr	r5, [r3, #12]
   d7132:	aa02      	add	r2, sp, #8
   d7134:	4643      	mov	r3, r8
   d7136:	4631      	mov	r1, r6
   d7138:	4620      	mov	r0, r4
   d713a:	47a8      	blx	r5
			if (!result) {
   d713c:	4605      	mov	r5, r0
   d713e:	b958      	cbnz	r0, d7158 <_ZN6MB85RC5eraseEv+0x54>
				Log.info("writeData failed during erase framAddr=%u", framAddr);
   d7140:	480a      	ldr	r0, [pc, #40]	; (d716c <_ZN6MB85RC5eraseEv+0x68>)
   d7142:	490b      	ldr	r1, [pc, #44]	; (d7170 <_ZN6MB85RC5eraseEv+0x6c>)
   d7144:	4632      	mov	r2, r6
   d7146:	f7fd f80d 	bl	d4164 <_ZNK5spark6Logger4infoEPKcz>
	WITH_LOCK(wire) {
   d714a:	a801      	add	r0, sp, #4
   d714c:	f7ff ffd3 	bl	d70f6 <_ZNSt10lock_guardIR7TwoWireED1Ev>
			framAddr += count;
		}
	}

	return true;
}
   d7150:	4628      	mov	r0, r5
   d7152:	b00a      	add	sp, #40	; 0x28
   d7154:	e8bd 81f0 	ldmia.w	sp!, {r4, r5, r6, r7, r8, pc}
			totalLen -= count;
   d7158:	eba7 0708 	sub.w	r7, r7, r8
			framAddr += count;
   d715c:	4446      	add	r6, r8
		while(totalLen > 0) {
   d715e:	e7e0      	b.n	d7122 <_ZN6MB85RC5eraseEv+0x1e>
	WITH_LOCK(wire) {
   d7160:	a801      	add	r0, sp, #4
   d7162:	f7ff ffc8 	bl	d70f6 <_ZNSt10lock_guardIR7TwoWireED1Ev>
	return true;
   d7166:	2501      	movs	r5, #1
   d7168:	e7f2      	b.n	d7150 <_ZN6MB85RC5eraseEv+0x4c>
   d716a:	bf00      	nop
   d716c:	2003e570 	.word	0x2003e570
   d7170:	000dd4f8 	.word	0x000dd4f8

000d7174 <_ZN6MB85RC8readDataEjPhj>:


bool MB85RC::readData(size_t framAddr, uint8_t *data, size_t dataLen) {
   d7174:	e92d 43f7 	stmdb	sp!, {r0, r1, r2, r4, r5, r6, r7, r8, r9, lr}
   d7178:	4604      	mov	r4, r0
	bool result = true;

	WITH_LOCK(wire) {
   d717a:	6840      	ldr	r0, [r0, #4]
      explicit lock_guard(mutex_type& __m) : _M_device(__m)
   d717c:	9001      	str	r0, [sp, #4]
bool MB85RC::readData(size_t framAddr, uint8_t *data, size_t dataLen) {
   d717e:	460d      	mov	r5, r1
   d7180:	4616      	mov	r6, r2
   d7182:	461f      	mov	r7, r3
      { _M_device.lock(); }
   d7184:	f002 fc82 	bl	d9a8c <_ZN7TwoWire4lockEv>

		while(dataLen > 0) {
   d7188:	b1a7      	cbz	r7, d71b4 <_ZN6MB85RC8readDataEjPhj+0x40>
			wire.beginTransmission(addr | DEVICE_ADDR);
   d718a:	68e1      	ldr	r1, [r4, #12]
   d718c:	6860      	ldr	r0, [r4, #4]
   d718e:	f041 0150 	orr.w	r1, r1, #80	; 0x50
   d7192:	f002 fc5c 	bl	d9a4e <_ZN7TwoWire17beginTransmissionEi>
			wire.write(framAddr >> 8);
   d7196:	0a29      	lsrs	r1, r5, #8
   d7198:	6860      	ldr	r0, [r4, #4]
   d719a:	f7ff ff9a 	bl	d70d2 <_ZN7TwoWire5writeEj>
			wire.write(framAddr);
   d719e:	4629      	mov	r1, r5
   d71a0:	6860      	ldr	r0, [r4, #4]
   d71a2:	f7ff ff96 	bl	d70d2 <_ZN7TwoWire5writeEj>
			int stat = wire.endTransmission(false);
   d71a6:	6860      	ldr	r0, [r4, #4]
   d71a8:	2100      	movs	r1, #0
   d71aa:	f002 fc6b 	bl	d9a84 <_ZN7TwoWire15endTransmissionEh>
			if (stat != 0) {
   d71ae:	b148      	cbz	r0, d71c4 <_ZN6MB85RC8readDataEjPhj+0x50>
				//Serial.printlnf("read set address failed %d", stat);
				result = false;
   d71b0:	2400      	movs	r4, #0
   d71b2:	e000      	b.n	d71b6 <_ZN6MB85RC8readDataEjPhj+0x42>
   d71b4:	2401      	movs	r4, #1
	WITH_LOCK(wire) {
   d71b6:	a801      	add	r0, sp, #4
   d71b8:	f7ff ff9d 	bl	d70f6 <_ZNSt10lock_guardIR7TwoWireED1Ev>
				dataLen--;
			}
		}
	}
	return result;
}
   d71bc:	4620      	mov	r0, r4
   d71be:	b003      	add	sp, #12
   d71c0:	e8bd 83f0 	ldmia.w	sp!, {r4, r5, r6, r7, r8, r9, pc}
			if (bytesToRead > 32) {
   d71c4:	2f20      	cmp	r7, #32
			wire.requestFrom((uint8_t)(addr | DEVICE_ADDR), bytesToRead, (uint8_t) true);
   d71c6:	7b21      	ldrb	r1, [r4, #12]
   d71c8:	6860      	ldr	r0, [r4, #4]
   d71ca:	46b8      	mov	r8, r7
   d71cc:	bf28      	it	cs
   d71ce:	f04f 0820 	movcs.w	r8, #32
   d71d2:	2301      	movs	r3, #1
   d71d4:	4642      	mov	r2, r8
   d71d6:	f041 0150 	orr.w	r1, r1, #80	; 0x50
   d71da:	f002 fc22 	bl	d9a22 <_ZN7TwoWire11requestFromEhjh>
			if (Wire.available() < (int) bytesToRead) {
   d71de:	f004 fe85 	bl	dbeec <_Z19__fetch_global_Wirev>
   d71e2:	6803      	ldr	r3, [r0, #0]
   d71e4:	691b      	ldr	r3, [r3, #16]
   d71e6:	4798      	blx	r3
   d71e8:	4540      	cmp	r0, r8
   d71ea:	dbe1      	blt.n	d71b0 <_ZN6MB85RC8readDataEjPhj+0x3c>
   d71ec:	eb06 0908 	add.w	r9, r6, r8
				*data++ = Wire.read();    // receive a byte as character
   d71f0:	f004 fe7c 	bl	dbeec <_Z19__fetch_global_Wirev>
   d71f4:	6803      	ldr	r3, [r0, #0]
   d71f6:	695b      	ldr	r3, [r3, #20]
   d71f8:	4798      	blx	r3
   d71fa:	f806 0b01 	strb.w	r0, [r6], #1
			for(size_t ii = 0; ii < bytesToRead; ii++) {
   d71fe:	454e      	cmp	r6, r9
   d7200:	d1f6      	bne.n	d71f0 <_ZN6MB85RC8readDataEjPhj+0x7c>
   d7202:	4445      	add	r5, r8
   d7204:	eba7 0708 	sub.w	r7, r7, r8
   d7208:	e7be      	b.n	d7188 <_ZN6MB85RC8readDataEjPhj+0x14>

000d720a <_ZN6MB85RC9writeDataEjPKhj>:


bool MB85RC::writeData(size_t framAddr, const uint8_t *data, size_t dataLen) {
   d720a:	e92d 4ff7 	stmdb	sp!, {r0, r1, r2, r4, r5, r6, r7, r8, r9, sl, fp, lr}
   d720e:	4604      	mov	r4, r0
	bool result = true;

	WITH_LOCK(wire) {
   d7210:	6840      	ldr	r0, [r0, #4]
      explicit lock_guard(mutex_type& __m) : _M_device(__m)
   d7212:	9001      	str	r0, [sp, #4]
bool MB85RC::writeData(size_t framAddr, const uint8_t *data, size_t dataLen) {
   d7214:	460e      	mov	r6, r1
   d7216:	4690      	mov	r8, r2
   d7218:	461d      	mov	r5, r3
      { _M_device.lock(); }
   d721a:	f002 fc37 	bl	d9a8c <_ZN7TwoWire4lockEv>
   d721e:	f04f 0901 	mov.w	r9, #1
	WITH_LOCK(wire) {
   d7222:	f1b9 0f00 	cmp.w	r9, #0
   d7226:	d02a      	beq.n	d727e <_ZN6MB85RC9writeDataEjPKhj+0x74>
		while(dataLen > 0) {
   d7228:	b34d      	cbz	r5, d727e <_ZN6MB85RC9writeDataEjPKhj+0x74>
			wire.beginTransmission(addr | DEVICE_ADDR);
   d722a:	68e1      	ldr	r1, [r4, #12]
   d722c:	6860      	ldr	r0, [r4, #4]
   d722e:	f041 0150 	orr.w	r1, r1, #80	; 0x50
   d7232:	f002 fc0c 	bl	d9a4e <_ZN7TwoWire17beginTransmissionEi>
			wire.write(framAddr >> 8);
   d7236:	0a31      	lsrs	r1, r6, #8
   d7238:	6860      	ldr	r0, [r4, #4]
   d723a:	f7ff ff4a 	bl	d70d2 <_ZN7TwoWire5writeEj>
			wire.write(framAddr);
   d723e:	6860      	ldr	r0, [r4, #4]
   d7240:	4631      	mov	r1, r6
   d7242:	f7ff ff46 	bl	d70d2 <_ZN7TwoWire5writeEj>

			for(size_t ii = 0; ii < 30 && dataLen > 0; ii++) {
   d7246:	f1a5 0a1e 	sub.w	sl, r5, #30
			wire.write(framAddr);
   d724a:	4647      	mov	r7, r8
   d724c:	eba6 0b08 	sub.w	fp, r6, r8
				wire.write(*data);
   d7250:	6860      	ldr	r0, [r4, #4]
   d7252:	f817 1b01 	ldrb.w	r1, [r7], #1
   d7256:	6803      	ldr	r3, [r0, #0]
				framAddr++;
				data++;
				dataLen--;
   d7258:	3d01      	subs	r5, #1
				wire.write(*data);
   d725a:	689b      	ldr	r3, [r3, #8]
   d725c:	4798      	blx	r3
			for(size_t ii = 0; ii < 30 && dataLen > 0; ii++) {
   d725e:	4555      	cmp	r5, sl
   d7260:	eb0b 0607 	add.w	r6, fp, r7
				data++;
   d7264:	46b8      	mov	r8, r7
			for(size_t ii = 0; ii < 30 && dataLen > 0; ii++) {
   d7266:	d001      	beq.n	d726c <_ZN6MB85RC9writeDataEjPKhj+0x62>
   d7268:	2d00      	cmp	r5, #0
   d726a:	d1f1      	bne.n	d7250 <_ZN6MB85RC9writeDataEjPKhj+0x46>
			}

			int stat = wire.endTransmission(true);
   d726c:	6860      	ldr	r0, [r4, #4]
   d726e:	2101      	movs	r1, #1
   d7270:	f002 fc08 	bl	d9a84 <_ZN7TwoWire15endTransmissionEh>
			if (stat != 0) {
   d7274:	2800      	cmp	r0, #0
   d7276:	d0d7      	beq.n	d7228 <_ZN6MB85RC9writeDataEjPKhj+0x1e>
				//Serial.printlnf("write failed %d", stat);
				result = false;
   d7278:	f04f 0900 	mov.w	r9, #0
   d727c:	e7d1      	b.n	d7222 <_ZN6MB85RC9writeDataEjPKhj+0x18>
	WITH_LOCK(wire) {
   d727e:	a801      	add	r0, sp, #4
   d7280:	f7ff ff39 	bl	d70f6 <_ZNSt10lock_guardIR7TwoWireED1Ev>
				break;
			}
		}
	}
	return result;
}
   d7284:	4648      	mov	r0, r9
   d7286:	b003      	add	sp, #12
   d7288:	e8bd 8ff0 	ldmia.w	sp!, {r4, r5, r6, r7, r8, r9, sl, fp, pc}

000d728c <_ZN6MB85RC8moveDataEjjj>:


bool MB85RC::moveData(size_t framAddrFrom, size_t framAddrTo, size_t numBytes) {
   d728c:	e92d 43f0 	stmdb	sp!, {r4, r5, r6, r7, r8, r9, lr}
   d7290:	b08b      	sub	sp, #44	; 0x2c
   d7292:	460e      	mov	r6, r1
   d7294:	4615      	mov	r5, r2
   d7296:	4680      	mov	r8, r0
	bool result = true;

	// Maximum number of bytes we can write is 30
	uint8_t buf[30];

	WITH_LOCK(wire) {
   d7298:	6840      	ldr	r0, [r0, #4]
      explicit lock_guard(mutex_type& __m) : _M_device(__m)
   d729a:	9001      	str	r0, [sp, #4]
bool MB85RC::moveData(size_t framAddrFrom, size_t framAddrTo, size_t numBytes) {
   d729c:	461c      	mov	r4, r3
      { _M_device.lock(); }
   d729e:	f002 fbf5 	bl	d9a8c <_ZN7TwoWire4lockEv>
		if (framAddrFrom < framAddrTo) {
   d72a2:	42ae      	cmp	r6, r5
   d72a4:	d229      	bcs.n	d72fa <_ZN6MB85RC8moveDataEjjj+0x6e>
			// Moving to a higher address - copy from the end of the from buffer
			framAddrFrom += numBytes;
   d72a6:	4426      	add	r6, r4
			framAddrTo += numBytes;
   d72a8:	4425      	add	r5, r4
			while(numBytes > 0) {
   d72aa:	b18c      	cbz	r4, d72d0 <_ZN6MB85RC8moveDataEjjj+0x44>
				size_t count = numBytes;
				if (count > sizeof(buf)) {
   d72ac:	2c1e      	cmp	r4, #30
   d72ae:	4627      	mov	r7, r4
					count = sizeof(buf);
				}
				framAddrFrom -= count;
				framAddrTo -= count;

				result = readData(framAddrFrom, buf, count);
   d72b0:	f8d8 3000 	ldr.w	r3, [r8]
   d72b4:	bf28      	it	cs
   d72b6:	271e      	movcs	r7, #30
				framAddrFrom -= count;
   d72b8:	1bf6      	subs	r6, r6, r7
				result = readData(framAddrFrom, buf, count);
   d72ba:	f8d3 9008 	ldr.w	r9, [r3, #8]
   d72be:	aa02      	add	r2, sp, #8
   d72c0:	463b      	mov	r3, r7
   d72c2:	4631      	mov	r1, r6
   d72c4:	4640      	mov	r0, r8
				framAddrTo -= count;
   d72c6:	1bed      	subs	r5, r5, r7
				result = readData(framAddrFrom, buf, count);
   d72c8:	47c8      	blx	r9
				if (!result) {
   d72ca:	b948      	cbnz	r0, d72e0 <_ZN6MB85RC8moveDataEjjj+0x54>
bool MB85RC::moveData(size_t framAddrFrom, size_t framAddrTo, size_t numBytes) {
   d72cc:	2400      	movs	r4, #0
   d72ce:	e000      	b.n	d72d2 <_ZN6MB85RC8moveDataEjjj+0x46>
   d72d0:	2401      	movs	r4, #1
	WITH_LOCK(wire) {
   d72d2:	a801      	add	r0, sp, #4
   d72d4:	f7ff ff0f 	bl	d70f6 <_ZNSt10lock_guardIR7TwoWireED1Ev>
				numBytes -= count;
			}
		}
	}
	return result;
}
   d72d8:	4620      	mov	r0, r4
   d72da:	b00b      	add	sp, #44	; 0x2c
   d72dc:	e8bd 83f0 	ldmia.w	sp!, {r4, r5, r6, r7, r8, r9, pc}
				result = writeData(framAddrTo, buf, count);
   d72e0:	f8d8 3000 	ldr.w	r3, [r8]
   d72e4:	aa02      	add	r2, sp, #8
   d72e6:	f8d3 900c 	ldr.w	r9, [r3, #12]
   d72ea:	4629      	mov	r1, r5
   d72ec:	463b      	mov	r3, r7
   d72ee:	4640      	mov	r0, r8
   d72f0:	47c8      	blx	r9
				if (!result) {
   d72f2:	2800      	cmp	r0, #0
   d72f4:	d0ea      	beq.n	d72cc <_ZN6MB85RC8moveDataEjjj+0x40>
				numBytes -= count;
   d72f6:	1be4      	subs	r4, r4, r7
			while(numBytes > 0) {
   d72f8:	e7d7      	b.n	d72aa <_ZN6MB85RC8moveDataEjjj+0x1e>
		if (framAddrFrom > framAddrTo) {
   d72fa:	d9e9      	bls.n	d72d0 <_ZN6MB85RC8moveDataEjjj+0x44>
			while(numBytes > 0) {
   d72fc:	2c00      	cmp	r4, #0
   d72fe:	d0e7      	beq.n	d72d0 <_ZN6MB85RC8moveDataEjjj+0x44>
				result = readData(framAddrFrom, buf, count);
   d7300:	f8d8 3000 	ldr.w	r3, [r8]
   d7304:	2c1e      	cmp	r4, #30
   d7306:	4627      	mov	r7, r4
   d7308:	bf28      	it	cs
   d730a:	271e      	movcs	r7, #30
   d730c:	f8d3 9008 	ldr.w	r9, [r3, #8]
   d7310:	aa02      	add	r2, sp, #8
   d7312:	463b      	mov	r3, r7
   d7314:	4631      	mov	r1, r6
   d7316:	4640      	mov	r0, r8
   d7318:	47c8      	blx	r9
				if (!result) {
   d731a:	2800      	cmp	r0, #0
   d731c:	d0d6      	beq.n	d72cc <_ZN6MB85RC8moveDataEjjj+0x40>
				result = writeData(framAddrTo, buf, count);
   d731e:	f8d8 3000 	ldr.w	r3, [r8]
   d7322:	aa02      	add	r2, sp, #8
   d7324:	f8d3 900c 	ldr.w	r9, [r3, #12]
   d7328:	4629      	mov	r1, r5
   d732a:	463b      	mov	r3, r7
   d732c:	4640      	mov	r0, r8
   d732e:	47c8      	blx	r9
				if (!result) {
   d7330:	2800      	cmp	r0, #0
   d7332:	d0cb      	beq.n	d72cc <_ZN6MB85RC8moveDataEjjj+0x40>
				framAddrFrom += count;
   d7334:	443e      	add	r6, r7
				framAddrTo += count;
   d7336:	443d      	add	r5, r7
				numBytes -= count;
   d7338:	1be4      	subs	r4, r4, r7
			while(numBytes > 0) {
   d733a:	e7df      	b.n	d72fc <_ZN6MB85RC8moveDataEjjj+0x70>

000d733c <_ZN10RHDatagramC1ER15RHGenericDriverh>:
#include <RHDatagram.h>

RHDatagram::RHDatagram(RHGenericDriver& driver, uint8_t thisAddress) 
    :
    _driver(driver),
    _thisAddress(thisAddress)
   d733c:	6001      	str	r1, [r0, #0]
   d733e:	7102      	strb	r2, [r0, #4]
{
}
   d7340:	4770      	bx	lr

000d7342 <_ZN10RHDatagram9availableEv>:
    return false;
}

bool RHDatagram::available()
{
    return _driver.available();
   d7342:	6800      	ldr	r0, [r0, #0]
   d7344:	6803      	ldr	r3, [r0, #0]
   d7346:	68db      	ldr	r3, [r3, #12]
   d7348:	4718      	bx	r3

000d734a <_ZN10RHDatagram14waitPacketSentEv>:
    _driver.waitAvailable(polldelay);
}

bool RHDatagram::waitPacketSent()
{
    return _driver.waitPacketSent();
   d734a:	6800      	ldr	r0, [r0, #0]
   d734c:	6803      	ldr	r3, [r0, #0]
   d734e:	6a1b      	ldr	r3, [r3, #32]
   d7350:	4718      	bx	r3

000d7352 <_ZN10RHDatagram20waitAvailableTimeoutEtt>:
    return _driver.waitPacketSent(timeout);
}

bool RHDatagram::waitAvailableTimeout(uint16_t timeout, uint16_t polldelay)
{
    return _driver.waitAvailableTimeout(timeout, polldelay);
   d7352:	6800      	ldr	r0, [r0, #0]
   d7354:	6803      	ldr	r3, [r0, #0]
   d7356:	6a9b      	ldr	r3, [r3, #40]	; 0x28
   d7358:	4718      	bx	r3

000d735a <_ZN10RHDatagram11setHeaderToEh>:
    return _thisAddress;
}

void RHDatagram::setHeaderTo(uint8_t to)
{
    _driver.setHeaderTo(to);
   d735a:	6800      	ldr	r0, [r0, #0]
   d735c:	6803      	ldr	r3, [r0, #0]
   d735e:	6b9b      	ldr	r3, [r3, #56]	; 0x38
   d7360:	4718      	bx	r3

000d7362 <_ZN10RHDatagram6sendtoEPhhh>:
{
   d7362:	b537      	push	{r0, r1, r2, r4, r5, lr}
   d7364:	4605      	mov	r5, r0
   d7366:	460c      	mov	r4, r1
    setHeaderTo(address);
   d7368:	4619      	mov	r1, r3
{
   d736a:	9201      	str	r2, [sp, #4]
    setHeaderTo(address);
   d736c:	f7ff fff5 	bl	d735a <_ZN10RHDatagram11setHeaderToEh>
    return _driver.send(buf, len);
   d7370:	6828      	ldr	r0, [r5, #0]
   d7372:	9a01      	ldr	r2, [sp, #4]
   d7374:	6803      	ldr	r3, [r0, #0]
   d7376:	695b      	ldr	r3, [r3, #20]
   d7378:	4621      	mov	r1, r4
}
   d737a:	b003      	add	sp, #12
   d737c:	e8bd 4030 	ldmia.w	sp!, {r4, r5, lr}
    return _driver.send(buf, len);
   d7380:	4718      	bx	r3

000d7382 <_ZN10RHDatagram13setHeaderFromEh>:
}

void RHDatagram::setHeaderFrom(uint8_t from)
{
    _driver.setHeaderFrom(from);
   d7382:	6800      	ldr	r0, [r0, #0]
   d7384:	6803      	ldr	r3, [r0, #0]
   d7386:	6bdb      	ldr	r3, [r3, #60]	; 0x3c
   d7388:	4718      	bx	r3

000d738a <_ZN10RHDatagram14setThisAddressEh>:
{
   d738a:	b538      	push	{r3, r4, r5, lr}
   d738c:	4604      	mov	r4, r0
    _driver.setThisAddress(thisAddress);
   d738e:	6800      	ldr	r0, [r0, #0]
   d7390:	6803      	ldr	r3, [r0, #0]
{
   d7392:	460d      	mov	r5, r1
    _driver.setThisAddress(thisAddress);
   d7394:	6b5b      	ldr	r3, [r3, #52]	; 0x34
   d7396:	4798      	blx	r3
    setHeaderFrom(thisAddress);
   d7398:	4629      	mov	r1, r5
   d739a:	4620      	mov	r0, r4
   d739c:	f7ff fff1 	bl	d7382 <_ZN10RHDatagram13setHeaderFromEh>
    _thisAddress = thisAddress;
   d73a0:	7125      	strb	r5, [r4, #4]
}
   d73a2:	bd38      	pop	{r3, r4, r5, pc}

000d73a4 <_ZN10RHDatagram4initEv>:
{
   d73a4:	b538      	push	{r3, r4, r5, lr}
   d73a6:	4604      	mov	r4, r0
    bool ret = _driver.init();
   d73a8:	6800      	ldr	r0, [r0, #0]
   d73aa:	6803      	ldr	r3, [r0, #0]
   d73ac:	689b      	ldr	r3, [r3, #8]
   d73ae:	4798      	blx	r3
    if (ret)
   d73b0:	4605      	mov	r5, r0
   d73b2:	b118      	cbz	r0, d73bc <_ZN10RHDatagram4initEv+0x18>
	setThisAddress(_thisAddress);
   d73b4:	7921      	ldrb	r1, [r4, #4]
   d73b6:	4620      	mov	r0, r4
   d73b8:	f7ff ffe7 	bl	d738a <_ZN10RHDatagram14setThisAddressEh>
}
   d73bc:	4628      	mov	r0, r5
   d73be:	bd38      	pop	{r3, r4, r5, pc}

000d73c0 <_ZN10RHDatagram11setHeaderIdEh>:
}

void RHDatagram::setHeaderId(uint8_t id)
{
    _driver.setHeaderId(id);
   d73c0:	6800      	ldr	r0, [r0, #0]
   d73c2:	6803      	ldr	r3, [r0, #0]
   d73c4:	6c1b      	ldr	r3, [r3, #64]	; 0x40
   d73c6:	4718      	bx	r3

000d73c8 <_ZN10RHDatagram14setHeaderFlagsEhh>:
}

void RHDatagram::setHeaderFlags(uint8_t set, uint8_t clear)
{
    _driver.setHeaderFlags(set, clear);
   d73c8:	6800      	ldr	r0, [r0, #0]
   d73ca:	6803      	ldr	r3, [r0, #0]
   d73cc:	6c5b      	ldr	r3, [r3, #68]	; 0x44
   d73ce:	4718      	bx	r3

000d73d0 <_ZN10RHDatagram8headerToEv>:
}

uint8_t RHDatagram::headerTo()
{
    return _driver.headerTo();
   d73d0:	6800      	ldr	r0, [r0, #0]
   d73d2:	6803      	ldr	r3, [r0, #0]
   d73d4:	6cdb      	ldr	r3, [r3, #76]	; 0x4c
   d73d6:	4718      	bx	r3

000d73d8 <_ZN10RHDatagram10headerFromEv>:
}

uint8_t RHDatagram::headerFrom()
{
    return _driver.headerFrom();
   d73d8:	6800      	ldr	r0, [r0, #0]
   d73da:	6803      	ldr	r3, [r0, #0]
   d73dc:	6d1b      	ldr	r3, [r3, #80]	; 0x50
   d73de:	4718      	bx	r3

000d73e0 <_ZN10RHDatagram8headerIdEv>:
}

uint8_t RHDatagram::headerId()
{
    return _driver.headerId();
   d73e0:	6800      	ldr	r0, [r0, #0]
   d73e2:	6803      	ldr	r3, [r0, #0]
   d73e4:	6d5b      	ldr	r3, [r3, #84]	; 0x54
   d73e6:	4718      	bx	r3

000d73e8 <_ZN10RHDatagram11headerFlagsEv>:
}

uint8_t RHDatagram::headerFlags()
{
    return _driver.headerFlags();
   d73e8:	6800      	ldr	r0, [r0, #0]
   d73ea:	6803      	ldr	r3, [r0, #0]
   d73ec:	6d9b      	ldr	r3, [r3, #88]	; 0x58
   d73ee:	4718      	bx	r3

000d73f0 <_ZN10RHDatagram8recvfromEPhS0_S0_S0_S0_S0_>:
{
   d73f0:	e92d 43f8 	stmdb	sp!, {r3, r4, r5, r6, r7, r8, r9, lr}
   d73f4:	4604      	mov	r4, r0
    if (_driver.recv(buf, len))
   d73f6:	6800      	ldr	r0, [r0, #0]
{
   d73f8:	9f0a      	ldr	r7, [sp, #40]	; 0x28
   d73fa:	461e      	mov	r6, r3
    if (_driver.recv(buf, len))
   d73fc:	6803      	ldr	r3, [r0, #0]
   d73fe:	691b      	ldr	r3, [r3, #16]
{
   d7400:	e9dd 9808 	ldrd	r9, r8, [sp, #32]
    if (_driver.recv(buf, len))
   d7404:	4798      	blx	r3
   d7406:	4605      	mov	r5, r0
   d7408:	b1c8      	cbz	r0, d743e <_ZN10RHDatagram8recvfromEPhS0_S0_S0_S0_S0_+0x4e>
	if (from)  *from =  headerFrom();
   d740a:	b11e      	cbz	r6, d7414 <_ZN10RHDatagram8recvfromEPhS0_S0_S0_S0_S0_+0x24>
   d740c:	4620      	mov	r0, r4
   d740e:	f7ff ffe3 	bl	d73d8 <_ZN10RHDatagram10headerFromEv>
   d7412:	7030      	strb	r0, [r6, #0]
	if (to)    *to =    headerTo();
   d7414:	f1b9 0f00 	cmp.w	r9, #0
   d7418:	d004      	beq.n	d7424 <_ZN10RHDatagram8recvfromEPhS0_S0_S0_S0_S0_+0x34>
   d741a:	4620      	mov	r0, r4
   d741c:	f7ff ffd8 	bl	d73d0 <_ZN10RHDatagram8headerToEv>
   d7420:	f889 0000 	strb.w	r0, [r9]
	if (id)    *id =    headerId();
   d7424:	f1b8 0f00 	cmp.w	r8, #0
   d7428:	d004      	beq.n	d7434 <_ZN10RHDatagram8recvfromEPhS0_S0_S0_S0_S0_+0x44>
   d742a:	4620      	mov	r0, r4
   d742c:	f7ff ffd8 	bl	d73e0 <_ZN10RHDatagram8headerIdEv>
   d7430:	f888 0000 	strb.w	r0, [r8]
	if (flags) *flags = headerFlags();
   d7434:	b11f      	cbz	r7, d743e <_ZN10RHDatagram8recvfromEPhS0_S0_S0_S0_S0_+0x4e>
   d7436:	4620      	mov	r0, r4
   d7438:	f7ff ffd6 	bl	d73e8 <_ZN10RHDatagram11headerFlagsEv>
   d743c:	7038      	strb	r0, [r7, #0]
}
   d743e:	4628      	mov	r0, r5
   d7440:	e8bd 83f8 	ldmia.w	sp!, {r3, r4, r5, r6, r7, r8, r9, pc}

000d7444 <_ZN15RHGenericDriver4initEv>:
}

bool RHGenericDriver::init()
{
    return true;
}
   d7444:	2001      	movs	r0, #1
   d7446:	4770      	bx	lr

000d7448 <_ZN15RHGenericDriver14waitPacketSentEv>:
    return false;
}

bool RHGenericDriver::waitPacketSent()
{
    while (_mode == RHModeTx)
   d7448:	7903      	ldrb	r3, [r0, #4]
   d744a:	2b03      	cmp	r3, #3
   d744c:	d0fc      	beq.n	d7448 <_ZN15RHGenericDriver14waitPacketSentEv>
	YIELD; // Wait for any previous transmit to finish
    return true;
}
   d744e:	2001      	movs	r0, #1
   d7450:	4770      	bx	lr

000d7452 <_ZN15RHGenericDriver15isChannelActiveEv>:

// subclasses are expected to override if CAD is available for that radio
bool RHGenericDriver::isChannelActive()
{
    return false;
}
   d7452:	2000      	movs	r0, #0
   d7454:	4770      	bx	lr

000d7456 <_ZN15RHGenericDriver14setPromiscuousEb>:

void RHGenericDriver::setPromiscuous(bool promiscuous)
{
    _promiscuous = promiscuous;
   d7456:	7181      	strb	r1, [r0, #6]
}
   d7458:	4770      	bx	lr

000d745a <_ZN15RHGenericDriver14setThisAddressEh>:

void RHGenericDriver::setThisAddress(uint8_t address)
{
    _thisAddress = address;
   d745a:	7141      	strb	r1, [r0, #5]
}
   d745c:	4770      	bx	lr

000d745e <_ZN15RHGenericDriver11setHeaderToEh>:

void RHGenericDriver::setHeaderTo(uint8_t to)
{
    _txHeaderTo = to;
   d745e:	72c1      	strb	r1, [r0, #11]
}
   d7460:	4770      	bx	lr

000d7462 <_ZN15RHGenericDriver13setHeaderFromEh>:

void RHGenericDriver::setHeaderFrom(uint8_t from)
{
    _txHeaderFrom = from;
   d7462:	7301      	strb	r1, [r0, #12]
}
   d7464:	4770      	bx	lr

000d7466 <_ZN15RHGenericDriver11setHeaderIdEh>:

void RHGenericDriver::setHeaderId(uint8_t id)
{
    _txHeaderId = id;
   d7466:	7341      	strb	r1, [r0, #13]
}
   d7468:	4770      	bx	lr

000d746a <_ZN15RHGenericDriver14setHeaderFlagsEhh>:

void RHGenericDriver::setHeaderFlags(uint8_t set, uint8_t clear)
{
    _txHeaderFlags &= ~clear;
   d746a:	7b83      	ldrb	r3, [r0, #14]
   d746c:	ea23 0202 	bic.w	r2, r3, r2
    _txHeaderFlags |= set;
   d7470:	4311      	orrs	r1, r2
   d7472:	7381      	strb	r1, [r0, #14]
}
   d7474:	4770      	bx	lr

000d7476 <_ZN15RHGenericDriver8headerToEv>:

uint8_t RHGenericDriver::headerTo()
{
    return _rxHeaderTo;
   d7476:	79c0      	ldrb	r0, [r0, #7]
}
   d7478:	4770      	bx	lr

000d747a <_ZN15RHGenericDriver10headerFromEv>:

uint8_t RHGenericDriver::headerFrom()
{
    return _rxHeaderFrom;
   d747a:	7a00      	ldrb	r0, [r0, #8]
}
   d747c:	4770      	bx	lr

000d747e <_ZN15RHGenericDriver8headerIdEv>:

uint8_t RHGenericDriver::headerId()
{
    return _rxHeaderId;
   d747e:	7a40      	ldrb	r0, [r0, #9]
}
   d7480:	4770      	bx	lr

000d7482 <_ZN15RHGenericDriver11headerFlagsEv>:

uint8_t RHGenericDriver::headerFlags()
{
    return _rxHeaderFlags;
   d7482:	7a80      	ldrb	r0, [r0, #10]
}
   d7484:	4770      	bx	lr

000d7486 <_ZN15RHGenericDriver8lastRssiEv>:

int16_t RHGenericDriver::lastRssi()
{
    return _lastRssi;
   d7486:	8a00      	ldrh	r0, [r0, #16]
}
   d7488:	b200      	sxth	r0, r0
   d748a:	4770      	bx	lr

000d748c <_ZN15RHGenericDriver4modeEv>:

RHGenericDriver::RHMode  RHGenericDriver::mode()
{
    return _mode;
   d748c:	7900      	ldrb	r0, [r0, #4]
}
   d748e:	4770      	bx	lr

000d7490 <_ZN15RHGenericDriver7setModeENS_6RHModeE>:

void  RHGenericDriver::setMode(RHMode mode)
{
    _mode = mode;
   d7490:	7101      	strb	r1, [r0, #4]
}
   d7492:	4770      	bx	lr

000d7494 <_ZN15RHGenericDriver5rxBadEv>:
#endif
}

uint16_t RHGenericDriver::rxBad()
{
    return _rxBad;
   d7494:	8a40      	ldrh	r0, [r0, #18]
}
   d7496:	b280      	uxth	r0, r0
   d7498:	4770      	bx	lr

000d749a <_ZN15RHGenericDriver6rxGoodEv>:

uint16_t RHGenericDriver::rxGood()
{
    return _rxGood;
   d749a:	8a80      	ldrh	r0, [r0, #20]
}
   d749c:	b280      	uxth	r0, r0
   d749e:	4770      	bx	lr

000d74a0 <_ZN15RHGenericDriver6txGoodEv>:

uint16_t RHGenericDriver::txGood()
{
    return _txGood;
   d74a0:	8ac0      	ldrh	r0, [r0, #22]
}
   d74a2:	b280      	uxth	r0, r0
   d74a4:	4770      	bx	lr

000d74a6 <_ZN15RHGenericDriver13waitAvailableEt>:
{
   d74a6:	b538      	push	{r3, r4, r5, lr}
   d74a8:	4605      	mov	r5, r0
   d74aa:	460c      	mov	r4, r1
    while (!available())
   d74ac:	682b      	ldr	r3, [r5, #0]
   d74ae:	4628      	mov	r0, r5
   d74b0:	68db      	ldr	r3, [r3, #12]
   d74b2:	4798      	blx	r3
   d74b4:	b928      	cbnz	r0, d74c2 <_ZN15RHGenericDriver13waitAvailableEt+0x1c>
	if (polldelay)
   d74b6:	2c00      	cmp	r4, #0
   d74b8:	d0f8      	beq.n	d74ac <_ZN15RHGenericDriver13waitAvailableEt+0x6>
	  delay(polldelay);
   d74ba:	4620      	mov	r0, r4
   d74bc:	f001 fd40 	bl	d8f40 <delay>
   d74c0:	e7f4      	b.n	d74ac <_ZN15RHGenericDriver13waitAvailableEt+0x6>
}
   d74c2:	bd38      	pop	{r3, r4, r5, pc}

000d74c4 <_ZN15RHGenericDriver20waitAvailableTimeoutEtt>:
{
   d74c4:	b5f8      	push	{r3, r4, r5, r6, r7, lr}
   d74c6:	4605      	mov	r5, r0
   d74c8:	460f      	mov	r7, r1
   d74ca:	4614      	mov	r4, r2
   d74cc:	f001 f9de 	bl	d888c <HAL_Timer_Get_Milli_Seconds>
   d74d0:	4606      	mov	r6, r0
   d74d2:	f001 f9db 	bl	d888c <HAL_Timer_Get_Milli_Seconds>
    while ((millis() - starttime) < timeout)
   d74d6:	1b80      	subs	r0, r0, r6
   d74d8:	42b8      	cmp	r0, r7
   d74da:	d20a      	bcs.n	d74f2 <_ZN15RHGenericDriver20waitAvailableTimeoutEtt+0x2e>
        if (available())
   d74dc:	682b      	ldr	r3, [r5, #0]
   d74de:	4628      	mov	r0, r5
   d74e0:	68db      	ldr	r3, [r3, #12]
   d74e2:	4798      	blx	r3
   d74e4:	b930      	cbnz	r0, d74f4 <_ZN15RHGenericDriver20waitAvailableTimeoutEtt+0x30>
	if (polldelay)
   d74e6:	2c00      	cmp	r4, #0
   d74e8:	d0f3      	beq.n	d74d2 <_ZN15RHGenericDriver20waitAvailableTimeoutEtt+0xe>
	  delay(polldelay);
   d74ea:	4620      	mov	r0, r4
   d74ec:	f001 fd28 	bl	d8f40 <delay>
   d74f0:	e7ef      	b.n	d74d2 <_ZN15RHGenericDriver20waitAvailableTimeoutEtt+0xe>
    return false;
   d74f2:	2000      	movs	r0, #0
}
   d74f4:	bdf8      	pop	{r3, r4, r5, r6, r7, pc}

000d74f6 <_ZN15RHGenericDriver14waitPacketSentEt>:
{
   d74f6:	b570      	push	{r4, r5, r6, lr}
   d74f8:	4604      	mov	r4, r0
   d74fa:	460e      	mov	r6, r1
   d74fc:	f001 f9c6 	bl	d888c <HAL_Timer_Get_Milli_Seconds>
   d7500:	4605      	mov	r5, r0
   d7502:	f001 f9c3 	bl	d888c <HAL_Timer_Get_Milli_Seconds>
    while ((millis() - starttime) < timeout)
   d7506:	1b40      	subs	r0, r0, r5
   d7508:	42b0      	cmp	r0, r6
   d750a:	d204      	bcs.n	d7516 <_ZN15RHGenericDriver14waitPacketSentEt+0x20>
        if (_mode != RHModeTx) // Any previous transmit finished?
   d750c:	7923      	ldrb	r3, [r4, #4]
   d750e:	2b03      	cmp	r3, #3
   d7510:	d0f7      	beq.n	d7502 <_ZN15RHGenericDriver14waitPacketSentEt+0xc>
           return true;
   d7512:	2001      	movs	r0, #1
}
   d7514:	bd70      	pop	{r4, r5, r6, pc}
    return false;
   d7516:	2000      	movs	r0, #0
   d7518:	e7fc      	b.n	d7514 <_ZN15RHGenericDriver14waitPacketSentEt+0x1e>

000d751a <_ZN15RHGenericDriver7waitCADEv>:
{
   d751a:	b570      	push	{r4, r5, r6, lr}
    if (!_cad_timeout)
   d751c:	69c3      	ldr	r3, [r0, #28]
{
   d751e:	4604      	mov	r4, r0
    if (!_cad_timeout)
   d7520:	b1b3      	cbz	r3, d7550 <_ZN15RHGenericDriver7waitCADEv+0x36>
   d7522:	f001 f9b3 	bl	d888c <HAL_Timer_Get_Milli_Seconds>
         delay(random(1, 10) * 100); // Should these values be configurable? Macros?
   d7526:	2664      	movs	r6, #100	; 0x64
   d7528:	4605      	mov	r5, r0
    while (isChannelActive())
   d752a:	6823      	ldr	r3, [r4, #0]
   d752c:	4620      	mov	r0, r4
   d752e:	6b1b      	ldr	r3, [r3, #48]	; 0x30
   d7530:	4798      	blx	r3
   d7532:	b168      	cbz	r0, d7550 <_ZN15RHGenericDriver7waitCADEv+0x36>
   d7534:	f001 f9aa 	bl	d888c <HAL_Timer_Get_Milli_Seconds>
         if (millis() - t > _cad_timeout) 
   d7538:	69e3      	ldr	r3, [r4, #28]
   d753a:	1b40      	subs	r0, r0, r5
   d753c:	4298      	cmp	r0, r3
   d753e:	d809      	bhi.n	d7554 <_ZN15RHGenericDriver7waitCADEv+0x3a>
         delay(random(1, 10) * 100); // Should these values be configurable? Macros?
   d7540:	210a      	movs	r1, #10
   d7542:	2001      	movs	r0, #1
   d7544:	f003 fea6 	bl	db294 <_Z6randomii>
   d7548:	4370      	muls	r0, r6
   d754a:	f001 fcf9 	bl	d8f40 <delay>
    while (isChannelActive())
   d754e:	e7ec      	b.n	d752a <_ZN15RHGenericDriver7waitCADEv+0x10>
	return true;
   d7550:	2001      	movs	r0, #1
}
   d7552:	bd70      	pop	{r4, r5, r6, pc}
	     return false;
   d7554:	2000      	movs	r0, #0
   d7556:	e7fc      	b.n	d7552 <_ZN15RHGenericDriver7waitCADEv+0x38>

000d7558 <_ZN15RHGenericDriverC1Ev>:
    _cad_timeout(0)
   d7558:	4a06      	ldr	r2, [pc, #24]	; (d7574 <_ZN15RHGenericDriverC1Ev+0x1c>)
   d755a:	6002      	str	r2, [r0, #0]
   d755c:	21ff      	movs	r1, #255	; 0xff
   d755e:	2200      	movs	r2, #0
   d7560:	7102      	strb	r2, [r0, #4]
   d7562:	7141      	strb	r1, [r0, #5]
   d7564:	8242      	strh	r2, [r0, #18]
   d7566:	72c1      	strb	r1, [r0, #11]
   d7568:	8282      	strh	r2, [r0, #20]
   d756a:	8181      	strh	r1, [r0, #12]
   d756c:	7382      	strb	r2, [r0, #14]
   d756e:	82c2      	strh	r2, [r0, #22]
   d7570:	61c2      	str	r2, [r0, #28]
}
   d7572:	4770      	bx	lr
   d7574:	000dd548 	.word	0x000dd548

000d7578 <_ZN12RHGenericSPI15attachInterruptEv>:
#endif

    /// SPI Configuration methods
    /// Enable SPI interrupts (if supported)
    /// This can be used in an SPI slave to indicate when an SPI message has been received
    virtual void attachInterrupt() {};
   d7578:	4770      	bx	lr

000d757a <_ZN12RHGenericSPI15detachInterruptEv>:

    /// Disable SPI interrupts (if supported)
    /// This can be used to diable the SPI interrupt in slaves where that is supported.
    virtual void detachInterrupt() {};
   d757a:	4770      	bx	lr

000d757c <_ZN12RHGenericSPI16beginTransactionEv>:
    /// Signal the start of an SPI transaction that must not be interrupted by other SPI actions
    /// In subclasses that support transactions this will ensure that other SPI transactions
    /// are blocked until this one is completed by endTransaction().
    /// Base does nothing
    /// Might be overridden in subclass
    virtual void beginTransaction(){}
   d757c:	4770      	bx	lr

000d757e <_ZN12RHGenericSPI14endTransactionEv>:

    /// Signal the end of an SPI transaction
    /// Base does nothing
    /// Might be overridden in subclass
    virtual void endTransaction(){}
   d757e:	4770      	bx	lr

000d7580 <_ZN12RHGenericSPI14usingInterruptEh>:
    /// Base does nothing
    /// Might be overridden in subclass
    /// \param[in] interruptNumber The number of the interrupt
    virtual void usingInterrupt(uint8_t interruptNumber){
      (void)interruptNumber;
    }
   d7580:	4770      	bx	lr

000d7582 <_ZN12RHGenericSPI11setBitOrderENS_8BitOrderE>:
{
}

void RHGenericSPI::setBitOrder(BitOrder bitOrder)
{
    _bitOrder = bitOrder;
   d7582:	7141      	strb	r1, [r0, #5]
}
   d7584:	4770      	bx	lr

000d7586 <_ZN12RHGenericSPI11setDataModeENS_8DataModeE>:

void RHGenericSPI::setDataMode(DataMode dataMode)
{
    _dataMode = dataMode; 
   d7586:	7181      	strb	r1, [r0, #6]
}
   d7588:	4770      	bx	lr

000d758a <_ZN12RHGenericSPI12setFrequencyENS_9FrequencyE>:

void RHGenericSPI::setFrequency(Frequency frequency)
{
    _frequency = frequency;
   d758a:	7101      	strb	r1, [r0, #4]
}
   d758c:	4770      	bx	lr
	...

000d7590 <_ZN12RHGenericSPIC1ENS_9FrequencyENS_8BitOrderENS_8DataModeE>:
RHGenericSPI::RHGenericSPI(Frequency frequency, BitOrder bitOrder, DataMode dataMode)
   d7590:	b530      	push	{r4, r5, lr}
    _dataMode(dataMode)
   d7592:	4d03      	ldr	r5, [pc, #12]	; (d75a0 <_ZN12RHGenericSPIC1ENS_9FrequencyENS_8BitOrderENS_8DataModeE+0x10>)
   d7594:	6005      	str	r5, [r0, #0]
   d7596:	7101      	strb	r1, [r0, #4]
   d7598:	7142      	strb	r2, [r0, #5]
   d759a:	7183      	strb	r3, [r0, #6]
}
   d759c:	bd30      	pop	{r4, r5, pc}
   d759e:	bf00      	nop
   d75a0:	000dd5c8 	.word	0x000dd5c8

000d75a4 <_ZN8particle11SPISettingsD1Ev>:
  SPISettings()
  {
  }

  virtual ~SPISettings() {
  }
   d75a4:	4770      	bx	lr

000d75a6 <_ZN8particle11SPISettingsD0Ev>:
  virtual ~SPISettings() {
   d75a6:	b510      	push	{r4, lr}
  }
   d75a8:	2110      	movs	r1, #16
  virtual ~SPISettings() {
   d75aa:	4604      	mov	r4, r0
  }
   d75ac:	f004 fce6 	bl	dbf7c <_ZdlPvj>
   d75b0:	4620      	mov	r0, r4
   d75b2:	bd10      	pop	{r4, pc}

000d75b4 <_ZN5Print6printfEPKcz>:
    size_t println(double, int = 2);
    size_t println(const Printable&);
    size_t println(void);
    size_t println(const __FlashStringHelper*);

    size_t printf(const char* format, ...) __attribute__ ((format(printf, 2, 3)))
   d75b4:	b40e      	push	{r1, r2, r3}
   d75b6:	b503      	push	{r0, r1, lr}
   d75b8:	ab03      	add	r3, sp, #12
    {
        va_list args;
        va_start(args, format);
        auto r = this->vprintf(false, format, args);
   d75ba:	2100      	movs	r1, #0
    size_t printf(const char* format, ...) __attribute__ ((format(printf, 2, 3)))
   d75bc:	f853 2b04 	ldr.w	r2, [r3], #4
        va_start(args, format);
   d75c0:	9301      	str	r3, [sp, #4]
        auto r = this->vprintf(false, format, args);
   d75c2:	f003 fe2b 	bl	db21c <_ZN5Print7vprintfEbPKcSt9__va_list>
        va_end(args);
        return r;
    }
   d75c6:	b002      	add	sp, #8
   d75c8:	f85d eb04 	ldr.w	lr, [sp], #4
   d75cc:	b003      	add	sp, #12
   d75ce:	4770      	bx	lr

000d75d0 <_ZNK8particle11SPISettings7printToER5Print>:
  bool operator!=(const SPISettings& other) const
  {
    return !(other == *this);
  }

  virtual size_t printTo(Print& p) const
   d75d0:	b573      	push	{r0, r1, r4, r5, r6, lr}
   d75d2:	4604      	mov	r4, r0
   d75d4:	4608      	mov	r0, r1
  {
    if (default_ && clock_ == 0)
   d75d6:	7922      	ldrb	r2, [r4, #4]
   d75d8:	68a3      	ldr	r3, [r4, #8]
   d75da:	b132      	cbz	r2, d75ea <_ZNK8particle11SPISettings7printToER5Print+0x1a>
   d75dc:	b9a3      	cbnz	r3, d7608 <_ZNK8particle11SPISettings7printToER5Print+0x38>
      return p.print("<SPISettings default>");
   d75de:	490b      	ldr	r1, [pc, #44]	; (d760c <_ZNK8particle11SPISettings7printToER5Print+0x3c>)
    else
      return p.printf("<SPISettings %s%u %s MODE%u>", default_ ? "default " : "", (unsigned int)clock_,
          bitOrder_ == MSBFIRST ? "MSB" : "LSB", (unsigned int)dataMode_);
  }
   d75e0:	b002      	add	sp, #8
   d75e2:	e8bd 4070 	ldmia.w	sp!, {r4, r5, r6, lr}
      return p.print("<SPISettings default>");
   d75e6:	f003 bde8 	b.w	db1ba <_ZN5Print5printEPKc>
      return p.printf("<SPISettings %s%u %s MODE%u>", default_ ? "default " : "", (unsigned int)clock_,
   d75ea:	4a09      	ldr	r2, [pc, #36]	; (d7610 <_ZNK8particle11SPISettings7printToER5Print+0x40>)
   d75ec:	7b26      	ldrb	r6, [r4, #12]
   d75ee:	4d09      	ldr	r5, [pc, #36]	; (d7614 <_ZNK8particle11SPISettings7printToER5Print+0x44>)
   d75f0:	4909      	ldr	r1, [pc, #36]	; (d7618 <_ZNK8particle11SPISettings7printToER5Print+0x48>)
   d75f2:	7b64      	ldrb	r4, [r4, #13]
   d75f4:	2e01      	cmp	r6, #1
   d75f6:	bf18      	it	ne
   d75f8:	4629      	movne	r1, r5
   d75fa:	e9cd 1400 	strd	r1, r4, [sp]
   d75fe:	4907      	ldr	r1, [pc, #28]	; (d761c <_ZNK8particle11SPISettings7printToER5Print+0x4c>)
   d7600:	f7ff ffd8 	bl	d75b4 <_ZN5Print6printfEPKcz>
  }
   d7604:	b002      	add	sp, #8
   d7606:	bd70      	pop	{r4, r5, r6, pc}
      return p.printf("<SPISettings %s%u %s MODE%u>", default_ ? "default " : "", (unsigned int)clock_,
   d7608:	4a05      	ldr	r2, [pc, #20]	; (d7620 <_ZNK8particle11SPISettings7printToER5Print+0x50>)
   d760a:	e7ef      	b.n	d75ec <_ZNK8particle11SPISettings7printToER5Print+0x1c>
   d760c:	000dd605 	.word	0x000dd605
   d7610:	000dd935 	.word	0x000dd935
   d7614:	000dd601 	.word	0x000dd601
   d7618:	000dd5fd 	.word	0x000dd5fd
   d761c:	000dd61b 	.word	0x000dd61b
   d7620:	000dd5f4 	.word	0x000dd5f4

000d7624 <_ZN13RHHardwareSPIC1EN12RHGenericSPI9FrequencyENS0_8BitOrderENS0_8DataModeE>:
 #define SPI_CLOCK_DIV4  (VARIANT_MCK/21000000) // 4MHz
 #define SPI_CLOCK_DIV2  (VARIANT_MCK/10500000) // 8MHz
 #define SPI_CLOCK_DIV1  (VARIANT_MCK/5250000)  // 16MHz
#endif

RHHardwareSPI::RHHardwareSPI(Frequency frequency, BitOrder bitOrder, DataMode dataMode)
   d7624:	b510      	push	{r4, lr}
   d7626:	4604      	mov	r4, r0
    :
    RHGenericSPI(frequency, bitOrder, dataMode)
   d7628:	f7ff ffb2 	bl	d7590 <_ZN12RHGenericSPIC1ENS_9FrequencyENS_8BitOrderENS_8DataModeE>
   d762c:	4b05      	ldr	r3, [pc, #20]	; (d7644 <_ZN13RHHardwareSPIC1EN12RHGenericSPI9FrequencyENS0_8BitOrderENS0_8DataModeE+0x20>)
   d762e:	6023      	str	r3, [r4, #0]
  {
   d7630:	4b05      	ldr	r3, [pc, #20]	; (d7648 <_ZN13RHHardwareSPIC1EN12RHGenericSPI9FrequencyENS0_8BitOrderENS0_8DataModeE+0x24>)
   d7632:	60a3      	str	r3, [r4, #8]
   d7634:	2301      	movs	r3, #1
   d7636:	7323      	strb	r3, [r4, #12]
   d7638:	2300      	movs	r3, #0
   d763a:	6123      	str	r3, [r4, #16]
   d763c:	82a3      	strh	r3, [r4, #20]
{
}
   d763e:	4620      	mov	r0, r4
   d7640:	bd10      	pop	{r4, pc}
   d7642:	bf00      	nop
   d7644:	000dd654 	.word	0x000dd654
   d7648:	000dd640 	.word	0x000dd640

000d764c <_ZN8particle8SpiProxyIL19hal_spi_interface_t0EE8instanceEv>:
namespace particle {

template <hal_spi_interface_t Interface>
class SpiProxy {
public:
    static SPIClass& instance() {
   d764c:	b513      	push	{r0, r1, r4, lr}
        static SPIClass instance(Interface);
   d764e:	4c0b      	ldr	r4, [pc, #44]	; (d767c <_ZN8particle8SpiProxyIL19hal_spi_interface_t0EE8instanceEv+0x30>)
   d7650:	7821      	ldrb	r1, [r4, #0]
   d7652:	f3bf 8f5b 	dmb	ish
   d7656:	f011 0101 	ands.w	r1, r1, #1
   d765a:	d10b      	bne.n	d7674 <_ZN8particle8SpiProxyIL19hal_spi_interface_t0EE8instanceEv+0x28>
   d765c:	4620      	mov	r0, r4
   d765e:	9101      	str	r1, [sp, #4]
   d7660:	f7fc fd2a 	bl	d40b8 <__cxa_guard_acquire>
   d7664:	9901      	ldr	r1, [sp, #4]
   d7666:	b128      	cbz	r0, d7674 <_ZN8particle8SpiProxyIL19hal_spi_interface_t0EE8instanceEv+0x28>
   d7668:	4805      	ldr	r0, [pc, #20]	; (d7680 <_ZN8particle8SpiProxyIL19hal_spi_interface_t0EE8instanceEv+0x34>)
   d766a:	f003 fe29 	bl	db2c0 <_ZN8SPIClassC1E19hal_spi_interface_t>
   d766e:	4620      	mov	r0, r4
   d7670:	f7fc fd27 	bl	d40c2 <__cxa_guard_release>
        return instance;
    }
   d7674:	4802      	ldr	r0, [pc, #8]	; (d7680 <_ZN8particle8SpiProxyIL19hal_spi_interface_t0EE8instanceEv+0x34>)
   d7676:	b002      	add	sp, #8
   d7678:	bd10      	pop	{r4, pc}
   d767a:	bf00      	nop
   d767c:	2003e2fc 	.word	0x2003e2fc
   d7680:	2003e300 	.word	0x2003e300

000d7684 <_ZN13RHHardwareSPI8transferEh>:

uint8_t RHHardwareSPI::transfer(uint8_t data) 
{
   d7684:	b507      	push	{r0, r1, r2, lr}
   d7686:	9101      	str	r1, [sp, #4]
    }
    static void computeClockDivider(unsigned reference, unsigned targetSpeed, uint8_t& divider, unsigned& clock) {
        instance().computeClockDivider(reference, targetSpeed, divider, clock);
    }
    byte transfer(byte data) {
        return instance().transfer(data);
   d7688:	f7ff ffe0 	bl	d764c <_ZN8particle8SpiProxyIL19hal_spi_interface_t0EE8instanceEv>
   d768c:	9901      	ldr	r1, [sp, #4]
    return SPI.transfer(data);
}
   d768e:	b003      	add	sp, #12
   d7690:	f85d eb04 	ldr.w	lr, [sp], #4
   d7694:	f003 bec6 	b.w	db424 <_ZN8SPIClass8transferEh>

000d7698 <_ZN13RHHardwareSPI15attachInterruptEv>:
    return status;
}
#endif

void RHHardwareSPI::attachInterrupt() 
{
   d7698:	b508      	push	{r3, lr}
    }
    void transfer(void* tx_buffer, void* rx_buffer, size_t length, wiring_spi_dma_transfercomplete_callback_t user_callback) {
        instance().transfer(tx_buffer, rx_buffer, length, user_callback);
    }
    void attachInterrupt() {
        instance().attachInterrupt();
   d769a:	f7ff ffd7 	bl	d764c <_ZN8particle8SpiProxyIL19hal_spi_interface_t0EE8instanceEv>
#if (RH_PLATFORM == RH_PLATFORM_ARDUINO || RH_PLATFORM == RH_PLATFORM_NRF52)
    SPI.attachInterrupt();
#endif
}
   d769e:	e8bd 4008 	ldmia.w	sp!, {r3, lr}
   d76a2:	f003 bec5 	b.w	db430 <_ZN8SPIClass15attachInterruptEv>

000d76a6 <_ZN13RHHardwareSPI15detachInterruptEv>:

void RHHardwareSPI::detachInterrupt() 
{
   d76a6:	b508      	push	{r3, lr}
    }
    void detachInterrupt() {
        instance().detachInterrupt();
   d76a8:	f7ff ffd0 	bl	d764c <_ZN8particle8SpiProxyIL19hal_spi_interface_t0EE8instanceEv>
#if (RH_PLATFORM == RH_PLATFORM_ARDUINO || RH_PLATFORM == RH_PLATFORM_NRF52)
    SPI.detachInterrupt();
#endif
}
   d76ac:	e8bd 4008 	ldmia.w	sp!, {r3, lr}
   d76b0:	f003 bebf 	b.w	db432 <_ZN8SPIClass15detachInterruptEv>

000d76b4 <_ZN13RHHardwareSPI5beginEv>:
    
void RHHardwareSPI::begin() 
{
   d76b4:	b510      	push	{r4, lr}
#if defined(SPI_HAS_TRANSACTION)
    // Perhaps this is a uniform interface for SPI?
    // Currently Teensy and ESP32 only
   uint32_t frequency;
   if (_frequency == Frequency16MHz)
   d76b6:	7903      	ldrb	r3, [r0, #4]
   d76b8:	2b04      	cmp	r3, #4
   d76ba:	d020      	beq.n	d76fe <_ZN13RHHardwareSPI5beginEv+0x4a>
       frequency = 16000000;
   else if (_frequency == Frequency8MHz)
   d76bc:	2b03      	cmp	r3, #3
   d76be:	d020      	beq.n	d7702 <_ZN13RHHardwareSPI5beginEv+0x4e>
       frequency = 8000000;
   else if (_frequency == Frequency4MHz)
   d76c0:	2b02      	cmp	r3, #2
   d76c2:	d020      	beq.n	d7706 <_ZN13RHHardwareSPI5beginEv+0x52>
       frequency = 4000000;
   else if (_frequency == Frequency2MHz)
       frequency = 2000000;
   else
       frequency = 1000000;
   d76c4:	4a11      	ldr	r2, [pc, #68]	; (d770c <_ZN13RHHardwareSPI5beginEv+0x58>)
   d76c6:	4912      	ldr	r1, [pc, #72]	; (d7710 <_ZN13RHHardwareSPI5beginEv+0x5c>)
   d76c8:	2b01      	cmp	r3, #1
   d76ca:	bf18      	it	ne
   d76cc:	460a      	movne	r2, r1
//   ::BitOrder bitOrder;
#else
    uint8_t bitOrder;
#endif

   if (_bitOrder == BitOrderLSBFirst)
   d76ce:	7941      	ldrb	r1, [r0, #5]
       bitOrder = LSBFIRST;
   else
       bitOrder = MSBFIRST;
   
    uint8_t dataMode;
    if (_dataMode == DataMode0)
   d76d0:	7983      	ldrb	r3, [r0, #6]
       bitOrder = LSBFIRST;
   d76d2:	3901      	subs	r1, #1
   d76d4:	bf18      	it	ne
   d76d6:	2101      	movne	r1, #1
    if (_dataMode == DataMode0)
   d76d8:	b133      	cbz	r3, d76e8 <_ZN13RHHardwareSPI5beginEv+0x34>
	dataMode = SPI_MODE0;
    else if (_dataMode == DataMode1)
   d76da:	2b01      	cmp	r3, #1
   d76dc:	d004      	beq.n	d76e8 <_ZN13RHHardwareSPI5beginEv+0x34>
	dataMode = SPI_MODE1;
    else if (_dataMode == DataMode2)
   d76de:	2b02      	cmp	r3, #2
   d76e0:	d002      	beq.n	d76e8 <_ZN13RHHardwareSPI5beginEv+0x34>
	dataMode = SPI_MODE2;
    else if (_dataMode == DataMode3)
	dataMode = SPI_MODE3;
    else
	dataMode = SPI_MODE0;
   d76e2:	2b03      	cmp	r3, #3
   d76e4:	bf18      	it	ne
   d76e6:	2300      	movne	r3, #0
class SPISettings : public Printable {
   d76e8:	2400      	movs	r4, #0
   d76ea:	7304      	strb	r4, [r0, #12]
   d76ec:	6102      	str	r2, [r0, #16]
   d76ee:	7501      	strb	r1, [r0, #20]
   d76f0:	7543      	strb	r3, [r0, #21]
        instance().begin();
   d76f2:	f7ff ffab 	bl	d764c <_ZN8particle8SpiProxyIL19hal_spi_interface_t0EE8instanceEv>
#else
 #warning RHHardwareSPI does not support this platform yet. Consider adding it and contributing a patch.
#endif

#endif // SPI_HAS_TRANSACTION
}
   d76f6:	e8bd 4010 	ldmia.w	sp!, {r4, lr}
   d76fa:	f003 bdeb 	b.w	db2d4 <_ZN8SPIClass5beginEv>
       frequency = 16000000;
   d76fe:	4a05      	ldr	r2, [pc, #20]	; (d7714 <_ZN13RHHardwareSPI5beginEv+0x60>)
   d7700:	e7e5      	b.n	d76ce <_ZN13RHHardwareSPI5beginEv+0x1a>
       frequency = 8000000;
   d7702:	4a05      	ldr	r2, [pc, #20]	; (d7718 <_ZN13RHHardwareSPI5beginEv+0x64>)
   d7704:	e7e3      	b.n	d76ce <_ZN13RHHardwareSPI5beginEv+0x1a>
       frequency = 4000000;
   d7706:	4a05      	ldr	r2, [pc, #20]	; (d771c <_ZN13RHHardwareSPI5beginEv+0x68>)
   d7708:	e7e1      	b.n	d76ce <_ZN13RHHardwareSPI5beginEv+0x1a>
   d770a:	bf00      	nop
   d770c:	001e8480 	.word	0x001e8480
   d7710:	000f4240 	.word	0x000f4240
   d7714:	00f42400 	.word	0x00f42400
   d7718:	007a1200 	.word	0x007a1200
   d771c:	003d0900 	.word	0x003d0900

000d7720 <_ZN13RHHardwareSPI3endEv>:

void RHHardwareSPI::end() 
{
   d7720:	b508      	push	{r3, lr}
        instance().end();
   d7722:	f7ff ff93 	bl	d764c <_ZN8particle8SpiProxyIL19hal_spi_interface_t0EE8instanceEv>
    return SPI.end();
}
   d7726:	e8bd 4008 	ldmia.w	sp!, {r3, lr}
   d772a:	f003 bde4 	b.w	db2f6 <_ZN8SPIClass3endEv>

000d772e <_ZN13RHHardwareSPI16beginTransactionEv>:

void RHHardwareSPI::beginTransaction()
{
   d772e:	b510      	push	{r4, lr}
   d7730:	4604      	mov	r4, r0
        return instance().beginTransaction(settings);
   d7732:	f7ff ff8b 	bl	d764c <_ZN8particle8SpiProxyIL19hal_spi_interface_t0EE8instanceEv>
   d7736:	f104 0108 	add.w	r1, r4, #8
#if defined(SPI_HAS_TRANSACTION)
    SPI.beginTransaction(_settings);
#endif
}
   d773a:	e8bd 4010 	ldmia.w	sp!, {r4, lr}
   d773e:	f003 be03 	b.w	db348 <_ZN8SPIClass16beginTransactionERKN8particle11SPISettingsE>

000d7742 <_ZN13RHHardwareSPI14endTransactionEv>:

void RHHardwareSPI::endTransaction()
{
   d7742:	b508      	push	{r3, lr}
        instance().endTransaction();
   d7744:	f7ff ff82 	bl	d764c <_ZN8particle8SpiProxyIL19hal_spi_interface_t0EE8instanceEv>
#if defined(SPI_HAS_TRANSACTION)
    SPI.endTransaction();
#endif
}
   d7748:	e8bd 4008 	ldmia.w	sp!, {r3, lr}
   d774c:	f003 bde2 	b.w	db314 <_ZN8SPIClass14endTransactionEv>

000d7750 <_ZN13RHHardwareSPI14usingInterruptEh>:

void RHHardwareSPI::usingInterrupt(uint8_t interrupt)
{
   d7750:	b508      	push	{r3, lr}
        instance().usingInterrupt(arg);
   d7752:	f7ff ff7b 	bl	d764c <_ZN8particle8SpiProxyIL19hal_spi_interface_t0EE8instanceEv>
#if defined(SPI_HAS_TRANSACTION) && !defined(RH_MISSING_SPIUSINGINTERRUPT)
    SPI.usingInterrupt(interrupt);
#endif
    (void)interrupt;
}
   d7756:	bd08      	pop	{r3, pc}

000d7758 <_GLOBAL__sub_I_hardware_spi>:
RHHardwareSPI hardware_spi;
   d7758:	2300      	movs	r3, #0
   d775a:	4802      	ldr	r0, [pc, #8]	; (d7764 <_GLOBAL__sub_I_hardware_spi+0xc>)
   d775c:	461a      	mov	r2, r3
   d775e:	4619      	mov	r1, r3
   d7760:	f7ff bf60 	b.w	d7624 <_ZN13RHHardwareSPIC1EN12RHGenericSPI9FrequencyENS0_8BitOrderENS0_8DataModeE>
   d7764:	2003e308 	.word	0x2003e308

000d7768 <_ZN6RHMesh17isPhysicalAddressEPhh>:
////////////////////////////////////////////////////////////////////
// Subclasses may want to override
bool RHMesh::isPhysicalAddress(uint8_t* address, uint8_t addresslen)
{
    // Can only handle physical addresses 1 octet long, which is the physical node address
    return addresslen == 1 && address[0] == _thisAddress;
   d7768:	2a01      	cmp	r2, #1
   d776a:	d105      	bne.n	d7778 <_ZN6RHMesh17isPhysicalAddressEPhh+0x10>
   d776c:	7a00      	ldrb	r0, [r0, #8]
   d776e:	780b      	ldrb	r3, [r1, #0]
   d7770:	1a1b      	subs	r3, r3, r0
   d7772:	4258      	negs	r0, r3
   d7774:	4158      	adcs	r0, r3
   d7776:	4770      	bx	lr
   d7778:	2000      	movs	r0, #0
}
   d777a:	4770      	bx	lr

000d777c <_ZN6RHMesh5doArpEh>:
{
   d777c:	e92d 4ff0 	stmdb	sp!, {r4, r5, r6, r7, r8, r9, sl, fp, lr}
    p->header.msgType = RH_MESH_MESSAGE_TYPE_ROUTE_DISCOVERY_REQUEST;
   d7780:	4d26      	ldr	r5, [pc, #152]	; (d781c <_ZN6RHMesh5doArpEh+0xa0>)
   d7782:	2301      	movs	r3, #1
{
   d7784:	b087      	sub	sp, #28
    p->header.msgType = RH_MESH_MESSAGE_TYPE_ROUTE_DISCOVERY_REQUEST;
   d7786:	702b      	strb	r3, [r5, #0]
    p->destlen = 1; 
   d7788:	706b      	strb	r3, [r5, #1]
    uint8_t error = RHRouter::sendtoWait((uint8_t*)p, sizeof(RHMesh::MeshMessageHeader) + 2, RH_BROADCAST_ADDRESS);
   d778a:	2300      	movs	r3, #0
{
   d778c:	460f      	mov	r7, r1
    p->dest = address; // Who we are looking for
   d778e:	70a9      	strb	r1, [r5, #2]
    uint8_t error = RHRouter::sendtoWait((uint8_t*)p, sizeof(RHMesh::MeshMessageHeader) + 2, RH_BROADCAST_ADDRESS);
   d7790:	9300      	str	r3, [sp, #0]
   d7792:	2203      	movs	r2, #3
   d7794:	23ff      	movs	r3, #255	; 0xff
   d7796:	4629      	mov	r1, r5
{
   d7798:	4606      	mov	r6, r0
    uint8_t error = RHRouter::sendtoWait((uint8_t*)p, sizeof(RHMesh::MeshMessageHeader) + 2, RH_BROADCAST_ADDRESS);
   d779a:	f000 fbe7 	bl	d7f6c <_ZN8RHRouter10sendtoWaitEPhhhh>
    if (error !=  RH_ROUTER_ERROR_NONE)
   d779e:	b120      	cbz	r0, d77aa <_ZN6RHMesh5doArpEh+0x2e>
	return false;
   d77a0:	2400      	movs	r4, #0
}
   d77a2:	4620      	mov	r0, r4
   d77a4:	b007      	add	sp, #28
   d77a6:	e8bd 8ff0 	ldmia.w	sp!, {r4, r5, r6, r7, r8, r9, sl, fp, pc}
    uint8_t messageLen = sizeof(_tmpMessage);
   d77aa:	23fa      	movs	r3, #250	; 0xfa
   d77ac:	f88d 3017 	strb.w	r3, [sp, #23]
   d77b0:	f001 f86c 	bl	d888c <HAL_Timer_Get_Milli_Seconds>
	if (waitAvailableTimeout(timeLeft))
   d77b4:	f106 0904 	add.w	r9, r6, #4
   d77b8:	4680      	mov	r8, r0
	    if (RHRouter::recvfromAck(_tmpMessage, &messageLen))
   d77ba:	46aa      	mov	sl, r5
    while ((timeLeft = RH_MESH_ARP_TIMEOUT - (millis() - starttime)) > 0)
   d77bc:	f508 647a 	add.w	r4, r8, #4000	; 0xfa0
   d77c0:	f001 f864 	bl	d888c <HAL_Timer_Get_Milli_Seconds>
   d77c4:	1a20      	subs	r0, r4, r0
   d77c6:	2800      	cmp	r0, #0
   d77c8:	ddea      	ble.n	d77a0 <_ZN6RHMesh5doArpEh+0x24>
	if (waitAvailableTimeout(timeLeft))
   d77ca:	b281      	uxth	r1, r0
   d77cc:	2200      	movs	r2, #0
   d77ce:	4648      	mov	r0, r9
   d77d0:	f7ff fdbf 	bl	d7352 <_ZN10RHDatagram20waitAvailableTimeoutEtt>
   d77d4:	2800      	cmp	r0, #0
   d77d6:	d0f3      	beq.n	d77c0 <_ZN6RHMesh5doArpEh+0x44>
	    if (RHRouter::recvfromAck(_tmpMessage, &messageLen))
   d77d8:	2300      	movs	r3, #0
   d77da:	e9cd 3302 	strd	r3, r3, [sp, #8]
   d77de:	e9cd 3300 	strd	r3, r3, [sp]
   d77e2:	f10d 0217 	add.w	r2, sp, #23
   d77e6:	4651      	mov	r1, sl
   d77e8:	4630      	mov	r0, r6
   d77ea:	f000 fbc9 	bl	d7f80 <_ZN8RHRouter11recvfromAckEPhS0_S0_S0_S0_S0_S0_>
   d77ee:	4604      	mov	r4, r0
   d77f0:	2800      	cmp	r0, #0
   d77f2:	d0e3      	beq.n	d77bc <_ZN6RHMesh5doArpEh+0x40>
		if (   messageLen > 1
   d77f4:	f89d 3017 	ldrb.w	r3, [sp, #23]
   d77f8:	2b01      	cmp	r3, #1
   d77fa:	d9df      	bls.n	d77bc <_ZN6RHMesh5doArpEh+0x40>
		       && p->header.msgType == RH_MESH_MESSAGE_TYPE_ROUTE_DISCOVERY_RESPONSE)
   d77fc:	f895 b000 	ldrb.w	fp, [r5]
   d7800:	f1bb 0f02 	cmp.w	fp, #2
   d7804:	d1da      	bne.n	d77bc <_ZN6RHMesh5doArpEh+0x40>
		    addRouteTo(address, headerFrom());
   d7806:	4648      	mov	r0, r9
   d7808:	f7ff fde6 	bl	d73d8 <_ZN10RHDatagram10headerFromEv>
   d780c:	465b      	mov	r3, fp
   d780e:	4602      	mov	r2, r0
   d7810:	4639      	mov	r1, r7
   d7812:	4630      	mov	r0, r6
   d7814:	f000 fb21 	bl	d7e5a <_ZN8RHRouter10addRouteToEhhh>
		    return true;
   d7818:	e7c3      	b.n	d77a2 <_ZN6RHMesh5doArpEh+0x26>
   d781a:	bf00      	nop
   d781c:	2003e320 	.word	0x2003e320

000d7820 <_ZN6RHMesh13peekAtMessageEPN8RHRouter13RoutedMessageEh>:
    if (   messageLen > 1 
   d7820:	2a01      	cmp	r2, #1
{
   d7822:	e92d 41f3 	stmdb	sp!, {r0, r1, r4, r5, r6, r7, r8, lr}
   d7826:	4607      	mov	r7, r0
   d7828:	460e      	mov	r6, r1
   d782a:	4614      	mov	r4, r2
    if (   messageLen > 1 
   d782c:	d93b      	bls.n	d78a6 <_ZN6RHMesh13peekAtMessageEPN8RHRouter13RoutedMessageEh+0x86>
	&& m->msgType == RH_MESH_MESSAGE_TYPE_ROUTE_DISCOVERY_RESPONSE)
   d782e:	794d      	ldrb	r5, [r1, #5]
   d7830:	2d02      	cmp	r5, #2
   d7832:	d130      	bne.n	d7896 <_ZN6RHMesh13peekAtMessageEPN8RHRouter13RoutedMessageEh+0x76>
	addRouteTo(d->dest, headerFrom());
   d7834:	f100 0804 	add.w	r8, r0, #4
   d7838:	79c9      	ldrb	r1, [r1, #7]
   d783a:	9101      	str	r1, [sp, #4]
   d783c:	4640      	mov	r0, r8
   d783e:	f7ff fdcb 	bl	d73d8 <_ZN10RHDatagram10headerFromEv>
	uint8_t numRoutes = messageLen - sizeof(RoutedMessageHeader) - sizeof(MeshMessageHeader) - 2;
   d7842:	3c08      	subs	r4, #8
	addRouteTo(d->dest, headerFrom());
   d7844:	462b      	mov	r3, r5
   d7846:	4602      	mov	r2, r0
   d7848:	9901      	ldr	r1, [sp, #4]
   d784a:	4638      	mov	r0, r7
   d784c:	f000 fb05 	bl	d7e5a <_ZN8RHRouter10addRouteToEhhh>
	uint8_t numRoutes = messageLen - sizeof(RoutedMessageHeader) - sizeof(MeshMessageHeader) - 2;
   d7850:	b2e5      	uxtb	r5, r4
	for (i = 0; i < numRoutes; i++)
   d7852:	f106 0308 	add.w	r3, r6, #8
   d7856:	2400      	movs	r4, #0
   d7858:	4622      	mov	r2, r4
   d785a:	4295      	cmp	r5, r2
   d785c:	f104 0401 	add.w	r4, r4, #1
   d7860:	b2e4      	uxtb	r4, r4
   d7862:	d904      	bls.n	d786e <_ZN6RHMesh13peekAtMessageEPN8RHRouter13RoutedMessageEh+0x4e>
	    if (d->route[i] == _thisAddress)
   d7864:	f813 2b01 	ldrb.w	r2, [r3], #1
   d7868:	7a39      	ldrb	r1, [r7, #8]
   d786a:	4291      	cmp	r1, r2
   d786c:	d1f4      	bne.n	d7858 <_ZN6RHMesh13peekAtMessageEPN8RHRouter13RoutedMessageEh+0x38>
   d786e:	f104 0108 	add.w	r1, r4, #8
   d7872:	440e      	add	r6, r1
	while (i < numRoutes)
   d7874:	42a5      	cmp	r5, r4
   d7876:	d916      	bls.n	d78a6 <_ZN6RHMesh13peekAtMessageEPN8RHRouter13RoutedMessageEh+0x86>
	    addRouteTo(d->route[i++], headerFrom());
   d7878:	f816 1b01 	ldrb.w	r1, [r6], #1
   d787c:	9101      	str	r1, [sp, #4]
   d787e:	4640      	mov	r0, r8
   d7880:	f7ff fdaa 	bl	d73d8 <_ZN10RHDatagram10headerFromEv>
   d7884:	3401      	adds	r4, #1
   d7886:	4602      	mov	r2, r0
   d7888:	9901      	ldr	r1, [sp, #4]
   d788a:	2302      	movs	r3, #2
   d788c:	4638      	mov	r0, r7
   d788e:	b2e4      	uxtb	r4, r4
   d7890:	f000 fae3 	bl	d7e5a <_ZN8RHRouter10addRouteToEhhh>
	while (i < numRoutes)
   d7894:	e7ee      	b.n	d7874 <_ZN6RHMesh13peekAtMessageEPN8RHRouter13RoutedMessageEh+0x54>
	     && m->msgType == RH_MESH_MESSAGE_TYPE_ROUTE_FAILURE)
   d7896:	2d03      	cmp	r5, #3
   d7898:	d105      	bne.n	d78a6 <_ZN6RHMesh13peekAtMessageEPN8RHRouter13RoutedMessageEh+0x86>
	deleteRouteTo(d->dest);
   d789a:	7989      	ldrb	r1, [r1, #6]
}
   d789c:	b002      	add	sp, #8
   d789e:	e8bd 41f0 	ldmia.w	sp!, {r4, r5, r6, r7, r8, lr}
	deleteRouteTo(d->dest);
   d78a2:	f000 bac3 	b.w	d7e2c <_ZN8RHRouter13deleteRouteToEh>
}
   d78a6:	b002      	add	sp, #8
   d78a8:	e8bd 81f0 	ldmia.w	sp!, {r4, r5, r6, r7, r8, pc}

000d78ac <_ZN6RHMeshC1ER15RHGenericDriverh>:
RHMesh::RHMesh(RHGenericDriver& driver, uint8_t thisAddress) 
   d78ac:	b510      	push	{r4, lr}
   d78ae:	4604      	mov	r4, r0
    : RHRouter(driver, thisAddress)
   d78b0:	f000 fb14 	bl	d7edc <_ZN8RHRouterC1ER15RHGenericDriverh>
   d78b4:	4b01      	ldr	r3, [pc, #4]	; (d78bc <_ZN6RHMeshC1ER15RHGenericDriverh+0x10>)
   d78b6:	6023      	str	r3, [r4, #0]
}
   d78b8:	4620      	mov	r0, r4
   d78ba:	bd10      	pop	{r4, pc}
   d78bc:	000dd688 	.word	0x000dd688

000d78c0 <_ZN6RHMesh10sendtoWaitEPhhhh>:
{
   d78c0:	e92d 47f0 	stmdb	sp!, {r4, r5, r6, r7, r8, r9, sl, lr}
    if (len > RH_MESH_MAX_MESSAGE_LEN)
   d78c4:	2af9      	cmp	r2, #249	; 0xf9
{
   d78c6:	f89d 9020 	ldrb.w	r9, [sp, #32]
   d78ca:	4606      	mov	r6, r0
   d78cc:	460f      	mov	r7, r1
   d78ce:	4614      	mov	r4, r2
   d78d0:	461d      	mov	r5, r3
    if (len > RH_MESH_MAX_MESSAGE_LEN)
   d78d2:	d825      	bhi.n	d7920 <_ZN6RHMesh10sendtoWaitEPhhhh+0x60>
    if (address != RH_BROADCAST_ADDRESS)
   d78d4:	2bff      	cmp	r3, #255	; 0xff
   d78d6:	d114      	bne.n	d7902 <_ZN6RHMesh10sendtoWaitEPhhhh+0x42>
    a->header.msgType = RH_MESH_MESSAGE_TYPE_APPLICATION;
   d78d8:	f8df 8048 	ldr.w	r8, [pc, #72]	; d7924 <_ZN6RHMesh10sendtoWaitEPhhhh+0x64>
   d78dc:	4640      	mov	r0, r8
   d78de:	2300      	movs	r3, #0
    memcpy(a->data, buf, len);
   d78e0:	4622      	mov	r2, r4
   d78e2:	4639      	mov	r1, r7
    a->header.msgType = RH_MESH_MESSAGE_TYPE_APPLICATION;
   d78e4:	f800 3b01 	strb.w	r3, [r0], #1
    memcpy(a->data, buf, len);
   d78e8:	f004 ffd4 	bl	dc894 <memcpy>
    return RHRouter::sendtoWait(_tmpMessage, sizeof(RHMesh::MeshMessageHeader) + len, address, flags);
   d78ec:	1c62      	adds	r2, r4, #1
   d78ee:	f8cd 9020 	str.w	r9, [sp, #32]
   d78f2:	462b      	mov	r3, r5
   d78f4:	4641      	mov	r1, r8
   d78f6:	4630      	mov	r0, r6
   d78f8:	b2d2      	uxtb	r2, r2
}
   d78fa:	e8bd 47f0 	ldmia.w	sp!, {r4, r5, r6, r7, r8, r9, sl, lr}
    return RHRouter::sendtoWait(_tmpMessage, sizeof(RHMesh::MeshMessageHeader) + len, address, flags);
   d78fe:	f000 bb35 	b.w	d7f6c <_ZN8RHRouter10sendtoWaitEPhhhh>
	RoutingTableEntry* route = getRouteTo(address);
   d7902:	4619      	mov	r1, r3
   d7904:	f000 fa4e 	bl	d7da4 <_ZN8RHRouter10getRouteToEh>
	if (!route && !doArp(address))
   d7908:	2800      	cmp	r0, #0
   d790a:	d1e5      	bne.n	d78d8 <_ZN6RHMesh10sendtoWaitEPhhhh+0x18>
   d790c:	6833      	ldr	r3, [r6, #0]
   d790e:	4629      	mov	r1, r5
   d7910:	689b      	ldr	r3, [r3, #8]
   d7912:	4630      	mov	r0, r6
   d7914:	4798      	blx	r3
   d7916:	2800      	cmp	r0, #0
   d7918:	d1de      	bne.n	d78d8 <_ZN6RHMesh10sendtoWaitEPhhhh+0x18>
	    return RH_ROUTER_ERROR_NO_ROUTE;
   d791a:	2002      	movs	r0, #2
}
   d791c:	e8bd 87f0 	ldmia.w	sp!, {r4, r5, r6, r7, r8, r9, sl, pc}
	return RH_ROUTER_ERROR_INVALID_LENGTH;
   d7920:	2001      	movs	r0, #1
   d7922:	e7fb      	b.n	d791c <_ZN6RHMesh10sendtoWaitEPhhhh+0x5c>
   d7924:	2003e320 	.word	0x2003e320

000d7928 <_ZN6RHMesh11recvfromAckEPhS0_S0_S0_S0_S0_S0_>:

////////////////////////////////////////////////////////////////////
bool RHMesh::recvfromAck(uint8_t* buf, uint8_t* len, uint8_t* source, uint8_t* dest, uint8_t* id, uint8_t* flags, uint8_t* hops)
{     
   d7928:	e92d 4ff0 	stmdb	sp!, {r4, r5, r6, r7, r8, r9, sl, fp, lr}
   d792c:	b089      	sub	sp, #36	; 0x24
   d792e:	4698      	mov	r8, r3
    uint8_t tmpMessageLen = sizeof(_tmpMessage);
   d7930:	23fa      	movs	r3, #250	; 0xfa
   d7932:	f88d 301a 	strb.w	r3, [sp, #26]
    uint8_t _source;
    uint8_t _dest;
    uint8_t _id;
    uint8_t _flags;
    uint8_t _hops;
    if (RHRouter::recvfromAck(_tmpMessage, &tmpMessageLen, &_source, &_dest, &_id, &_flags, &_hops))
   d7936:	f10d 031f 	add.w	r3, sp, #31
   d793a:	9303      	str	r3, [sp, #12]
   d793c:	f10d 031e 	add.w	r3, sp, #30
   d7940:	f8df a180 	ldr.w	sl, [pc, #384]	; d7ac4 <_ZN6RHMesh11recvfromAckEPhS0_S0_S0_S0_S0_S0_+0x19c>
   d7944:	9302      	str	r3, [sp, #8]
   d7946:	f10d 031d 	add.w	r3, sp, #29
   d794a:	9301      	str	r3, [sp, #4]
   d794c:	ab07      	add	r3, sp, #28
   d794e:	9300      	str	r3, [sp, #0]
{     
   d7950:	4689      	mov	r9, r1
   d7952:	4617      	mov	r7, r2
    if (RHRouter::recvfromAck(_tmpMessage, &tmpMessageLen, &_source, &_dest, &_id, &_flags, &_hops))
   d7954:	f10d 031b 	add.w	r3, sp, #27
   d7958:	f10d 021a 	add.w	r2, sp, #26
   d795c:	4651      	mov	r1, sl
{     
   d795e:	f8dd b048 	ldr.w	fp, [sp, #72]	; 0x48
   d7962:	4605      	mov	r5, r0
    if (RHRouter::recvfromAck(_tmpMessage, &tmpMessageLen, &_source, &_dest, &_id, &_flags, &_hops))
   d7964:	f000 fb0c 	bl	d7f80 <_ZN8RHRouter11recvfromAckEPhS0_S0_S0_S0_S0_S0_>
   d7968:	4656      	mov	r6, sl
   d796a:	4604      	mov	r4, r0
   d796c:	b920      	cbnz	r0, d7978 <_ZN6RHMesh11recvfromAckEPhS0_S0_S0_S0_S0_S0_+0x50>
		// REVISIT: if this fails what can we do?
		RHRouter::sendtoFromSourceWait(_tmpMessage, tmpMessageLen, RH_BROADCAST_ADDRESS, _source);
	    }
	}
    }
    return false;
   d796e:	2400      	movs	r4, #0
}
   d7970:	4620      	mov	r0, r4
   d7972:	b009      	add	sp, #36	; 0x24
   d7974:	e8bd 8ff0 	ldmia.w	sp!, {r4, r5, r6, r7, r8, r9, sl, fp, pc}
	if (   tmpMessageLen >= 1 
   d7978:	f89d 301a 	ldrb.w	r3, [sp, #26]
   d797c:	b373      	cbz	r3, d79dc <_ZN6RHMesh11recvfromAckEPhS0_S0_S0_S0_S0_S0_+0xb4>
	    && p->msgType == RH_MESH_MESSAGE_TYPE_APPLICATION)
   d797e:	f89a 2000 	ldrb.w	r2, [sl]
   d7982:	bb5a      	cbnz	r2, d79dc <_ZN6RHMesh11recvfromAckEPhS0_S0_S0_S0_S0_S0_+0xb4>
	    if (source) *source = _source;
   d7984:	f1b8 0f00 	cmp.w	r8, #0
   d7988:	d003      	beq.n	d7992 <_ZN6RHMesh11recvfromAckEPhS0_S0_S0_S0_S0_S0_+0x6a>
   d798a:	f89d 201b 	ldrb.w	r2, [sp, #27]
   d798e:	f888 2000 	strb.w	r2, [r8]
	    if (dest)   *dest   = _dest;
   d7992:	f1bb 0f00 	cmp.w	fp, #0
   d7996:	d003      	beq.n	d79a0 <_ZN6RHMesh11recvfromAckEPhS0_S0_S0_S0_S0_S0_+0x78>
   d7998:	f89d 201c 	ldrb.w	r2, [sp, #28]
   d799c:	f88b 2000 	strb.w	r2, [fp]
	    if (id)     *id     = _id;
   d79a0:	9a13      	ldr	r2, [sp, #76]	; 0x4c
   d79a2:	b11a      	cbz	r2, d79ac <_ZN6RHMesh11recvfromAckEPhS0_S0_S0_S0_S0_S0_+0x84>
   d79a4:	9913      	ldr	r1, [sp, #76]	; 0x4c
   d79a6:	f89d 201d 	ldrb.w	r2, [sp, #29]
   d79aa:	700a      	strb	r2, [r1, #0]
	    if (flags)  *flags  = _flags;
   d79ac:	9a14      	ldr	r2, [sp, #80]	; 0x50
   d79ae:	b11a      	cbz	r2, d79b8 <_ZN6RHMesh11recvfromAckEPhS0_S0_S0_S0_S0_S0_+0x90>
   d79b0:	9914      	ldr	r1, [sp, #80]	; 0x50
   d79b2:	f89d 201e 	ldrb.w	r2, [sp, #30]
   d79b6:	700a      	strb	r2, [r1, #0]
	    if (hops)   *hops   = _hops;
   d79b8:	9a15      	ldr	r2, [sp, #84]	; 0x54
   d79ba:	b11a      	cbz	r2, d79c4 <_ZN6RHMesh11recvfromAckEPhS0_S0_S0_S0_S0_S0_+0x9c>
   d79bc:	9915      	ldr	r1, [sp, #84]	; 0x54
   d79be:	f89d 201f 	ldrb.w	r2, [sp, #31]
   d79c2:	700a      	strb	r2, [r1, #0]
	    if (*len > msgLen)
   d79c4:	783a      	ldrb	r2, [r7, #0]
	    memcpy(buf, a->data, *len);
   d79c6:	493d      	ldr	r1, [pc, #244]	; (d7abc <_ZN6RHMesh11recvfromAckEPhS0_S0_S0_S0_S0_S0_+0x194>)
	    uint8_t msgLen = tmpMessageLen - sizeof(MeshMessageHeader);
   d79c8:	3b01      	subs	r3, #1
   d79ca:	b2db      	uxtb	r3, r3
	    if (*len > msgLen)
   d79cc:	429a      	cmp	r2, r3
		*len = msgLen;
   d79ce:	bf88      	it	hi
   d79d0:	703b      	strbhi	r3, [r7, #0]
	    memcpy(buf, a->data, *len);
   d79d2:	783a      	ldrb	r2, [r7, #0]
   d79d4:	4648      	mov	r0, r9
   d79d6:	f004 ff5d 	bl	dc894 <memcpy>
	    return true;
   d79da:	e7c9      	b.n	d7970 <_ZN6RHMesh11recvfromAckEPhS0_S0_S0_S0_S0_S0_+0x48>
	else if (   _dest == RH_BROADCAST_ADDRESS 
   d79dc:	f89d 201c 	ldrb.w	r2, [sp, #28]
   d79e0:	2aff      	cmp	r2, #255	; 0xff
   d79e2:	d1c4      	bne.n	d796e <_ZN6RHMesh11recvfromAckEPhS0_S0_S0_S0_S0_S0_+0x46>
		 && tmpMessageLen > 1 
   d79e4:	2b01      	cmp	r3, #1
   d79e6:	d9c2      	bls.n	d796e <_ZN6RHMesh11recvfromAckEPhS0_S0_S0_S0_S0_S0_+0x46>
		 && p->msgType == RH_MESH_MESSAGE_TYPE_ROUTE_DISCOVERY_REQUEST)
   d79e8:	7832      	ldrb	r2, [r6, #0]
   d79ea:	2a01      	cmp	r2, #1
   d79ec:	d1bf      	bne.n	d796e <_ZN6RHMesh11recvfromAckEPhS0_S0_S0_S0_S0_S0_+0x46>
	    if (_source == _thisAddress)
   d79ee:	7a2a      	ldrb	r2, [r5, #8]
   d79f0:	f89d 401b 	ldrb.w	r4, [sp, #27]
   d79f4:	42a2      	cmp	r2, r4
   d79f6:	d0ba      	beq.n	d796e <_ZN6RHMesh11recvfromAckEPhS0_S0_S0_S0_S0_S0_+0x46>
	    uint8_t numRoutes = tmpMessageLen - sizeof(MeshMessageHeader) - 2;
   d79f8:	1edf      	subs	r7, r3, #3
   d79fa:	4931      	ldr	r1, [pc, #196]	; (d7ac0 <_ZN6RHMesh11recvfromAckEPhS0_S0_S0_S0_S0_S0_+0x198>)
   d79fc:	b2ff      	uxtb	r7, r7
   d79fe:	2300      	movs	r3, #0
   d7a00:	fa5f f883 	uxtb.w	r8, r3
	    for (i = 0; i < numRoutes; i++)
   d7a04:	4547      	cmp	r7, r8
   d7a06:	d906      	bls.n	d7a16 <_ZN6RHMesh11recvfromAckEPhS0_S0_S0_S0_S0_S0_+0xee>
		if (d->route[i] == _thisAddress)
   d7a08:	f811 0b01 	ldrb.w	r0, [r1], #1
   d7a0c:	4282      	cmp	r2, r0
   d7a0e:	f103 0301 	add.w	r3, r3, #1
   d7a12:	d1f5      	bne.n	d7a00 <_ZN6RHMesh11recvfromAckEPhS0_S0_S0_S0_S0_S0_+0xd8>
   d7a14:	e7ab      	b.n	d796e <_ZN6RHMesh11recvfromAckEPhS0_S0_S0_S0_S0_S0_+0x46>
            addRouteTo(_source, headerFrom()); // The originator needs to be added regardless of node type
   d7a16:	f105 0904 	add.w	r9, r5, #4
   d7a1a:	4648      	mov	r0, r9
   d7a1c:	f7ff fcdc 	bl	d73d8 <_ZN10RHDatagram10headerFromEv>
   d7a20:	2302      	movs	r3, #2
   d7a22:	4602      	mov	r2, r0
   d7a24:	4621      	mov	r1, r4
   d7a26:	4628      	mov	r0, r5
   d7a28:	f000 fa17 	bl	d7e5a <_ZN8RHRouter10addRouteToEhhh>
            if (_isa_router)
   d7a2c:	f895 3117 	ldrb.w	r3, [r5, #279]	; 0x117
   d7a30:	b193      	cbz	r3, d7a58 <_ZN6RHMesh11recvfromAckEPhS0_S0_S0_S0_S0_S0_+0x130>
   d7a32:	4c24      	ldr	r4, [pc, #144]	; (d7ac4 <_ZN6RHMesh11recvfromAckEPhS0_S0_S0_S0_S0_S0_+0x19c>)
	        for (i = 0; i < numRoutes; i++)
   d7a34:	1ba3      	subs	r3, r4, r6
   d7a36:	b2db      	uxtb	r3, r3
   d7a38:	429f      	cmp	r7, r3
   d7a3a:	d90c      	bls.n	d7a56 <_ZN6RHMesh11recvfromAckEPhS0_S0_S0_S0_S0_S0_+0x12e>
		    addRouteTo(d->route[i], headerFrom());
   d7a3c:	78e1      	ldrb	r1, [r4, #3]
   d7a3e:	9105      	str	r1, [sp, #20]
   d7a40:	4648      	mov	r0, r9
   d7a42:	f7ff fcc9 	bl	d73d8 <_ZN10RHDatagram10headerFromEv>
   d7a46:	9905      	ldr	r1, [sp, #20]
   d7a48:	4602      	mov	r2, r0
   d7a4a:	2302      	movs	r3, #2
   d7a4c:	4628      	mov	r0, r5
   d7a4e:	f000 fa04 	bl	d7e5a <_ZN8RHRouter10addRouteToEhhh>
	        for (i = 0; i < numRoutes; i++)
   d7a52:	3401      	adds	r4, #1
   d7a54:	e7ee      	b.n	d7a34 <_ZN6RHMesh11recvfromAckEPhS0_S0_S0_S0_S0_S0_+0x10c>
   d7a56:	46b8      	mov	r8, r7
	    if (isPhysicalAddress(&d->dest, d->destlen))
   d7a58:	682b      	ldr	r3, [r5, #0]
   d7a5a:	7872      	ldrb	r2, [r6, #1]
   d7a5c:	68db      	ldr	r3, [r3, #12]
   d7a5e:	491a      	ldr	r1, [pc, #104]	; (d7ac8 <_ZN6RHMesh11recvfromAckEPhS0_S0_S0_S0_S0_S0_+0x1a0>)
   d7a60:	4628      	mov	r0, r5
   d7a62:	4798      	blx	r3
   d7a64:	4604      	mov	r4, r0
   d7a66:	b160      	cbz	r0, d7a82 <_ZN6RHMesh11recvfromAckEPhS0_S0_S0_S0_S0_S0_+0x15a>
		d->header.msgType = RH_MESH_MESSAGE_TYPE_ROUTE_DISCOVERY_RESPONSE;
   d7a68:	2302      	movs	r3, #2
		RHRouter::sendtoWait((uint8_t*)d, tmpMessageLen, _source);
   d7a6a:	2400      	movs	r4, #0
		d->header.msgType = RH_MESH_MESSAGE_TYPE_ROUTE_DISCOVERY_RESPONSE;
   d7a6c:	7033      	strb	r3, [r6, #0]
		RHRouter::sendtoWait((uint8_t*)d, tmpMessageLen, _source);
   d7a6e:	f89d 201a 	ldrb.w	r2, [sp, #26]
   d7a72:	f89d 301b 	ldrb.w	r3, [sp, #27]
   d7a76:	4913      	ldr	r1, [pc, #76]	; (d7ac4 <_ZN6RHMesh11recvfromAckEPhS0_S0_S0_S0_S0_S0_+0x19c>)
   d7a78:	9400      	str	r4, [sp, #0]
   d7a7a:	4628      	mov	r0, r5
   d7a7c:	f000 fa76 	bl	d7f6c <_ZN8RHRouter10sendtoWaitEPhhhh>
   d7a80:	e776      	b.n	d7970 <_ZN6RHMesh11recvfromAckEPhS0_S0_S0_S0_S0_S0_+0x48>
	    else if ((i < _max_hops) && _isa_router)
   d7a82:	f895 3116 	ldrb.w	r3, [r5, #278]	; 0x116
   d7a86:	4543      	cmp	r3, r8
   d7a88:	f67f af71 	bls.w	d796e <_ZN6RHMesh11recvfromAckEPhS0_S0_S0_S0_S0_S0_+0x46>
   d7a8c:	f895 3117 	ldrb.w	r3, [r5, #279]	; 0x117
   d7a90:	2b00      	cmp	r3, #0
   d7a92:	f43f af6c 	beq.w	d796e <_ZN6RHMesh11recvfromAckEPhS0_S0_S0_S0_S0_S0_+0x46>
		tmpMessageLen++;
   d7a96:	f89d 201a 	ldrb.w	r2, [sp, #26]
		d->route[numRoutes] = _thisAddress;
   d7a9a:	7a2b      	ldrb	r3, [r5, #8]
		RHRouter::sendtoFromSourceWait(_tmpMessage, tmpMessageLen, RH_BROADCAST_ADDRESS, _source);
   d7a9c:	4909      	ldr	r1, [pc, #36]	; (d7ac4 <_ZN6RHMesh11recvfromAckEPhS0_S0_S0_S0_S0_S0_+0x19c>)
		d->route[numRoutes] = _thisAddress;
   d7a9e:	443e      	add	r6, r7
		tmpMessageLen++;
   d7aa0:	3201      	adds	r2, #1
		d->route[numRoutes] = _thisAddress;
   d7aa2:	70f3      	strb	r3, [r6, #3]
		RHRouter::sendtoFromSourceWait(_tmpMessage, tmpMessageLen, RH_BROADCAST_ADDRESS, _source);
   d7aa4:	f89d 301b 	ldrb.w	r3, [sp, #27]
   d7aa8:	9001      	str	r0, [sp, #4]
		tmpMessageLen++;
   d7aaa:	b2d2      	uxtb	r2, r2
		RHRouter::sendtoFromSourceWait(_tmpMessage, tmpMessageLen, RH_BROADCAST_ADDRESS, _source);
   d7aac:	9300      	str	r3, [sp, #0]
   d7aae:	4628      	mov	r0, r5
   d7ab0:	23ff      	movs	r3, #255	; 0xff
		tmpMessageLen++;
   d7ab2:	f88d 201a 	strb.w	r2, [sp, #26]
		RHRouter::sendtoFromSourceWait(_tmpMessage, tmpMessageLen, RH_BROADCAST_ADDRESS, _source);
   d7ab6:	f000 fa23 	bl	d7f00 <_ZN8RHRouter20sendtoFromSourceWaitEPhhhhh>
   d7aba:	e759      	b.n	d7970 <_ZN6RHMesh11recvfromAckEPhS0_S0_S0_S0_S0_S0_+0x48>
   d7abc:	2003e321 	.word	0x2003e321
   d7ac0:	2003e323 	.word	0x2003e323
   d7ac4:	2003e320 	.word	0x2003e320
   d7ac8:	2003e322 	.word	0x2003e322

000d7acc <_ZN6RHMesh18recvfromAckTimeoutEPhS0_tS0_S0_S0_S0_S0_>:

////////////////////////////////////////////////////////////////////
bool RHMesh::recvfromAckTimeout(uint8_t* buf, uint8_t* len, uint16_t timeout, uint8_t* from, uint8_t* to, uint8_t* id, uint8_t* flags, uint8_t* hops)
{  
   d7acc:	e92d 4ff0 	stmdb	sp!, {r4, r5, r6, r7, r8, r9, sl, fp, lr}
   d7ad0:	b085      	sub	sp, #20
   d7ad2:	4680      	mov	r8, r0
   d7ad4:	461c      	mov	r4, r3
   d7ad6:	e9dd 5610 	ldrd	r5, r6, [sp, #64]	; 0x40
   d7ada:	9f12      	ldr	r7, [sp, #72]	; 0x48
   d7adc:	4689      	mov	r9, r1
   d7ade:	4692      	mov	sl, r2
   d7ae0:	f000 fed4 	bl	d888c <HAL_Timer_Get_Milli_Seconds>
    unsigned long starttime = millis();
    int32_t timeLeft;
    while ((timeLeft = timeout - (millis() - starttime)) > 0)
    {
	if (waitAvailableTimeout(timeLeft))
   d7ae4:	f108 0b04 	add.w	fp, r8, #4
    while ((timeLeft = timeout - (millis() - starttime)) > 0)
   d7ae8:	4404      	add	r4, r0
   d7aea:	f000 fecf 	bl	d888c <HAL_Timer_Get_Milli_Seconds>
   d7aee:	1a20      	subs	r0, r4, r0
   d7af0:	2800      	cmp	r0, #0
   d7af2:	dd16      	ble.n	d7b22 <_ZN6RHMesh18recvfromAckTimeoutEPhS0_tS0_S0_S0_S0_S0_+0x56>
	if (waitAvailableTimeout(timeLeft))
   d7af4:	b281      	uxth	r1, r0
   d7af6:	2200      	movs	r2, #0
   d7af8:	4658      	mov	r0, fp
   d7afa:	f7ff fc2a 	bl	d7352 <_ZN10RHDatagram20waitAvailableTimeoutEtt>
   d7afe:	2800      	cmp	r0, #0
   d7b00:	d0f3      	beq.n	d7aea <_ZN6RHMesh18recvfromAckTimeoutEPhS0_tS0_S0_S0_S0_S0_+0x1e>
	{
	    if (recvfromAck(buf, len, from, to, id, flags, hops))
   d7b02:	9b0f      	ldr	r3, [sp, #60]	; 0x3c
   d7b04:	9300      	str	r3, [sp, #0]
   d7b06:	e9cd 6702 	strd	r6, r7, [sp, #8]
   d7b0a:	9b0e      	ldr	r3, [sp, #56]	; 0x38
   d7b0c:	9501      	str	r5, [sp, #4]
   d7b0e:	4652      	mov	r2, sl
   d7b10:	4649      	mov	r1, r9
   d7b12:	4640      	mov	r0, r8
   d7b14:	f7ff ff08 	bl	d7928 <_ZN6RHMesh11recvfromAckEPhS0_S0_S0_S0_S0_S0_>
   d7b18:	2800      	cmp	r0, #0
   d7b1a:	d0e6      	beq.n	d7aea <_ZN6RHMesh18recvfromAckTimeoutEPhS0_tS0_S0_S0_S0_S0_+0x1e>
		return true;
	    YIELD;
	}
    }
    return false;
}
   d7b1c:	b005      	add	sp, #20
   d7b1e:	e8bd 8ff0 	ldmia.w	sp!, {r4, r5, r6, r7, r8, r9, sl, fp, pc}
    return false;
   d7b22:	2000      	movs	r0, #0
   d7b24:	e7fa      	b.n	d7b1c <_ZN6RHMesh18recvfromAckTimeoutEPhS0_tS0_S0_S0_S0_S0_+0x50>
	...

000d7b28 <_ZN6RHMesh5routeEPN8RHRouter13RoutedMessageEh>:
{
   d7b28:	b5f0      	push	{r4, r5, r6, r7, lr}
   d7b2a:	b085      	sub	sp, #20
   d7b2c:	4605      	mov	r5, r0
    uint8_t from = headerFrom(); // Might get clobbered during call to superclass route()
   d7b2e:	3004      	adds	r0, #4
{
   d7b30:	460e      	mov	r6, r1
   d7b32:	9203      	str	r2, [sp, #12]
    uint8_t from = headerFrom(); // Might get clobbered during call to superclass route()
   d7b34:	f7ff fc50 	bl	d73d8 <_ZN10RHDatagram10headerFromEv>
    uint8_t ret = RHRouter::route(message, messageLen);
   d7b38:	9a03      	ldr	r2, [sp, #12]
    uint8_t from = headerFrom(); // Might get clobbered during call to superclass route()
   d7b3a:	4607      	mov	r7, r0
    uint8_t ret = RHRouter::route(message, messageLen);
   d7b3c:	4631      	mov	r1, r6
   d7b3e:	4628      	mov	r0, r5
   d7b40:	f000 f947 	bl	d7dd2 <_ZN8RHRouter5routeEPNS_13RoutedMessageEh>
    if (   ret == RH_ROUTER_ERROR_NO_ROUTE
   d7b44:	2802      	cmp	r0, #2
    uint8_t ret = RHRouter::route(message, messageLen);
   d7b46:	4604      	mov	r4, r0
    if (   ret == RH_ROUTER_ERROR_NO_ROUTE
   d7b48:	d001      	beq.n	d7b4e <_ZN6RHMesh5routeEPN8RHRouter13RoutedMessageEh+0x26>
	|| ret == RH_ROUTER_ERROR_UNABLE_TO_DELIVER)
   d7b4a:	2805      	cmp	r0, #5
   d7b4c:	d11b      	bne.n	d7b86 <_ZN6RHMesh5routeEPN8RHRouter13RoutedMessageEh+0x5e>
	deleteRouteTo(message->header.dest);
   d7b4e:	7831      	ldrb	r1, [r6, #0]
   d7b50:	4628      	mov	r0, r5
   d7b52:	f000 f96b 	bl	d7e2c <_ZN8RHRouter13deleteRouteToEh>
	if (message->header.source != _thisAddress)
   d7b56:	7872      	ldrb	r2, [r6, #1]
   d7b58:	7a2b      	ldrb	r3, [r5, #8]
   d7b5a:	429a      	cmp	r2, r3
   d7b5c:	d013      	beq.n	d7b86 <_ZN6RHMesh5routeEPN8RHRouter13RoutedMessageEh+0x5e>
	    p->header.msgType = RH_MESH_MESSAGE_TYPE_ROUTE_FAILURE;
   d7b5e:	4c0b      	ldr	r4, [pc, #44]	; (d7b8c <_ZN6RHMesh5routeEPN8RHRouter13RoutedMessageEh+0x64>)
   d7b60:	2303      	movs	r3, #3
   d7b62:	7023      	strb	r3, [r4, #0]
	    p->dest = message->header.dest; // Who you were trying to deliver to
   d7b64:	7833      	ldrb	r3, [r6, #0]
   d7b66:	7063      	strb	r3, [r4, #1]
	    addRouteTo(message->header.source, from);
   d7b68:	7871      	ldrb	r1, [r6, #1]
   d7b6a:	2302      	movs	r3, #2
   d7b6c:	463a      	mov	r2, r7
   d7b6e:	4628      	mov	r0, r5
   d7b70:	f000 f973 	bl	d7e5a <_ZN8RHRouter10addRouteToEhhh>
	    ret = RHRouter::sendtoWait((uint8_t*)p, sizeof(RHMesh::MeshMessageHeader) + 1, message->header.source);
   d7b74:	2300      	movs	r3, #0
   d7b76:	9300      	str	r3, [sp, #0]
   d7b78:	4621      	mov	r1, r4
   d7b7a:	7873      	ldrb	r3, [r6, #1]
   d7b7c:	2202      	movs	r2, #2
   d7b7e:	4628      	mov	r0, r5
   d7b80:	f000 f9f4 	bl	d7f6c <_ZN8RHRouter10sendtoWaitEPhhhh>
   d7b84:	4604      	mov	r4, r0
}
   d7b86:	4620      	mov	r0, r4
   d7b88:	b005      	add	sp, #20
   d7b8a:	bdf0      	pop	{r4, r5, r6, r7, pc}
   d7b8c:	2003e320 	.word	0x2003e320

000d7b90 <_ZN18RHReliableDatagramC1ER15RHGenericDriverh>:

#include <RHReliableDatagram.h>

////////////////////////////////////////////////////////////////////
// Constructors
RHReliableDatagram::RHReliableDatagram(RHGenericDriver& driver, uint8_t thisAddress) 
   d7b90:	b510      	push	{r4, lr}
   d7b92:	4604      	mov	r4, r0
    : RHDatagram(driver, thisAddress)
   d7b94:	f7ff fbd2 	bl	d733c <_ZN10RHDatagramC1ER15RHGenericDriverh>
{
    _retransmissions = 0;
    _lastSequenceNumber = 0;
    _timeout = RH_DEFAULT_TIMEOUT;
   d7b98:	23c8      	movs	r3, #200	; 0xc8
    _retransmissions = 0;
   d7b9a:	2100      	movs	r1, #0
    _timeout = RH_DEFAULT_TIMEOUT;
   d7b9c:	81e3      	strh	r3, [r4, #14]
    _retries = RH_DEFAULT_RETRIES;
   d7b9e:	2303      	movs	r3, #3
    _retransmissions = 0;
   d7ba0:	60a1      	str	r1, [r4, #8]
    _lastSequenceNumber = 0;
   d7ba2:	7321      	strb	r1, [r4, #12]
    _retries = RH_DEFAULT_RETRIES;
   d7ba4:	7423      	strb	r3, [r4, #16]
    memset(_seenIds, 0, sizeof(_seenIds));
   d7ba6:	f44f 7280 	mov.w	r2, #256	; 0x100
   d7baa:	f104 0011 	add.w	r0, r4, #17
   d7bae:	f004 fe99 	bl	dc8e4 <memset>
}
   d7bb2:	4620      	mov	r0, r4
   d7bb4:	bd10      	pop	{r4, pc}

000d7bb6 <_ZN18RHReliableDatagram11acknowledgeEhh>:
{
    _retransmissions = 0;
}
 
void RHReliableDatagram::acknowledge(uint8_t id, uint8_t from)
{
   d7bb6:	b51f      	push	{r0, r1, r2, r3, r4, lr}
   d7bb8:	4604      	mov	r4, r0
   d7bba:	9201      	str	r2, [sp, #4]
    setHeaderId(id);
   d7bbc:	f7ff fc00 	bl	d73c0 <_ZN10RHDatagram11setHeaderIdEh>
    setHeaderFlags(RH_FLAGS_ACK);
   d7bc0:	4620      	mov	r0, r4
   d7bc2:	2200      	movs	r2, #0
   d7bc4:	2180      	movs	r1, #128	; 0x80
   d7bc6:	f7ff fbff 	bl	d73c8 <_ZN10RHDatagram14setHeaderFlagsEhh>
    // We would prefer to send a zero length ACK,
    // but if an RH_RF22 receives a 0 length message with a CRC error, it will never receive
    // a 0 length message again, until its reset, which makes everything hang :-(
    // So we send an ACK of 1 octet
    // REVISIT: should we send the RSSI for the information of the sender?
    uint8_t ack = '!';
   d7bca:	2221      	movs	r2, #33	; 0x21
    sendto(&ack, sizeof(ack), from); 
   d7bcc:	9b01      	ldr	r3, [sp, #4]
    uint8_t ack = '!';
   d7bce:	f88d 200f 	strb.w	r2, [sp, #15]
    sendto(&ack, sizeof(ack), from); 
   d7bd2:	f10d 010f 	add.w	r1, sp, #15
   d7bd6:	2201      	movs	r2, #1
   d7bd8:	4620      	mov	r0, r4
   d7bda:	f7ff fbc2 	bl	d7362 <_ZN10RHDatagram6sendtoEPhhh>
    waitPacketSent();
   d7bde:	4620      	mov	r0, r4
   d7be0:	f7ff fbb3 	bl	d734a <_ZN10RHDatagram14waitPacketSentEv>
}
   d7be4:	b004      	add	sp, #16
   d7be6:	bd10      	pop	{r4, pc}

000d7be8 <_ZN18RHReliableDatagram10sendtoWaitEPhhh>:
{
   d7be8:	e92d 4ff0 	stmdb	sp!, {r4, r5, r6, r7, r8, r9, sl, fp, lr}
    uint8_t thisSequenceNumber = ++_lastSequenceNumber;
   d7bec:	7b05      	ldrb	r5, [r0, #12]
   d7bee:	3501      	adds	r5, #1
   d7bf0:	b2ed      	uxtb	r5, r5
{
   d7bf2:	b087      	sub	sp, #28
   d7bf4:	4604      	mov	r4, r0
   d7bf6:	4689      	mov	r9, r1
   d7bf8:	4692      	mov	sl, r2
   d7bfa:	4698      	mov	r8, r3
    uint8_t thisSequenceNumber = ++_lastSequenceNumber;
   d7bfc:	7305      	strb	r5, [r0, #12]
    uint8_t retries = 0;
   d7bfe:	2700      	movs	r7, #0
    while (retries++ <= _retries)
   d7c00:	7c22      	ldrb	r2, [r4, #16]
   d7c02:	463b      	mov	r3, r7
   d7c04:	429a      	cmp	r2, r3
   d7c06:	f107 0701 	add.w	r7, r7, #1
   d7c0a:	b2ff      	uxtb	r7, r7
   d7c0c:	d36b      	bcc.n	d7ce6 <_ZN18RHReliableDatagram10sendtoWaitEPhhh+0xfe>
	setHeaderId(thisSequenceNumber);
   d7c0e:	4629      	mov	r1, r5
   d7c10:	4620      	mov	r0, r4
   d7c12:	f7ff fbd5 	bl	d73c0 <_ZN10RHDatagram11setHeaderIdEh>
        uint8_t headerFlagsToClear = RH_FLAGS_ACK;
   d7c16:	2f01      	cmp	r7, #1
        setHeaderFlags(headerFlagsToSet, headerFlagsToClear);
   d7c18:	bf0d      	iteet	eq
   d7c1a:	22c0      	moveq	r2, #192	; 0xc0
   d7c1c:	2280      	movne	r2, #128	; 0x80
   d7c1e:	2140      	movne	r1, #64	; 0x40
   d7c20:	2100      	moveq	r1, #0
   d7c22:	4620      	mov	r0, r4
   d7c24:	f7ff fbd0 	bl	d73c8 <_ZN10RHDatagram14setHeaderFlagsEhh>
	sendto(buf, len, address);
   d7c28:	4643      	mov	r3, r8
   d7c2a:	4652      	mov	r2, sl
   d7c2c:	4649      	mov	r1, r9
   d7c2e:	4620      	mov	r0, r4
   d7c30:	f7ff fb97 	bl	d7362 <_ZN10RHDatagram6sendtoEPhhh>
	waitPacketSent();
   d7c34:	4620      	mov	r0, r4
   d7c36:	f7ff fb88 	bl	d734a <_ZN10RHDatagram14waitPacketSentEv>
	if (address == RH_BROADCAST_ADDRESS)
   d7c3a:	f1b8 0fff 	cmp.w	r8, #255	; 0xff
   d7c3e:	d054      	beq.n	d7cea <_ZN18RHReliableDatagram10sendtoWaitEPhhh+0x102>
	if (retries > 1)
   d7c40:	2f01      	cmp	r7, #1
	    _retransmissions++;
   d7c42:	bf82      	ittt	hi
   d7c44:	68a3      	ldrhi	r3, [r4, #8]
   d7c46:	3301      	addhi	r3, #1
   d7c48:	60a3      	strhi	r3, [r4, #8]
   d7c4a:	f000 fe1f 	bl	d888c <HAL_Timer_Get_Milli_Seconds>
	uint16_t timeout = _timeout + (_timeout * random(0, 256) / 256);
   d7c4e:	f44f 7180 	mov.w	r1, #256	; 0x100
   d7c52:	4683      	mov	fp, r0
   d7c54:	2000      	movs	r0, #0
   d7c56:	89e6      	ldrh	r6, [r4, #14]
   d7c58:	f003 fb1c 	bl	db294 <_Z6randomii>
   d7c5c:	4370      	muls	r0, r6
   d7c5e:	bf48      	it	mi
   d7c60:	30ff      	addmi	r0, #255	; 0xff
   d7c62:	eb06 2620 	add.w	r6, r6, r0, asr #8
        while ((timeLeft = timeout - (millis() - thisSendTime)) > 0)
   d7c66:	fa1b f686 	uxtah	r6, fp, r6
   d7c6a:	f000 fe0f 	bl	d888c <HAL_Timer_Get_Milli_Seconds>
   d7c6e:	1a30      	subs	r0, r6, r0
   d7c70:	2800      	cmp	r0, #0
   d7c72:	ddc5      	ble.n	d7c00 <_ZN18RHReliableDatagram10sendtoWaitEPhhh+0x18>
	    if (waitAvailableTimeout(timeLeft))
   d7c74:	b281      	uxth	r1, r0
   d7c76:	2200      	movs	r2, #0
   d7c78:	4620      	mov	r0, r4
   d7c7a:	f7ff fb6a 	bl	d7352 <_ZN10RHDatagram20waitAvailableTimeoutEtt>
   d7c7e:	2800      	cmp	r0, #0
   d7c80:	d0f3      	beq.n	d7c6a <_ZN18RHReliableDatagram10sendtoWaitEPhhh+0x82>
		if (recvfrom(0, 0, &from, &to, &id, &flags)) // Discards the message
   d7c82:	f10d 0317 	add.w	r3, sp, #23
   d7c86:	9302      	str	r3, [sp, #8]
   d7c88:	f10d 0316 	add.w	r3, sp, #22
   d7c8c:	9301      	str	r3, [sp, #4]
   d7c8e:	2200      	movs	r2, #0
   d7c90:	f10d 0315 	add.w	r3, sp, #21
   d7c94:	9300      	str	r3, [sp, #0]
   d7c96:	4611      	mov	r1, r2
   d7c98:	ab05      	add	r3, sp, #20
   d7c9a:	4620      	mov	r0, r4
   d7c9c:	f7ff fba8 	bl	d73f0 <_ZN10RHDatagram8recvfromEPhS0_S0_S0_S0_S0_>
   d7ca0:	2800      	cmp	r0, #0
   d7ca2:	d0e2      	beq.n	d7c6a <_ZN18RHReliableDatagram10sendtoWaitEPhhh+0x82>
		    if (   from == address 
   d7ca4:	f89d 2014 	ldrb.w	r2, [sp, #20]
   d7ca8:	f99d 3017 	ldrsb.w	r3, [sp, #23]
   d7cac:	4542      	cmp	r2, r8
   d7cae:	d10e      	bne.n	d7cce <_ZN18RHReliableDatagram10sendtoWaitEPhhh+0xe6>
			   && to == _thisAddress 
   d7cb0:	f894 c004 	ldrb.w	ip, [r4, #4]
   d7cb4:	f89d 1015 	ldrb.w	r1, [sp, #21]
   d7cb8:	458c      	cmp	ip, r1
   d7cba:	d108      	bne.n	d7cce <_ZN18RHReliableDatagram10sendtoWaitEPhhh+0xe6>
			   && (flags & RH_FLAGS_ACK) 
   d7cbc:	2b00      	cmp	r3, #0
   d7cbe:	da08      	bge.n	d7cd2 <_ZN18RHReliableDatagram10sendtoWaitEPhhh+0xea>
			   && (id == thisSequenceNumber))
   d7cc0:	f89d 3016 	ldrb.w	r3, [sp, #22]
   d7cc4:	42ab      	cmp	r3, r5
   d7cc6:	d1d0      	bne.n	d7c6a <_ZN18RHReliableDatagram10sendtoWaitEPhhh+0x82>
}
   d7cc8:	b007      	add	sp, #28
   d7cca:	e8bd 8ff0 	ldmia.w	sp!, {r4, r5, r6, r7, r8, r9, sl, fp, pc}
		    else if (   !(flags & RH_FLAGS_ACK)
   d7cce:	2b00      	cmp	r3, #0
   d7cd0:	dbcb      	blt.n	d7c6a <_ZN18RHReliableDatagram10sendtoWaitEPhhh+0x82>
				&& (id == _seenIds[from]))
   d7cd2:	18a1      	adds	r1, r4, r2
   d7cd4:	f89d 3016 	ldrb.w	r3, [sp, #22]
   d7cd8:	7c49      	ldrb	r1, [r1, #17]
   d7cda:	4299      	cmp	r1, r3
   d7cdc:	d1c5      	bne.n	d7c6a <_ZN18RHReliableDatagram10sendtoWaitEPhhh+0x82>
			acknowledge(id, from);
   d7cde:	4620      	mov	r0, r4
   d7ce0:	f7ff ff69 	bl	d7bb6 <_ZN18RHReliableDatagram11acknowledgeEhh>
   d7ce4:	e7c1      	b.n	d7c6a <_ZN18RHReliableDatagram10sendtoWaitEPhhh+0x82>
    return false;
   d7ce6:	2000      	movs	r0, #0
   d7ce8:	e7ee      	b.n	d7cc8 <_ZN18RHReliableDatagram10sendtoWaitEPhhh+0xe0>
	    return true;
   d7cea:	2001      	movs	r0, #1
   d7cec:	e7ec      	b.n	d7cc8 <_ZN18RHReliableDatagram10sendtoWaitEPhhh+0xe0>

000d7cee <_ZN18RHReliableDatagram11recvfromAckEPhS0_S0_S0_S0_S0_>:
{  
   d7cee:	e92d 43f0 	stmdb	sp!, {r4, r5, r6, r7, r8, r9, lr}
   d7cf2:	b089      	sub	sp, #36	; 0x24
   d7cf4:	e9cd 2104 	strd	r2, r1, [sp, #16]
   d7cf8:	e9dd 9810 	ldrd	r9, r8, [sp, #64]	; 0x40
   d7cfc:	9f12      	ldr	r7, [sp, #72]	; 0x48
   d7cfe:	4604      	mov	r4, r0
   d7d00:	461e      	mov	r6, r3
    if (available() && recvfrom(buf, len, &_from, &_to, &_id, &_flags))
   d7d02:	f7ff fb1e 	bl	d7342 <_ZN10RHDatagram9availableEv>
   d7d06:	e9dd 2104 	ldrd	r2, r1, [sp, #16]
   d7d0a:	b920      	cbnz	r0, d7d16 <_ZN18RHReliableDatagram11recvfromAckEPhS0_S0_S0_S0_S0_+0x28>
    return false;
   d7d0c:	2500      	movs	r5, #0
}
   d7d0e:	4628      	mov	r0, r5
   d7d10:	b009      	add	sp, #36	; 0x24
   d7d12:	e8bd 83f0 	ldmia.w	sp!, {r4, r5, r6, r7, r8, r9, pc}
    if (available() && recvfrom(buf, len, &_from, &_to, &_id, &_flags))
   d7d16:	f10d 031f 	add.w	r3, sp, #31
   d7d1a:	9302      	str	r3, [sp, #8]
   d7d1c:	f10d 031e 	add.w	r3, sp, #30
   d7d20:	9301      	str	r3, [sp, #4]
   d7d22:	f10d 031d 	add.w	r3, sp, #29
   d7d26:	9300      	str	r3, [sp, #0]
   d7d28:	4620      	mov	r0, r4
   d7d2a:	ab07      	add	r3, sp, #28
   d7d2c:	f7ff fb60 	bl	d73f0 <_ZN10RHDatagram8recvfromEPhS0_S0_S0_S0_S0_>
   d7d30:	4605      	mov	r5, r0
   d7d32:	2800      	cmp	r0, #0
   d7d34:	d0ea      	beq.n	d7d0c <_ZN18RHReliableDatagram11recvfromAckEPhS0_S0_S0_S0_S0_+0x1e>
	if (!(_flags & RH_FLAGS_ACK))
   d7d36:	f99d 301f 	ldrsb.w	r3, [sp, #31]
   d7d3a:	2b00      	cmp	r3, #0
   d7d3c:	dbe6      	blt.n	d7d0c <_ZN18RHReliableDatagram11recvfromAckEPhS0_S0_S0_S0_S0_+0x1e>
	    if (_to ==_thisAddress)
   d7d3e:	7922      	ldrb	r2, [r4, #4]
   d7d40:	f89d 301d 	ldrb.w	r3, [sp, #29]
   d7d44:	429a      	cmp	r2, r3
   d7d46:	d106      	bne.n	d7d56 <_ZN18RHReliableDatagram11recvfromAckEPhS0_S0_S0_S0_S0_+0x68>
		acknowledge(_id, _from);
   d7d48:	f89d 201c 	ldrb.w	r2, [sp, #28]
   d7d4c:	f89d 101e 	ldrb.w	r1, [sp, #30]
   d7d50:	4620      	mov	r0, r4
   d7d52:	f7ff ff30 	bl	d7bb6 <_ZN18RHReliableDatagram11acknowledgeEhh>
	    if ((RH_ENABLE_EXPLICIT_RETRY_DEDUP && !(_flags & RH_FLAGS_RETRY)) || _id != _seenIds[_from])
   d7d56:	f89d 201c 	ldrb.w	r2, [sp, #28]
   d7d5a:	f89d 301e 	ldrb.w	r3, [sp, #30]
   d7d5e:	4414      	add	r4, r2
   d7d60:	7c61      	ldrb	r1, [r4, #17]
   d7d62:	4299      	cmp	r1, r3
   d7d64:	d0d2      	beq.n	d7d0c <_ZN18RHReliableDatagram11recvfromAckEPhS0_S0_S0_S0_S0_+0x1e>
		if (from)  *from =  _from;
   d7d66:	b106      	cbz	r6, d7d6a <_ZN18RHReliableDatagram11recvfromAckEPhS0_S0_S0_S0_S0_+0x7c>
   d7d68:	7032      	strb	r2, [r6, #0]
		if (to)    *to =    _to;
   d7d6a:	f1b9 0f00 	cmp.w	r9, #0
   d7d6e:	d003      	beq.n	d7d78 <_ZN18RHReliableDatagram11recvfromAckEPhS0_S0_S0_S0_S0_+0x8a>
   d7d70:	f89d 201d 	ldrb.w	r2, [sp, #29]
   d7d74:	f889 2000 	strb.w	r2, [r9]
		if (id)    *id =    _id;
   d7d78:	f1b8 0f00 	cmp.w	r8, #0
   d7d7c:	d001      	beq.n	d7d82 <_ZN18RHReliableDatagram11recvfromAckEPhS0_S0_S0_S0_S0_+0x94>
   d7d7e:	f888 3000 	strb.w	r3, [r8]
		if (flags) *flags = _flags;
   d7d82:	b117      	cbz	r7, d7d8a <_ZN18RHReliableDatagram11recvfromAckEPhS0_S0_S0_S0_S0_+0x9c>
   d7d84:	f89d 201f 	ldrb.w	r2, [sp, #31]
   d7d88:	703a      	strb	r2, [r7, #0]
		_seenIds[_from] = _id;
   d7d8a:	7463      	strb	r3, [r4, #17]
		return true;
   d7d8c:	e7bf      	b.n	d7d0e <_ZN18RHReliableDatagram11recvfromAckEPhS0_S0_S0_S0_S0_+0x20>

000d7d8e <_ZN8RHRouter13peekAtMessageEPNS_13RoutedMessageEh>:
void RHRouter::peekAtMessage(RoutedMessage* message, uint8_t messageLen)
{
  // Default does nothing
  (void)message; // Not used
  (void)messageLen; // Not used
}
   d7d8e:	4770      	bx	lr

000d7d90 <_ZN8RHRouter4initEv>:
{
   d7d90:	b510      	push	{r4, lr}
   d7d92:	4604      	mov	r4, r0
    bool ret = RHReliableDatagram::init();
   d7d94:	3004      	adds	r0, #4
   d7d96:	f7ff fb05 	bl	d73a4 <_ZN10RHDatagram4initEv>
    if (ret)
   d7d9a:	b110      	cbz	r0, d7da2 <_ZN8RHRouter4initEv+0x12>
	_max_hops = RH_DEFAULT_MAX_HOPS;
   d7d9c:	231e      	movs	r3, #30
   d7d9e:	f884 3116 	strb.w	r3, [r4, #278]	; 0x116
}
   d7da2:	bd10      	pop	{r4, pc}

000d7da4 <_ZN8RHRouter10getRouteToEh>:
{
   d7da4:	b510      	push	{r4, lr}
   d7da6:	4602      	mov	r2, r0
   d7da8:	2300      	movs	r3, #0
	if (_routes[i].dest == dest && _routes[i].state != Invalid)
   d7daa:	f892 4118 	ldrb.w	r4, [r2, #280]	; 0x118
   d7dae:	428c      	cmp	r4, r1
   d7db0:	d108      	bne.n	d7dc4 <_ZN8RHRouter10getRouteToEh+0x20>
   d7db2:	f892 411a 	ldrb.w	r4, [r2, #282]	; 0x11a
   d7db6:	b12c      	cbz	r4, d7dc4 <_ZN8RHRouter10getRouteToEh+0x20>
	    return &_routes[i];
   d7db8:	eb03 0343 	add.w	r3, r3, r3, lsl #1
   d7dbc:	f503 738c 	add.w	r3, r3, #280	; 0x118
   d7dc0:	4418      	add	r0, r3
}
   d7dc2:	bd10      	pop	{r4, pc}
    for (i = 0; i < RH_ROUTING_TABLE_SIZE; i++)
   d7dc4:	3301      	adds	r3, #1
   d7dc6:	2b0a      	cmp	r3, #10
   d7dc8:	f102 0203 	add.w	r2, r2, #3
   d7dcc:	d1ed      	bne.n	d7daa <_ZN8RHRouter10getRouteToEh+0x6>
    return NULL;
   d7dce:	2000      	movs	r0, #0
   d7dd0:	e7f7      	b.n	d7dc2 <_ZN8RHRouter10getRouteToEh+0x1e>

000d7dd2 <_ZN8RHRouter5routeEPNS_13RoutedMessageEh>:
{
   d7dd2:	b537      	push	{r0, r1, r2, r4, r5, lr}
    if (message->header.dest != RH_BROADCAST_ADDRESS)
   d7dd4:	780b      	ldrb	r3, [r1, #0]
   d7dd6:	2bff      	cmp	r3, #255	; 0xff
{
   d7dd8:	4605      	mov	r5, r0
   d7dda:	460c      	mov	r4, r1
    if (message->header.dest != RH_BROADCAST_ADDRESS)
   d7ddc:	d006      	beq.n	d7dec <_ZN8RHRouter5routeEPNS_13RoutedMessageEh+0x1a>
	RoutingTableEntry* route = getRouteTo(message->header.dest);
   d7dde:	4619      	mov	r1, r3
   d7de0:	9201      	str	r2, [sp, #4]
   d7de2:	f7ff ffdf 	bl	d7da4 <_ZN8RHRouter10getRouteToEh>
	if (!route)
   d7de6:	b158      	cbz	r0, d7e00 <_ZN8RHRouter5routeEPNS_13RoutedMessageEh+0x2e>
	next_hop = route->next_hop;
   d7de8:	7843      	ldrb	r3, [r0, #1]
   d7dea:	9a01      	ldr	r2, [sp, #4]
    if (!RHReliableDatagram::sendtoWait((uint8_t*)message, messageLen, next_hop))
   d7dec:	4621      	mov	r1, r4
   d7dee:	1d28      	adds	r0, r5, #4
   d7df0:	f7ff fefa 	bl	d7be8 <_ZN18RHReliableDatagram10sendtoWaitEPhhh>
	return RH_ROUTER_ERROR_UNABLE_TO_DELIVER;
   d7df4:	2800      	cmp	r0, #0
   d7df6:	bf14      	ite	ne
   d7df8:	2000      	movne	r0, #0
   d7dfa:	2005      	moveq	r0, #5
}
   d7dfc:	b003      	add	sp, #12
   d7dfe:	bd30      	pop	{r4, r5, pc}
	    return RH_ROUTER_ERROR_NO_ROUTE;
   d7e00:	2002      	movs	r0, #2
   d7e02:	e7fb      	b.n	d7dfc <_ZN8RHRouter5routeEPNS_13RoutedMessageEh+0x2a>

000d7e04 <_ZN8RHRouter11deleteRouteEh>:
{
   d7e04:	b510      	push	{r4, lr}
   d7e06:	eb01 0341 	add.w	r3, r1, r1, lsl #1
   d7e0a:	4604      	mov	r4, r0
	   sizeof(RoutingTableEntry) * (RH_ROUTING_TABLE_SIZE - index - 1));
   d7e0c:	f1c1 0209 	rsb	r2, r1, #9
    memcpy(&_routes[index], &_routes[index+1], 
   d7e10:	f503 708c 	add.w	r0, r3, #280	; 0x118
   d7e14:	f203 111b 	addw	r1, r3, #283	; 0x11b
   d7e18:	eb02 0242 	add.w	r2, r2, r2, lsl #1
   d7e1c:	4421      	add	r1, r4
   d7e1e:	4420      	add	r0, r4
   d7e20:	f004 fd38 	bl	dc894 <memcpy>
    _routes[RH_ROUTING_TABLE_SIZE - 1].state = Invalid;
   d7e24:	2300      	movs	r3, #0
   d7e26:	f884 3135 	strb.w	r3, [r4, #309]	; 0x135
}
   d7e2a:	bd10      	pop	{r4, pc}

000d7e2c <_ZN8RHRouter13deleteRouteToEh>:
{
   d7e2c:	b538      	push	{r3, r4, r5, lr}
   d7e2e:	460a      	mov	r2, r1
   d7e30:	2300      	movs	r3, #0
	if (_routes[i].dest == dest)
   d7e32:	f500 748c 	add.w	r4, r0, #280	; 0x118
   d7e36:	eb03 0543 	add.w	r5, r3, r3, lsl #1
   d7e3a:	b2d9      	uxtb	r1, r3
   d7e3c:	5d65      	ldrb	r5, [r4, r5]
   d7e3e:	4295      	cmp	r5, r2
   d7e40:	d103      	bne.n	d7e4a <_ZN8RHRouter13deleteRouteToEh+0x1e>
	    deleteRoute(i);
   d7e42:	f7ff ffdf 	bl	d7e04 <_ZN8RHRouter11deleteRouteEh>
	    return true;
   d7e46:	2001      	movs	r0, #1
}
   d7e48:	bd38      	pop	{r3, r4, r5, pc}
    for (i = 0; i < RH_ROUTING_TABLE_SIZE; i++)
   d7e4a:	3301      	adds	r3, #1
   d7e4c:	2b0a      	cmp	r3, #10
   d7e4e:	d1f2      	bne.n	d7e36 <_ZN8RHRouter13deleteRouteToEh+0xa>
    return false;
   d7e50:	2000      	movs	r0, #0
   d7e52:	e7f9      	b.n	d7e48 <_ZN8RHRouter13deleteRouteToEh+0x1c>

000d7e54 <_ZN8RHRouter17retireOldestRouteEv>:
    deleteRoute(0);
   d7e54:	2100      	movs	r1, #0
   d7e56:	f7ff bfd5 	b.w	d7e04 <_ZN8RHRouter11deleteRouteEh>

000d7e5a <_ZN8RHRouter10addRouteToEhhh>:
{
   d7e5a:	b5f8      	push	{r3, r4, r5, r6, r7, lr}
   d7e5c:	4616      	mov	r6, r2
   d7e5e:	461f      	mov	r7, r3
   d7e60:	4604      	mov	r4, r0
   d7e62:	460d      	mov	r5, r1
   d7e64:	2300      	movs	r3, #0
	if (_routes[i].dest == dest)
   d7e66:	f500 728c 	add.w	r2, r0, #280	; 0x118
   d7e6a:	eb03 0043 	add.w	r0, r3, r3, lsl #1
   d7e6e:	5c11      	ldrb	r1, [r2, r0]
   d7e70:	42a9      	cmp	r1, r5
   d7e72:	d105      	bne.n	d7e80 <_ZN8RHRouter10addRouteToEhhh+0x26>
	    _routes[i].next_hop = next_hop;
   d7e74:	4420      	add	r0, r4
	    _routes[i].next_hop = next_hop;
   d7e76:	f880 6119 	strb.w	r6, [r0, #281]	; 0x119
	    _routes[i].state = state;
   d7e7a:	f880 711a 	strb.w	r7, [r0, #282]	; 0x11a
}
   d7e7e:	bdf8      	pop	{r3, r4, r5, r6, r7, pc}
    for (i = 0; i < RH_ROUTING_TABLE_SIZE; i++)
   d7e80:	3301      	adds	r3, #1
   d7e82:	2b0a      	cmp	r3, #10
   d7e84:	d1f1      	bne.n	d7e6a <_ZN8RHRouter10addRouteToEhhh+0x10>
   d7e86:	2300      	movs	r3, #0
	if (_routes[i].state == Invalid)
   d7e88:	f504 728d 	add.w	r2, r4, #282	; 0x11a
   d7e8c:	eb03 0043 	add.w	r0, r3, r3, lsl #1
   d7e90:	5c11      	ldrb	r1, [r2, r0]
   d7e92:	b919      	cbnz	r1, d7e9c <_ZN8RHRouter10addRouteToEhhh+0x42>
	    _routes[i].dest = dest;
   d7e94:	4420      	add	r0, r4
   d7e96:	f880 5118 	strb.w	r5, [r0, #280]	; 0x118
   d7e9a:	e7ec      	b.n	d7e76 <_ZN8RHRouter10addRouteToEhhh+0x1c>
    for (i = 0; i < RH_ROUTING_TABLE_SIZE; i++)
   d7e9c:	3301      	adds	r3, #1
   d7e9e:	2b0a      	cmp	r3, #10
   d7ea0:	d1f4      	bne.n	d7e8c <_ZN8RHRouter10addRouteToEhhh+0x32>
    retireOldestRoute();
   d7ea2:	4620      	mov	r0, r4
   d7ea4:	f7ff ffd6 	bl	d7e54 <_ZN8RHRouter17retireOldestRouteEv>
    for (i = 0; i < RH_ROUTING_TABLE_SIZE; i++)
   d7ea8:	4620      	mov	r0, r4
   d7eaa:	f104 031e 	add.w	r3, r4, #30
	if (_routes[i].state == Invalid)
   d7eae:	f890 211a 	ldrb.w	r2, [r0, #282]	; 0x11a
   d7eb2:	b92a      	cbnz	r2, d7ec0 <_ZN8RHRouter10addRouteToEhhh+0x66>
	    _routes[i].dest = dest;
   d7eb4:	f880 5118 	strb.w	r5, [r0, #280]	; 0x118
	    _routes[i].next_hop = next_hop;
   d7eb8:	f880 6119 	strb.w	r6, [r0, #281]	; 0x119
	    _routes[i].state = state;
   d7ebc:	f880 711a 	strb.w	r7, [r0, #282]	; 0x11a
    for (i = 0; i < RH_ROUTING_TABLE_SIZE; i++)
   d7ec0:	3003      	adds	r0, #3
   d7ec2:	4298      	cmp	r0, r3
   d7ec4:	d1f3      	bne.n	d7eae <_ZN8RHRouter10addRouteToEhhh+0x54>
   d7ec6:	e7da      	b.n	d7e7e <_ZN8RHRouter10addRouteToEhhh+0x24>

000d7ec8 <_ZN8RHRouter17clearRoutingTableEv>:
    for (i = 0; i < RH_ROUTING_TABLE_SIZE; i++)
   d7ec8:	f100 031e 	add.w	r3, r0, #30
	_routes[i].state = Invalid;
   d7ecc:	2200      	movs	r2, #0
   d7ece:	f880 211a 	strb.w	r2, [r0, #282]	; 0x11a
    for (i = 0; i < RH_ROUTING_TABLE_SIZE; i++)
   d7ed2:	3003      	adds	r0, #3
   d7ed4:	4298      	cmp	r0, r3
   d7ed6:	d1fa      	bne.n	d7ece <_ZN8RHRouter17clearRoutingTableEv+0x6>
}
   d7ed8:	4770      	bx	lr
	...

000d7edc <_ZN8RHRouterC1ER15RHGenericDriverh>:
RHRouter::RHRouter(RHGenericDriver& driver, uint8_t thisAddress) 
   d7edc:	b510      	push	{r4, lr}
   d7ede:	4604      	mov	r4, r0
    : RHReliableDatagram(driver, thisAddress)
   d7ee0:	3004      	adds	r0, #4
   d7ee2:	f7ff fe55 	bl	d7b90 <_ZN18RHReliableDatagramC1ER15RHGenericDriverh>
   d7ee6:	4b05      	ldr	r3, [pc, #20]	; (d7efc <_ZN8RHRouterC1ER15RHGenericDriverh+0x20>)
   d7ee8:	6023      	str	r3, [r4, #0]
    _max_hops = RH_DEFAULT_MAX_HOPS;
   d7eea:	f44f 738f 	mov.w	r3, #286	; 0x11e
    clearRoutingTable();
   d7eee:	4620      	mov	r0, r4
    _max_hops = RH_DEFAULT_MAX_HOPS;
   d7ef0:	f8a4 3116 	strh.w	r3, [r4, #278]	; 0x116
    clearRoutingTable();
   d7ef4:	f7ff ffe8 	bl	d7ec8 <_ZN8RHRouter17clearRoutingTableEv>
}
   d7ef8:	4620      	mov	r0, r4
   d7efa:	bd10      	pop	{r4, pc}
   d7efc:	000dd6a0 	.word	0x000dd6a0

000d7f00 <_ZN8RHRouter20sendtoFromSourceWaitEPhhhhh>:
{
   d7f00:	e92d 47f3 	stmdb	sp!, {r0, r1, r4, r5, r6, r7, r8, r9, sl, lr}
   d7f04:	4604      	mov	r4, r0
    if (((uint16_t)len + sizeof(RoutedMessageHeader)) > _driver.maxMessageLength())
   d7f06:	6840      	ldr	r0, [r0, #4]
{
   d7f08:	9101      	str	r1, [sp, #4]
   d7f0a:	461f      	mov	r7, r3
    if (((uint16_t)len + sizeof(RoutedMessageHeader)) > _driver.maxMessageLength())
   d7f0c:	6803      	ldr	r3, [r0, #0]
{
   d7f0e:	f89d a028 	ldrb.w	sl, [sp, #40]	; 0x28
    if (((uint16_t)len + sizeof(RoutedMessageHeader)) > _driver.maxMessageLength())
   d7f12:	699b      	ldr	r3, [r3, #24]
{
   d7f14:	f89d 902c 	ldrb.w	r9, [sp, #44]	; 0x2c
   d7f18:	4616      	mov	r6, r2
    if (((uint16_t)len + sizeof(RoutedMessageHeader)) > _driver.maxMessageLength())
   d7f1a:	4798      	blx	r3
   d7f1c:	f106 0805 	add.w	r8, r6, #5
   d7f20:	4580      	cmp	r8, r0
   d7f22:	d81c      	bhi.n	d7f5e <_ZN8RHRouter20sendtoFromSourceWaitEPhhhhh+0x5e>
    _tmpMessage.header.source = source;
   d7f24:	4d10      	ldr	r5, [pc, #64]	; (d7f68 <_ZN8RHRouter20sendtoFromSourceWaitEPhhhhh+0x68>)
    memcpy(_tmpMessage.data, buf, len);
   d7f26:	9901      	ldr	r1, [sp, #4]
    _tmpMessage.header.source = source;
   d7f28:	f885 a001 	strb.w	sl, [r5, #1]
    _tmpMessage.header.hops = 0;
   d7f2c:	2300      	movs	r3, #0
   d7f2e:	70ab      	strb	r3, [r5, #2]
    _tmpMessage.header.id = _lastE2ESequenceNumber++;
   d7f30:	f894 3115 	ldrb.w	r3, [r4, #277]	; 0x115
   d7f34:	70eb      	strb	r3, [r5, #3]
   d7f36:	1c5a      	adds	r2, r3, #1
   d7f38:	f884 2115 	strb.w	r2, [r4, #277]	; 0x115
    memcpy(_tmpMessage.data, buf, len);
   d7f3c:	1d68      	adds	r0, r5, #5
   d7f3e:	4632      	mov	r2, r6
    _tmpMessage.header.dest = dest;
   d7f40:	702f      	strb	r7, [r5, #0]
    _tmpMessage.header.flags = flags;
   d7f42:	f885 9004 	strb.w	r9, [r5, #4]
    memcpy(_tmpMessage.data, buf, len);
   d7f46:	f004 fca5 	bl	dc894 <memcpy>
    return route(&_tmpMessage, sizeof(RoutedMessageHeader)+len);
   d7f4a:	6823      	ldr	r3, [r4, #0]
   d7f4c:	685b      	ldr	r3, [r3, #4]
   d7f4e:	fa5f f288 	uxtb.w	r2, r8
   d7f52:	4629      	mov	r1, r5
   d7f54:	4620      	mov	r0, r4
}
   d7f56:	b002      	add	sp, #8
   d7f58:	e8bd 47f0 	ldmia.w	sp!, {r4, r5, r6, r7, r8, r9, sl, lr}
    return route(&_tmpMessage, sizeof(RoutedMessageHeader)+len);
   d7f5c:	4718      	bx	r3
}
   d7f5e:	2001      	movs	r0, #1
   d7f60:	b002      	add	sp, #8
   d7f62:	e8bd 87f0 	ldmia.w	sp!, {r4, r5, r6, r7, r8, r9, sl, pc}
   d7f66:	bf00      	nop
   d7f68:	2003e41a 	.word	0x2003e41a

000d7f6c <_ZN8RHRouter10sendtoWaitEPhhhh>:
{
   d7f6c:	b513      	push	{r0, r1, r4, lr}
    return sendtoFromSourceWait(buf, len, dest, _thisAddress, flags);
   d7f6e:	f89d 4010 	ldrb.w	r4, [sp, #16]
   d7f72:	9401      	str	r4, [sp, #4]
   d7f74:	7a04      	ldrb	r4, [r0, #8]
   d7f76:	9400      	str	r4, [sp, #0]
   d7f78:	f7ff ffc2 	bl	d7f00 <_ZN8RHRouter20sendtoFromSourceWaitEPhhhhh>
}
   d7f7c:	b002      	add	sp, #8
   d7f7e:	bd10      	pop	{r4, pc}

000d7f80 <_ZN8RHRouter11recvfromAckEPhS0_S0_S0_S0_S0_S0_>:

////////////////////////////////////////////////////////////////////
bool RHRouter::recvfromAck(uint8_t* buf, uint8_t* len, uint8_t* source, uint8_t* dest, uint8_t* id, uint8_t* flags, uint8_t* hops)
{  
   d7f80:	e92d 4ff0 	stmdb	sp!, {r4, r5, r6, r7, r8, r9, sl, fp, lr}
   d7f84:	b087      	sub	sp, #28
   d7f86:	461f      	mov	r7, r3
    uint8_t tmpMessageLen = sizeof(_tmpMessage);
   d7f88:	23ff      	movs	r3, #255	; 0xff
   d7f8a:	f88d 3013 	strb.w	r3, [sp, #19]
    uint8_t _from;
    uint8_t _to;
    uint8_t _id;
    uint8_t _flags;
    if (RHReliableDatagram::recvfromAck((uint8_t*)&_tmpMessage, &tmpMessageLen, &_from, &_to, &_id, &_flags))
   d7f8e:	f10d 0317 	add.w	r3, sp, #23
   d7f92:	9302      	str	r3, [sp, #8]
   d7f94:	f8df 90d0 	ldr.w	r9, [pc, #208]	; d8068 <_ZN8RHRouter11recvfromAckEPhS0_S0_S0_S0_S0_S0_+0xe8>
   d7f98:	f10d 0316 	add.w	r3, sp, #22
   d7f9c:	9301      	str	r3, [sp, #4]
   d7f9e:	f10d 0315 	add.w	r3, sp, #21
   d7fa2:	9300      	str	r3, [sp, #0]
{  
   d7fa4:	4604      	mov	r4, r0
   d7fa6:	4688      	mov	r8, r1
   d7fa8:	4616      	mov	r6, r2
    if (RHReliableDatagram::recvfromAck((uint8_t*)&_tmpMessage, &tmpMessageLen, &_from, &_to, &_id, &_flags))
   d7faa:	ab05      	add	r3, sp, #20
   d7fac:	f10d 0213 	add.w	r2, sp, #19
   d7fb0:	4649      	mov	r1, r9
   d7fb2:	3004      	adds	r0, #4
{  
   d7fb4:	e9dd ba10 	ldrd	fp, sl, [sp, #64]	; 0x40
    if (RHReliableDatagram::recvfromAck((uint8_t*)&_tmpMessage, &tmpMessageLen, &_from, &_to, &_id, &_flags))
   d7fb8:	f7ff fe99 	bl	d7cee <_ZN18RHReliableDatagram11recvfromAckEPhS0_S0_S0_S0_S0_>
   d7fbc:	4605      	mov	r5, r0
   d7fbe:	b908      	cbnz	r0, d7fc4 <_ZN8RHRouter11recvfromAckEPhS0_S0_S0_S0_S0_S0_+0x44>
	    if (_isa_router)
	        route(&_tmpMessage, tmpMessageLen);
	}
	// Discard it and maybe wait for another
    }
    return false;
   d7fc0:	2500      	movs	r5, #0
   d7fc2:	e038      	b.n	d8036 <_ZN8RHRouter11recvfromAckEPhS0_S0_S0_S0_S0_S0_+0xb6>
	peekAtMessage(&_tmpMessage, tmpMessageLen);
   d7fc4:	6823      	ldr	r3, [r4, #0]
   d7fc6:	f89d 2013 	ldrb.w	r2, [sp, #19]
   d7fca:	681b      	ldr	r3, [r3, #0]
   d7fcc:	4649      	mov	r1, r9
   d7fce:	4620      	mov	r0, r4
   d7fd0:	4798      	blx	r3
	if (_tmpMessage.header.dest == _thisAddress || _tmpMessage.header.dest == RH_BROADCAST_ADDRESS)
   d7fd2:	f899 3000 	ldrb.w	r3, [r9]
   d7fd6:	7a22      	ldrb	r2, [r4, #8]
   d7fd8:	429a      	cmp	r2, r3
   d7fda:	d001      	beq.n	d7fe0 <_ZN8RHRouter11recvfromAckEPhS0_S0_S0_S0_S0_S0_+0x60>
   d7fdc:	2bff      	cmp	r3, #255	; 0xff
   d7fde:	d12e      	bne.n	d803e <_ZN8RHRouter11recvfromAckEPhS0_S0_S0_S0_S0_S0_+0xbe>
	    if (source) *source  = _tmpMessage.header.source;
   d7fe0:	b117      	cbz	r7, d7fe8 <_ZN8RHRouter11recvfromAckEPhS0_S0_S0_S0_S0_S0_+0x68>
   d7fe2:	4b21      	ldr	r3, [pc, #132]	; (d8068 <_ZN8RHRouter11recvfromAckEPhS0_S0_S0_S0_S0_S0_+0xe8>)
   d7fe4:	785b      	ldrb	r3, [r3, #1]
   d7fe6:	703b      	strb	r3, [r7, #0]
	    if (dest)   *dest    = _tmpMessage.header.dest;
   d7fe8:	f1bb 0f00 	cmp.w	fp, #0
   d7fec:	d003      	beq.n	d7ff6 <_ZN8RHRouter11recvfromAckEPhS0_S0_S0_S0_S0_S0_+0x76>
   d7fee:	4b1e      	ldr	r3, [pc, #120]	; (d8068 <_ZN8RHRouter11recvfromAckEPhS0_S0_S0_S0_S0_S0_+0xe8>)
   d7ff0:	781b      	ldrb	r3, [r3, #0]
   d7ff2:	f88b 3000 	strb.w	r3, [fp]
	    if (id)     *id      = _tmpMessage.header.id;
   d7ff6:	f1ba 0f00 	cmp.w	sl, #0
   d7ffa:	d003      	beq.n	d8004 <_ZN8RHRouter11recvfromAckEPhS0_S0_S0_S0_S0_S0_+0x84>
   d7ffc:	4b1a      	ldr	r3, [pc, #104]	; (d8068 <_ZN8RHRouter11recvfromAckEPhS0_S0_S0_S0_S0_S0_+0xe8>)
   d7ffe:	78db      	ldrb	r3, [r3, #3]
   d8000:	f88a 3000 	strb.w	r3, [sl]
	    if (flags)  *flags   = _tmpMessage.header.flags;
   d8004:	9b12      	ldr	r3, [sp, #72]	; 0x48
   d8006:	b11b      	cbz	r3, d8010 <_ZN8RHRouter11recvfromAckEPhS0_S0_S0_S0_S0_S0_+0x90>
   d8008:	4b17      	ldr	r3, [pc, #92]	; (d8068 <_ZN8RHRouter11recvfromAckEPhS0_S0_S0_S0_S0_S0_+0xe8>)
   d800a:	9a12      	ldr	r2, [sp, #72]	; 0x48
   d800c:	791b      	ldrb	r3, [r3, #4]
   d800e:	7013      	strb	r3, [r2, #0]
	    if (hops)   *hops    = _tmpMessage.header.hops;
   d8010:	9b13      	ldr	r3, [sp, #76]	; 0x4c
   d8012:	b11b      	cbz	r3, d801c <_ZN8RHRouter11recvfromAckEPhS0_S0_S0_S0_S0_S0_+0x9c>
   d8014:	4b14      	ldr	r3, [pc, #80]	; (d8068 <_ZN8RHRouter11recvfromAckEPhS0_S0_S0_S0_S0_S0_+0xe8>)
   d8016:	9a13      	ldr	r2, [sp, #76]	; 0x4c
   d8018:	789b      	ldrb	r3, [r3, #2]
   d801a:	7013      	strb	r3, [r2, #0]
	    uint8_t msgLen = tmpMessageLen - sizeof(RoutedMessageHeader);
   d801c:	f89d 3013 	ldrb.w	r3, [sp, #19]
	    if (*len > msgLen)
   d8020:	7832      	ldrb	r2, [r6, #0]
	    memcpy(buf, _tmpMessage.data, *len);
   d8022:	4912      	ldr	r1, [pc, #72]	; (d806c <_ZN8RHRouter11recvfromAckEPhS0_S0_S0_S0_S0_S0_+0xec>)
	    uint8_t msgLen = tmpMessageLen - sizeof(RoutedMessageHeader);
   d8024:	3b05      	subs	r3, #5
   d8026:	b2db      	uxtb	r3, r3
	    if (*len > msgLen)
   d8028:	429a      	cmp	r2, r3
		*len = msgLen;
   d802a:	bf88      	it	hi
   d802c:	7033      	strbhi	r3, [r6, #0]
	    memcpy(buf, _tmpMessage.data, *len);
   d802e:	7832      	ldrb	r2, [r6, #0]
   d8030:	4640      	mov	r0, r8
   d8032:	f004 fc2f 	bl	dc894 <memcpy>
}
   d8036:	4628      	mov	r0, r5
   d8038:	b007      	add	sp, #28
   d803a:	e8bd 8ff0 	ldmia.w	sp!, {r4, r5, r6, r7, r8, r9, sl, fp, pc}
		 && _tmpMessage.header.hops++ < _max_hops)
   d803e:	f899 3002 	ldrb.w	r3, [r9, #2]
   d8042:	1c5a      	adds	r2, r3, #1
   d8044:	f889 2002 	strb.w	r2, [r9, #2]
   d8048:	f894 2116 	ldrb.w	r2, [r4, #278]	; 0x116
   d804c:	429a      	cmp	r2, r3
   d804e:	d9b7      	bls.n	d7fc0 <_ZN8RHRouter11recvfromAckEPhS0_S0_S0_S0_S0_S0_+0x40>
	    if (_isa_router)
   d8050:	f894 3117 	ldrb.w	r3, [r4, #279]	; 0x117
   d8054:	2b00      	cmp	r3, #0
   d8056:	d0b3      	beq.n	d7fc0 <_ZN8RHRouter11recvfromAckEPhS0_S0_S0_S0_S0_S0_+0x40>
	        route(&_tmpMessage, tmpMessageLen);
   d8058:	6823      	ldr	r3, [r4, #0]
   d805a:	f89d 2013 	ldrb.w	r2, [sp, #19]
   d805e:	685b      	ldr	r3, [r3, #4]
   d8060:	4649      	mov	r1, r9
   d8062:	4620      	mov	r0, r4
   d8064:	4798      	blx	r3
   d8066:	e7ab      	b.n	d7fc0 <_ZN8RHRouter11recvfromAckEPhS0_S0_S0_S0_S0_S0_+0x40>
   d8068:	2003e41a 	.word	0x2003e41a
   d806c:	2003e41f 	.word	0x2003e41f

000d8070 <_ZN11RHSPIDriver4initEv>:
    _slaveSelectPin(slaveSelectPin)
{
}

bool RHSPIDriver::init()
{
   d8070:	b510      	push	{r4, lr}
   d8072:	4604      	mov	r4, r0
    // start the SPI library with the default speeds etc:
    // On Arduino Due this defaults to SPI1 on the central group of 6 SPI pins
    _spi.begin();
   d8074:	6a00      	ldr	r0, [r0, #32]
   d8076:	6803      	ldr	r3, [r0, #0]
   d8078:	68db      	ldr	r3, [r3, #12]
   d807a:	4798      	blx	r3

    // Initialise the slave select pin
    // On Maple, this must be _after_ spi.begin

    // Sometimes we dont want to work the _slaveSelectPin here
    if (_slaveSelectPin != 0xff)
   d807c:	f894 0024 	ldrb.w	r0, [r4, #36]	; 0x24
   d8080:	28ff      	cmp	r0, #255	; 0xff
   d8082:	d002      	beq.n	d808a <_ZN11RHSPIDriver4initEv+0x1a>
	pinMode(_slaveSelectPin, OUTPUT);
   d8084:	2101      	movs	r1, #1
   d8086:	f003 feab 	bl	dbde0 <pinMode>

    deselectSlave();
   d808a:	6823      	ldr	r3, [r4, #0]
   d808c:	4620      	mov	r0, r4
   d808e:	6fdb      	ldr	r3, [r3, #124]	; 0x7c
   d8090:	4798      	blx	r3
    // 100ms is too long for STM32L0, and somehow can cause the USB interface to fail
    // in some versions of the core.
#if (RH_PLATFORM == RH_PLATFORM_STM32L0) && (defined STM32L082xx || defined STM32L072xx)
    delay(10);
#else
    delay(100);
   d8092:	2064      	movs	r0, #100	; 0x64
   d8094:	f000 ff54 	bl	d8f40 <delay>
#endif
    
    return true;
}
   d8098:	2001      	movs	r0, #1
   d809a:	bd10      	pop	{r4, pc}

000d809c <_ZN11RHSPIDriver11selectSlaveEv>:
    _spi.usingInterrupt(interruptNumber);
}

void RHSPIDriver::selectSlave()
{
    digitalWrite(_slaveSelectPin, LOW);
   d809c:	f890 0024 	ldrb.w	r0, [r0, #36]	; 0x24
   d80a0:	2100      	movs	r1, #0
   d80a2:	f003 beae 	b.w	dbe02 <digitalWrite>

000d80a6 <_ZN11RHSPIDriver13deselectSlaveEv>:
}
    
void RHSPIDriver::deselectSlave()
{
    digitalWrite(_slaveSelectPin, HIGH);
   d80a6:	f890 0024 	ldrb.w	r0, [r0, #36]	; 0x24
   d80aa:	2101      	movs	r1, #1
   d80ac:	f003 bea9 	b.w	dbe02 <digitalWrite>

000d80b0 <_ZN11RHSPIDriverC1EhR12RHGenericSPI>:
RHSPIDriver::RHSPIDriver(uint8_t slaveSelectPin, RHGenericSPI& spi)
   d80b0:	b570      	push	{r4, r5, r6, lr}
   d80b2:	4604      	mov	r4, r0
   d80b4:	460d      	mov	r5, r1
   d80b6:	4616      	mov	r6, r2
    _slaveSelectPin(slaveSelectPin)
   d80b8:	f7ff fa4e 	bl	d7558 <_ZN15RHGenericDriverC1Ev>
   d80bc:	4b03      	ldr	r3, [pc, #12]	; (d80cc <_ZN11RHSPIDriverC1EhR12RHGenericSPI+0x1c>)
   d80be:	6023      	str	r3, [r4, #0]
   d80c0:	6226      	str	r6, [r4, #32]
   d80c2:	f884 5024 	strb.w	r5, [r4, #36]	; 0x24
}
   d80c6:	4620      	mov	r0, r4
   d80c8:	bd70      	pop	{r4, r5, r6, pc}
   d80ca:	bf00      	nop
   d80cc:	000dd6b0 	.word	0x000dd6b0

000d80d0 <_ZN11RHSPIDriver7spiReadEh>:
{
   d80d0:	b538      	push	{r3, r4, r5, lr}
   d80d2:	4604      	mov	r4, r0
    _spi.beginTransaction();
   d80d4:	6a00      	ldr	r0, [r0, #32]
   d80d6:	6803      	ldr	r3, [r0, #0]
   d80d8:	6a1b      	ldr	r3, [r3, #32]
{
   d80da:	460d      	mov	r5, r1
    _spi.beginTransaction();
   d80dc:	4798      	blx	r3
    selectSlave();
   d80de:	6823      	ldr	r3, [r4, #0]
   d80e0:	4620      	mov	r0, r4
   d80e2:	6f9b      	ldr	r3, [r3, #120]	; 0x78
   d80e4:	4798      	blx	r3
    _spi.transfer(reg & ~RH_SPI_WRITE_MASK); // Send the address with the write mask off
   d80e6:	6a20      	ldr	r0, [r4, #32]
   d80e8:	6803      	ldr	r3, [r0, #0]
   d80ea:	f005 017f 	and.w	r1, r5, #127	; 0x7f
   d80ee:	681b      	ldr	r3, [r3, #0]
   d80f0:	4798      	blx	r3
    val = _spi.transfer(0); // The written value is ignored, reg value is read
   d80f2:	6a20      	ldr	r0, [r4, #32]
   d80f4:	6803      	ldr	r3, [r0, #0]
   d80f6:	2100      	movs	r1, #0
   d80f8:	681b      	ldr	r3, [r3, #0]
   d80fa:	4798      	blx	r3
    deselectSlave();
   d80fc:	6823      	ldr	r3, [r4, #0]
    val = _spi.transfer(0); // The written value is ignored, reg value is read
   d80fe:	4605      	mov	r5, r0
    deselectSlave();
   d8100:	6fdb      	ldr	r3, [r3, #124]	; 0x7c
   d8102:	4620      	mov	r0, r4
   d8104:	4798      	blx	r3
    _spi.endTransaction();
   d8106:	6a20      	ldr	r0, [r4, #32]
   d8108:	6803      	ldr	r3, [r0, #0]
   d810a:	6a5b      	ldr	r3, [r3, #36]	; 0x24
   d810c:	4798      	blx	r3
}
   d810e:	4628      	mov	r0, r5
   d8110:	bd38      	pop	{r3, r4, r5, pc}

000d8112 <_ZN11RHSPIDriver8spiWriteEhh>:
{
   d8112:	b570      	push	{r4, r5, r6, lr}
   d8114:	4604      	mov	r4, r0
    _spi.beginTransaction();
   d8116:	6a00      	ldr	r0, [r0, #32]
   d8118:	6803      	ldr	r3, [r0, #0]
   d811a:	6a1b      	ldr	r3, [r3, #32]
{
   d811c:	4616      	mov	r6, r2
   d811e:	460d      	mov	r5, r1
    _spi.beginTransaction();
   d8120:	4798      	blx	r3
    selectSlave();
   d8122:	6823      	ldr	r3, [r4, #0]
   d8124:	4620      	mov	r0, r4
   d8126:	6f9b      	ldr	r3, [r3, #120]	; 0x78
   d8128:	4798      	blx	r3
    status = _spi.transfer(reg | RH_SPI_WRITE_MASK); // Send the address with the write mask on
   d812a:	6a20      	ldr	r0, [r4, #32]
   d812c:	6803      	ldr	r3, [r0, #0]
   d812e:	f045 0180 	orr.w	r1, r5, #128	; 0x80
   d8132:	681b      	ldr	r3, [r3, #0]
   d8134:	4798      	blx	r3
   d8136:	4605      	mov	r5, r0
    _spi.transfer(val); // New value follows
   d8138:	6a20      	ldr	r0, [r4, #32]
   d813a:	6803      	ldr	r3, [r0, #0]
   d813c:	4631      	mov	r1, r6
   d813e:	681b      	ldr	r3, [r3, #0]
   d8140:	4798      	blx	r3
inline unsigned long micros(void) { return HAL_Timer_Get_Micro_Seconds(); }
void delay(unsigned long ms);
inline void delayMicroseconds(unsigned int us) { HAL_Delay_Microseconds(us); }
   d8142:	2001      	movs	r0, #1
   d8144:	f000 fb9a 	bl	d887c <HAL_Delay_Microseconds>
    deselectSlave();
   d8148:	6823      	ldr	r3, [r4, #0]
   d814a:	4620      	mov	r0, r4
   d814c:	6fdb      	ldr	r3, [r3, #124]	; 0x7c
   d814e:	4798      	blx	r3
    _spi.endTransaction();
   d8150:	6a20      	ldr	r0, [r4, #32]
   d8152:	6803      	ldr	r3, [r0, #0]
   d8154:	6a5b      	ldr	r3, [r3, #36]	; 0x24
   d8156:	4798      	blx	r3
}
   d8158:	4628      	mov	r0, r5
   d815a:	bd70      	pop	{r4, r5, r6, pc}

000d815c <_ZN11RHSPIDriver12spiBurstReadEhPhh>:
{
   d815c:	b5f8      	push	{r3, r4, r5, r6, r7, lr}
   d815e:	4604      	mov	r4, r0
    _spi.beginTransaction();
   d8160:	6a00      	ldr	r0, [r0, #32]
{
   d8162:	461e      	mov	r6, r3
    _spi.beginTransaction();
   d8164:	6803      	ldr	r3, [r0, #0]
   d8166:	6a1b      	ldr	r3, [r3, #32]
{
   d8168:	460f      	mov	r7, r1
   d816a:	4615      	mov	r5, r2
    _spi.beginTransaction();
   d816c:	4798      	blx	r3
    selectSlave();
   d816e:	6823      	ldr	r3, [r4, #0]
   d8170:	4620      	mov	r0, r4
   d8172:	6f9b      	ldr	r3, [r3, #120]	; 0x78
   d8174:	4798      	blx	r3
    status = _spi.transfer(reg & ~RH_SPI_WRITE_MASK); // Send the start address with the write mask off
   d8176:	6a20      	ldr	r0, [r4, #32]
   d8178:	6803      	ldr	r3, [r0, #0]
   d817a:	f007 017f 	and.w	r1, r7, #127	; 0x7f
   d817e:	681b      	ldr	r3, [r3, #0]
   d8180:	4798      	blx	r3
   d8182:	442e      	add	r6, r5
   d8184:	4607      	mov	r7, r0
    while (len--)
   d8186:	42b5      	cmp	r5, r6
   d8188:	d007      	beq.n	d819a <_ZN11RHSPIDriver12spiBurstReadEhPhh+0x3e>
	*dest++ = _spi.transfer(0);
   d818a:	6a20      	ldr	r0, [r4, #32]
   d818c:	6803      	ldr	r3, [r0, #0]
   d818e:	2100      	movs	r1, #0
   d8190:	681b      	ldr	r3, [r3, #0]
   d8192:	4798      	blx	r3
   d8194:	f805 0b01 	strb.w	r0, [r5], #1
    while (len--)
   d8198:	e7f5      	b.n	d8186 <_ZN11RHSPIDriver12spiBurstReadEhPhh+0x2a>
    deselectSlave();
   d819a:	6823      	ldr	r3, [r4, #0]
   d819c:	4620      	mov	r0, r4
   d819e:	6fdb      	ldr	r3, [r3, #124]	; 0x7c
   d81a0:	4798      	blx	r3
    _spi.endTransaction();
   d81a2:	6a20      	ldr	r0, [r4, #32]
   d81a4:	6803      	ldr	r3, [r0, #0]
   d81a6:	6a5b      	ldr	r3, [r3, #36]	; 0x24
   d81a8:	4798      	blx	r3
}
   d81aa:	4638      	mov	r0, r7
   d81ac:	bdf8      	pop	{r3, r4, r5, r6, r7, pc}

000d81ae <_ZN11RHSPIDriver13spiBurstWriteEhPKhh>:
{
   d81ae:	b5f8      	push	{r3, r4, r5, r6, r7, lr}
   d81b0:	4604      	mov	r4, r0
    _spi.beginTransaction();
   d81b2:	6a00      	ldr	r0, [r0, #32]
{
   d81b4:	461e      	mov	r6, r3
    _spi.beginTransaction();
   d81b6:	6803      	ldr	r3, [r0, #0]
   d81b8:	6a1b      	ldr	r3, [r3, #32]
{
   d81ba:	460f      	mov	r7, r1
   d81bc:	4615      	mov	r5, r2
    _spi.beginTransaction();
   d81be:	4798      	blx	r3
    selectSlave();
   d81c0:	6823      	ldr	r3, [r4, #0]
   d81c2:	4620      	mov	r0, r4
   d81c4:	6f9b      	ldr	r3, [r3, #120]	; 0x78
   d81c6:	4798      	blx	r3
    status = _spi.transfer(reg | RH_SPI_WRITE_MASK); // Send the start address with the write mask on
   d81c8:	6a20      	ldr	r0, [r4, #32]
   d81ca:	6803      	ldr	r3, [r0, #0]
   d81cc:	f047 0180 	orr.w	r1, r7, #128	; 0x80
   d81d0:	681b      	ldr	r3, [r3, #0]
   d81d2:	4798      	blx	r3
   d81d4:	442e      	add	r6, r5
   d81d6:	4607      	mov	r7, r0
    while (len--)
   d81d8:	42b5      	cmp	r5, r6
   d81da:	d006      	beq.n	d81ea <_ZN11RHSPIDriver13spiBurstWriteEhPKhh+0x3c>
	_spi.transfer(*src++);
   d81dc:	6a20      	ldr	r0, [r4, #32]
   d81de:	f815 1b01 	ldrb.w	r1, [r5], #1
   d81e2:	6803      	ldr	r3, [r0, #0]
   d81e4:	681b      	ldr	r3, [r3, #0]
   d81e6:	4798      	blx	r3
    while (len--)
   d81e8:	e7f6      	b.n	d81d8 <_ZN11RHSPIDriver13spiBurstWriteEhPKhh+0x2a>
    deselectSlave();
   d81ea:	6823      	ldr	r3, [r4, #0]
   d81ec:	4620      	mov	r0, r4
   d81ee:	6fdb      	ldr	r3, [r3, #124]	; 0x7c
   d81f0:	4798      	blx	r3
    _spi.endTransaction();
   d81f2:	6a20      	ldr	r0, [r4, #32]
   d81f4:	6803      	ldr	r3, [r0, #0]
   d81f6:	6a5b      	ldr	r3, [r3, #36]	; 0x24
   d81f8:	4798      	blx	r3
}
   d81fa:	4638      	mov	r0, r7
   d81fc:	bdf8      	pop	{r3, r4, r5, r6, r7, pc}

000d81fe <_ZN11RHSPIDriver17spiUsingInterruptEh>:
    _spi.usingInterrupt(interruptNumber);
   d81fe:	6a00      	ldr	r0, [r0, #32]
   d8200:	6803      	ldr	r3, [r0, #0]
   d8202:	6a9b      	ldr	r3, [r3, #40]	; 0x28
   d8204:	4718      	bx	r3

000d8206 <_ZN7RH_RF9514modeWillChangeEN15RHGenericDriver6RHModeE>:

    /// Called by RH_RF95 when the radio mode is about to change to a new setting.
    /// Can be used by subclasses to implement antenna switching etc.
    /// \param[in] mode RHMode the new mode about to take effect
    /// \return true if the subclasses changes successful
    virtual bool modeWillChange(RHMode) {return true;}
   d8206:	2001      	movs	r0, #1
   d8208:	4770      	bx	lr

000d820a <_ZN7RH_RF9516maxMessageLengthEv>:
}

uint8_t RH_RF95::maxMessageLength()
{
    return RH_RF95_MAX_MESSAGE_LEN;
}
   d820a:	20fb      	movs	r0, #251	; 0xfb
   d820c:	4770      	bx	lr

000d820e <_ZN7RH_RF95D1Ev>:
class RH_RF95 : public RHSPIDriver
   d820e:	4770      	bx	lr

000d8210 <_ZN7RH_RF9515isChannelActiveEv>:
    spiWrite(RH_RF95_REG_20_PREAMBLE_MSB, bytes >> 8);
    spiWrite(RH_RF95_REG_21_PREAMBLE_LSB, bytes & 0xff);
}

bool RH_RF95::isChannelActive()
{
   d8210:	b510      	push	{r4, lr}
    // Set mode RHModeCad
    if (_mode != RHModeCad)
   d8212:	7903      	ldrb	r3, [r0, #4]
   d8214:	2b05      	cmp	r3, #5
{
   d8216:	4604      	mov	r4, r0
    if (_mode != RHModeCad)
   d8218:	d010      	beq.n	d823c <_ZN7RH_RF9515isChannelActiveEv+0x2c>
    {
	modeWillChange(RHModeCad);
   d821a:	6803      	ldr	r3, [r0, #0]
   d821c:	2105      	movs	r1, #5
   d821e:	f8d3 3080 	ldr.w	r3, [r3, #128]	; 0x80
   d8222:	4798      	blx	r3
        spiWrite(RH_RF95_REG_01_OP_MODE, RH_RF95_MODE_CAD);
   d8224:	2207      	movs	r2, #7
   d8226:	2101      	movs	r1, #1
   d8228:	4620      	mov	r0, r4
   d822a:	f7ff ff72 	bl	d8112 <_ZN11RHSPIDriver8spiWriteEhh>
        spiWrite(RH_RF95_REG_40_DIO_MAPPING1, 0x80); // Interrupt on CadDone
   d822e:	2280      	movs	r2, #128	; 0x80
   d8230:	2140      	movs	r1, #64	; 0x40
   d8232:	4620      	mov	r0, r4
   d8234:	f7ff ff6d 	bl	d8112 <_ZN11RHSPIDriver8spiWriteEhh>
        _mode = RHModeCad;
   d8238:	2305      	movs	r3, #5
   d823a:	7123      	strb	r3, [r4, #4]
    }

    while (_mode == RHModeCad)
   d823c:	7923      	ldrb	r3, [r4, #4]
   d823e:	2b05      	cmp	r3, #5
   d8240:	d0fc      	beq.n	d823c <_ZN7RH_RF9515isChannelActiveEv+0x2c>
        YIELD;

    return _cad;
   d8242:	7e20      	ldrb	r0, [r4, #24]
}
   d8244:	bd10      	pop	{r4, pc}

000d8246 <_ZN7RH_RF95D0Ev>:
   d8246:	b510      	push	{r4, lr}
   d8248:	f44f 7198 	mov.w	r1, #304	; 0x130
   d824c:	4604      	mov	r4, r0
   d824e:	f003 fe95 	bl	dbf7c <_ZdlPvj>
   d8252:	4620      	mov	r0, r4
   d8254:	bd10      	pop	{r4, pc}

000d8256 <_ZN7RH_RF955sleepEv>:
{
   d8256:	b510      	push	{r4, lr}
    if (_mode != RHModeSleep)
   d8258:	7903      	ldrb	r3, [r0, #4]
   d825a:	2b01      	cmp	r3, #1
{
   d825c:	4604      	mov	r4, r0
    if (_mode != RHModeSleep)
   d825e:	d00b      	beq.n	d8278 <_ZN7RH_RF955sleepEv+0x22>
	modeWillChange(RHModeSleep);
   d8260:	6803      	ldr	r3, [r0, #0]
   d8262:	2101      	movs	r1, #1
   d8264:	f8d3 3080 	ldr.w	r3, [r3, #128]	; 0x80
   d8268:	4798      	blx	r3
	spiWrite(RH_RF95_REG_01_OP_MODE, RH_RF95_MODE_SLEEP);
   d826a:	2200      	movs	r2, #0
   d826c:	2101      	movs	r1, #1
   d826e:	4620      	mov	r0, r4
   d8270:	f7ff ff4f 	bl	d8112 <_ZN11RHSPIDriver8spiWriteEhh>
	_mode = RHModeSleep;
   d8274:	2301      	movs	r3, #1
   d8276:	7123      	strb	r3, [r4, #4]
}
   d8278:	2001      	movs	r0, #1
   d827a:	bd10      	pop	{r4, pc}

000d827c <_ZN7RH_RF954recvEPhS0_>:
{
   d827c:	b5f8      	push	{r3, r4, r5, r6, r7, lr}
    if (!available())
   d827e:	6803      	ldr	r3, [r0, #0]
   d8280:	68db      	ldr	r3, [r3, #12]
{
   d8282:	4604      	mov	r4, r0
   d8284:	460f      	mov	r7, r1
   d8286:	4615      	mov	r5, r2
    if (!available())
   d8288:	4798      	blx	r3
   d828a:	4606      	mov	r6, r0
   d828c:	b1b0      	cbz	r0, d82bc <_ZN7RH_RF954recvEPhS0_+0x40>
    if (buf && len)
   d828e:	b187      	cbz	r7, d82b2 <_ZN7RH_RF954recvEPhS0_+0x36>
   d8290:	b17d      	cbz	r5, d82b2 <_ZN7RH_RF954recvEPhS0_+0x36>
	if (*len > _bufLen-RH_RF95_HEADER_LEN)
   d8292:	f894 3028 	ldrb.w	r3, [r4, #40]	; 0x28
   d8296:	782a      	ldrb	r2, [r5, #0]
   d8298:	3b03      	subs	r3, #3
   d829a:	4293      	cmp	r3, r2
	    *len = _bufLen-RH_RF95_HEADER_LEN;
   d829c:	bfde      	ittt	le
   d829e:	f894 3028 	ldrble.w	r3, [r4, #40]	; 0x28
   d82a2:	3b04      	suble	r3, #4
   d82a4:	702b      	strble	r3, [r5, #0]
	memcpy(buf, _buf+RH_RF95_HEADER_LEN, *len);
   d82a6:	782a      	ldrb	r2, [r5, #0]
   d82a8:	f104 012d 	add.w	r1, r4, #45	; 0x2d
   d82ac:	4638      	mov	r0, r7
   d82ae:	f004 faf1 	bl	dc894 <memcpy>
    _rxBufValid = false;
   d82b2:	2300      	movs	r3, #0
   d82b4:	f884 3128 	strb.w	r3, [r4, #296]	; 0x128
    _bufLen = 0;
   d82b8:	f884 3028 	strb.w	r3, [r4, #40]	; 0x28
}
   d82bc:	4630      	mov	r0, r6
   d82be:	bdf8      	pop	{r3, r4, r5, r6, r7, pc}

000d82c0 <_ZN7RH_RF95C1EhhR12RHGenericSPI>:
RH_RF95::RH_RF95(uint8_t slaveSelectPin, uint8_t interruptPin, RHGenericSPI& spi)
   d82c0:	b538      	push	{r3, r4, r5, lr}
   d82c2:	4604      	mov	r4, r0
   d82c4:	4615      	mov	r5, r2
    _rxBufValid(0)
   d82c6:	461a      	mov	r2, r3
   d82c8:	f7ff fef2 	bl	d80b0 <_ZN11RHSPIDriverC1EhR12RHGenericSPI>
   d82cc:	4b09      	ldr	r3, [pc, #36]	; (d82f4 <_ZN7RH_RF95C1EhhR12RHGenericSPI+0x34>)
   d82ce:	6023      	str	r3, [r4, #0]
    _myInterruptIndex = 0xff; // Not allocated yet
   d82d0:	22ff      	movs	r2, #255	; 0xff
    _rxBufValid(0)
   d82d2:	2300      	movs	r3, #0
    _myInterruptIndex = 0xff; // Not allocated yet
   d82d4:	f884 2027 	strb.w	r2, [r4, #39]	; 0x27
    _enableCRC = true;
   d82d8:	2201      	movs	r2, #1
    _rxBufValid(0)
   d82da:	f884 3128 	strb.w	r3, [r4, #296]	; 0x128
   d82de:	f884 312c 	strb.w	r3, [r4, #300]	; 0x12c
    _interruptPin = interruptPin;
   d82e2:	f884 5026 	strb.w	r5, [r4, #38]	; 0x26
    _enableCRC = true;
   d82e6:	f884 212b 	strb.w	r2, [r4, #299]	; 0x12b
    _useRFO = false;
   d82ea:	f884 3025 	strb.w	r3, [r4, #37]	; 0x25
}
   d82ee:	4620      	mov	r0, r4
   d82f0:	bd38      	pop	{r3, r4, r5, pc}
   d82f2:	bf00      	nop
   d82f4:	000dd748 	.word	0x000dd748

000d82f8 <_ZN7RH_RF9513validateRxBufEv>:
    if (_bufLen < 4)
   d82f8:	f890 3028 	ldrb.w	r3, [r0, #40]	; 0x28
   d82fc:	2b03      	cmp	r3, #3
   d82fe:	d91b      	bls.n	d8338 <_ZN7RH_RF9513validateRxBufEv+0x40>
    _rxHeaderTo    = _buf[0];
   d8300:	f890 3029 	ldrb.w	r3, [r0, #41]	; 0x29
   d8304:	71c3      	strb	r3, [r0, #7]
    _rxHeaderFrom  = _buf[1];
   d8306:	f890 302a 	ldrb.w	r3, [r0, #42]	; 0x2a
   d830a:	7203      	strb	r3, [r0, #8]
    _rxHeaderId    = _buf[2];
   d830c:	f890 302b 	ldrb.w	r3, [r0, #43]	; 0x2b
   d8310:	7243      	strb	r3, [r0, #9]
    _rxHeaderFlags = _buf[3];
   d8312:	f890 302c 	ldrb.w	r3, [r0, #44]	; 0x2c
   d8316:	7283      	strb	r3, [r0, #10]
	_rxHeaderTo == _thisAddress ||
   d8318:	7983      	ldrb	r3, [r0, #6]
   d831a:	b933      	cbnz	r3, d832a <_ZN7RH_RF9513validateRxBufEv+0x32>
   d831c:	79c3      	ldrb	r3, [r0, #7]
    if (_promiscuous ||
   d831e:	7942      	ldrb	r2, [r0, #5]
   d8320:	429a      	cmp	r2, r3
   d8322:	d002      	beq.n	d832a <_ZN7RH_RF9513validateRxBufEv+0x32>
	_rxHeaderTo == RH_BROADCAST_ADDRESS)
   d8324:	79c3      	ldrb	r3, [r0, #7]
	_rxHeaderTo == _thisAddress ||
   d8326:	2bff      	cmp	r3, #255	; 0xff
   d8328:	d106      	bne.n	d8338 <_ZN7RH_RF9513validateRxBufEv+0x40>
	_rxGood++;
   d832a:	8a83      	ldrh	r3, [r0, #20]
   d832c:	3301      	adds	r3, #1
   d832e:	b29b      	uxth	r3, r3
   d8330:	8283      	strh	r3, [r0, #20]
	_rxBufValid = true;
   d8332:	2301      	movs	r3, #1
   d8334:	f880 3128 	strb.w	r3, [r0, #296]	; 0x128
}
   d8338:	4770      	bx	lr
   d833a:	0000      	movs	r0, r0
   d833c:	0000      	movs	r0, r0
	...

000d8340 <_ZN7RH_RF9512setFrequencyEf>:
{
   d8340:	b538      	push	{r3, r4, r5, lr}
   d8342:	4604      	mov	r4, r0
   d8344:	ed2d 8b02 	vpush	{d8}
    uint32_t frf = (centre * 1000000.0) / RH_RF95_FSTEP;
   d8348:	ee10 0a10 	vmov	r0, s0
{
   d834c:	eeb0 8a40 	vmov.f32	s16, s0
    uint32_t frf = (centre * 1000000.0) / RH_RF95_FSTEP;
   d8350:	f003 ff88 	bl	dc264 <__aeabi_f2d>
   d8354:	a317      	add	r3, pc, #92	; (adr r3, d83b4 <_ZN7RH_RF9512setFrequencyEf+0x74>)
   d8356:	e9d3 2300 	ldrd	r2, r3, [r3]
   d835a:	f003 ffdb 	bl	dc314 <__aeabi_dmul>
   d835e:	a317      	add	r3, pc, #92	; (adr r3, d83bc <_ZN7RH_RF9512setFrequencyEf+0x7c>)
   d8360:	e9d3 2300 	ldrd	r2, r3, [r3]
   d8364:	f004 f900 	bl	dc568 <__aeabi_ddiv>
   d8368:	f004 f9e6 	bl	dc738 <__aeabi_d2uiz>
    spiWrite(RH_RF95_REG_06_FRF_MSB, (frf >> 16) & 0xff);
   d836c:	2106      	movs	r1, #6
    uint32_t frf = (centre * 1000000.0) / RH_RF95_FSTEP;
   d836e:	4605      	mov	r5, r0
    spiWrite(RH_RF95_REG_06_FRF_MSB, (frf >> 16) & 0xff);
   d8370:	f3c0 4207 	ubfx	r2, r0, #16, #8
   d8374:	4620      	mov	r0, r4
   d8376:	f7ff fecc 	bl	d8112 <_ZN11RHSPIDriver8spiWriteEhh>
    spiWrite(RH_RF95_REG_07_FRF_MID, (frf >> 8) & 0xff);
   d837a:	f3c5 2207 	ubfx	r2, r5, #8, #8
   d837e:	2107      	movs	r1, #7
   d8380:	4620      	mov	r0, r4
   d8382:	f7ff fec6 	bl	d8112 <_ZN11RHSPIDriver8spiWriteEhh>
    spiWrite(RH_RF95_REG_08_FRF_LSB, frf & 0xff);
   d8386:	b2ea      	uxtb	r2, r5
   d8388:	2108      	movs	r1, #8
   d838a:	4620      	mov	r0, r4
   d838c:	f7ff fec1 	bl	d8112 <_ZN11RHSPIDriver8spiWriteEhh>
    _usingHFport = (centre >= 779.0);
   d8390:	eddf 7a07 	vldr	s15, [pc, #28]	; d83b0 <_ZN7RH_RF9512setFrequencyEf+0x70>
   d8394:	eeb4 8ae7 	vcmpe.f32	s16, s15
}
   d8398:	ecbd 8b02 	vpop	{d8}
    _usingHFport = (centre >= 779.0);
   d839c:	eef1 fa10 	vmrs	APSR_nzcv, fpscr
   d83a0:	bfac      	ite	ge
   d83a2:	2301      	movge	r3, #1
   d83a4:	2300      	movlt	r3, #0
}
   d83a6:	2001      	movs	r0, #1
    _usingHFport = (centre >= 779.0);
   d83a8:	f884 3129 	strb.w	r3, [r4, #297]	; 0x129
}
   d83ac:	bd38      	pop	{r3, r4, r5, pc}
   d83ae:	bf00      	nop
   d83b0:	4442c000 	.word	0x4442c000
   d83b4:	00000000 	.word	0x00000000
   d83b8:	412e8480 	.word	0x412e8480
   d83bc:	00000000 	.word	0x00000000
   d83c0:	404e8480 	.word	0x404e8480

000d83c4 <_ZN7RH_RF9511setModeIdleEv>:
{
   d83c4:	b510      	push	{r4, lr}
    if (_mode != RHModeIdle)
   d83c6:	7903      	ldrb	r3, [r0, #4]
   d83c8:	2b02      	cmp	r3, #2
{
   d83ca:	4604      	mov	r4, r0
    if (_mode != RHModeIdle)
   d83cc:	d00b      	beq.n	d83e6 <_ZN7RH_RF9511setModeIdleEv+0x22>
	modeWillChange(RHModeIdle);
   d83ce:	6803      	ldr	r3, [r0, #0]
   d83d0:	2102      	movs	r1, #2
   d83d2:	f8d3 3080 	ldr.w	r3, [r3, #128]	; 0x80
   d83d6:	4798      	blx	r3
	spiWrite(RH_RF95_REG_01_OP_MODE, RH_RF95_MODE_STDBY);
   d83d8:	2201      	movs	r2, #1
   d83da:	4611      	mov	r1, r2
   d83dc:	4620      	mov	r0, r4
   d83de:	f7ff fe98 	bl	d8112 <_ZN11RHSPIDriver8spiWriteEhh>
	_mode = RHModeIdle;
   d83e2:	2302      	movs	r3, #2
   d83e4:	7123      	strb	r3, [r4, #4]
}
   d83e6:	bd10      	pop	{r4, pc}

000d83e8 <_ZN7RH_RF9515handleInterruptEv>:
{
   d83e8:	b570      	push	{r4, r5, r6, lr}
    uint8_t irq_flags = spiRead(RH_RF95_REG_12_IRQ_FLAGS);
   d83ea:	2112      	movs	r1, #18
{
   d83ec:	4604      	mov	r4, r0
    uint8_t irq_flags = spiRead(RH_RF95_REG_12_IRQ_FLAGS);
   d83ee:	f7ff fe6f 	bl	d80d0 <_ZN11RHSPIDriver7spiReadEh>
    uint8_t hop_channel = spiRead(RH_RF95_REG_1C_HOP_CHANNEL);
   d83f2:	211c      	movs	r1, #28
    uint8_t irq_flags = spiRead(RH_RF95_REG_12_IRQ_FLAGS);
   d83f4:	4605      	mov	r5, r0
    uint8_t hop_channel = spiRead(RH_RF95_REG_1C_HOP_CHANNEL);
   d83f6:	4620      	mov	r0, r4
   d83f8:	f7ff fe6a 	bl	d80d0 <_ZN11RHSPIDriver7spiReadEh>
    spiWrite(RH_RF95_REG_12_IRQ_FLAGS, 0xff); // Clear all IRQ flags
   d83fc:	22ff      	movs	r2, #255	; 0xff
    uint8_t hop_channel = spiRead(RH_RF95_REG_1C_HOP_CHANNEL);
   d83fe:	4606      	mov	r6, r0
    spiWrite(RH_RF95_REG_12_IRQ_FLAGS, 0xff); // Clear all IRQ flags
   d8400:	2112      	movs	r1, #18
   d8402:	4620      	mov	r0, r4
   d8404:	f7ff fe85 	bl	d8112 <_ZN11RHSPIDriver8spiWriteEhh>
    if (_mode == RHModeRx
   d8408:	7923      	ldrb	r3, [r4, #4]
	&& (   (irq_flags & (RH_RF95_RX_TIMEOUT | RH_RF95_PAYLOAD_CRC_ERROR))
   d840a:	2b04      	cmp	r3, #4
   d840c:	d107      	bne.n	d841e <_ZN7RH_RF9515handleInterruptEv+0x36>
   d840e:	f015 0fa0 	tst.w	r5, #160	; 0xa0
   d8412:	d117      	bne.n	d8444 <_ZN7RH_RF9515handleInterruptEv+0x5c>
	    || (_enableCRC && !(hop_channel & RH_RF95_RX_PAYLOAD_CRC_IS_ON)) ))
   d8414:	f894 312b 	ldrb.w	r3, [r4, #299]	; 0x12b
   d8418:	b10b      	cbz	r3, d841e <_ZN7RH_RF9515handleInterruptEv+0x36>
   d841a:	0670      	lsls	r0, r6, #25
   d841c:	d512      	bpl.n	d8444 <_ZN7RH_RF9515handleInterruptEv+0x5c>
    else if (_mode == RHModeRx && irq_flags & RH_RF95_RX_DONE)
   d841e:	7923      	ldrb	r3, [r4, #4]
   d8420:	2b04      	cmp	r3, #4
   d8422:	d101      	bne.n	d8428 <_ZN7RH_RF9515handleInterruptEv+0x40>
   d8424:	0669      	lsls	r1, r5, #25
   d8426:	d422      	bmi.n	d846e <_ZN7RH_RF9515handleInterruptEv+0x86>
    else if (_mode == RHModeTx && irq_flags & RH_RF95_TX_DONE)
   d8428:	7923      	ldrb	r3, [r4, #4]
   d842a:	2b03      	cmp	r3, #3
   d842c:	d101      	bne.n	d8432 <_ZN7RH_RF9515handleInterruptEv+0x4a>
   d842e:	072a      	lsls	r2, r5, #28
   d8430:	d469      	bmi.n	d8506 <_ZN7RH_RF9515handleInterruptEv+0x11e>
    else if (_mode == RHModeCad && irq_flags & RH_RF95_CAD_DONE)
   d8432:	7923      	ldrb	r3, [r4, #4]
   d8434:	2b05      	cmp	r3, #5
   d8436:	d10e      	bne.n	d8456 <_ZN7RH_RF9515handleInterruptEv+0x6e>
   d8438:	076b      	lsls	r3, r5, #29
   d843a:	d50c      	bpl.n	d8456 <_ZN7RH_RF9515handleInterruptEv+0x6e>
        _cad = irq_flags & RH_RF95_CAD_DETECTED;
   d843c:	f005 0501 	and.w	r5, r5, #1
   d8440:	7625      	strb	r5, [r4, #24]
   d8442:	e059      	b.n	d84f8 <_ZN7RH_RF9515handleInterruptEv+0x110>
	_rxBad++;
   d8444:	8a63      	ldrh	r3, [r4, #18]
   d8446:	3301      	adds	r3, #1
   d8448:	b29b      	uxth	r3, r3
   d844a:	8263      	strh	r3, [r4, #18]
    _rxBufValid = false;
   d844c:	2300      	movs	r3, #0
   d844e:	f884 3128 	strb.w	r3, [r4, #296]	; 0x128
    _bufLen = 0;
   d8452:	f884 3028 	strb.w	r3, [r4, #40]	; 0x28
    spiWrite(RH_RF95_REG_12_IRQ_FLAGS, 0xff); // Clear all IRQ flags
   d8456:	22ff      	movs	r2, #255	; 0xff
   d8458:	2112      	movs	r1, #18
   d845a:	4620      	mov	r0, r4
   d845c:	f7ff fe59 	bl	d8112 <_ZN11RHSPIDriver8spiWriteEhh>
    spiWrite(RH_RF95_REG_12_IRQ_FLAGS, 0xff); // Clear all IRQ flags
   d8460:	4620      	mov	r0, r4
   d8462:	22ff      	movs	r2, #255	; 0xff
}
   d8464:	e8bd 4070 	ldmia.w	sp!, {r4, r5, r6, lr}
    spiWrite(RH_RF95_REG_12_IRQ_FLAGS, 0xff); // Clear all IRQ flags
   d8468:	2112      	movs	r1, #18
   d846a:	f7ff be52 	b.w	d8112 <_ZN11RHSPIDriver8spiWriteEhh>
	uint8_t len = spiRead(RH_RF95_REG_13_RX_NB_BYTES);
   d846e:	2113      	movs	r1, #19
   d8470:	4620      	mov	r0, r4
   d8472:	f7ff fe2d 	bl	d80d0 <_ZN11RHSPIDriver7spiReadEh>
	spiWrite(RH_RF95_REG_0D_FIFO_ADDR_PTR, spiRead(RH_RF95_REG_10_FIFO_RX_CURRENT_ADDR));
   d8476:	2110      	movs	r1, #16
	uint8_t len = spiRead(RH_RF95_REG_13_RX_NB_BYTES);
   d8478:	4605      	mov	r5, r0
	spiWrite(RH_RF95_REG_0D_FIFO_ADDR_PTR, spiRead(RH_RF95_REG_10_FIFO_RX_CURRENT_ADDR));
   d847a:	4620      	mov	r0, r4
   d847c:	f7ff fe28 	bl	d80d0 <_ZN11RHSPIDriver7spiReadEh>
   d8480:	210d      	movs	r1, #13
   d8482:	4602      	mov	r2, r0
   d8484:	4620      	mov	r0, r4
   d8486:	f7ff fe44 	bl	d8112 <_ZN11RHSPIDriver8spiWriteEhh>
	spiBurstRead(RH_RF95_REG_00_FIFO, _buf, len);
   d848a:	f104 0229 	add.w	r2, r4, #41	; 0x29
   d848e:	462b      	mov	r3, r5
   d8490:	2100      	movs	r1, #0
   d8492:	4620      	mov	r0, r4
   d8494:	f7ff fe62 	bl	d815c <_ZN11RHSPIDriver12spiBurstReadEhPhh>
	_lastSNR = (int8_t)spiRead(RH_RF95_REG_19_PKT_SNR_VALUE) / 4;
   d8498:	2119      	movs	r1, #25
	_bufLen = len;
   d849a:	f884 5028 	strb.w	r5, [r4, #40]	; 0x28
	_lastSNR = (int8_t)spiRead(RH_RF95_REG_19_PKT_SNR_VALUE) / 4;
   d849e:	4620      	mov	r0, r4
   d84a0:	f7ff fe16 	bl	d80d0 <_ZN11RHSPIDriver7spiReadEh>
   d84a4:	b240      	sxtb	r0, r0
   d84a6:	2800      	cmp	r0, #0
   d84a8:	bfb8      	it	lt
   d84aa:	3003      	addlt	r0, #3
   d84ac:	1080      	asrs	r0, r0, #2
   d84ae:	f884 012a 	strb.w	r0, [r4, #298]	; 0x12a
	_lastRssi = spiRead(RH_RF95_REG_1A_PKT_RSSI_VALUE);
   d84b2:	211a      	movs	r1, #26
   d84b4:	4620      	mov	r0, r4
   d84b6:	f7ff fe0b 	bl	d80d0 <_ZN11RHSPIDriver7spiReadEh>
	if (_lastSNR < 0)
   d84ba:	f994 312a 	ldrsb.w	r3, [r4, #298]	; 0x12a
	_lastRssi = spiRead(RH_RF95_REG_1A_PKT_RSSI_VALUE);
   d84be:	b200      	sxth	r0, r0
	if (_lastSNR < 0)
   d84c0:	2b00      	cmp	r3, #0
	_lastRssi = spiRead(RH_RF95_REG_1A_PKT_RSSI_VALUE);
   d84c2:	8220      	strh	r0, [r4, #16]
	    _lastRssi = (int)_lastRssi * 16 / 15;
   d84c4:	bfa9      	itett	ge
   d84c6:	8a23      	ldrhge	r3, [r4, #16]
	    _lastRssi = _lastRssi + _lastSNR;
   d84c8:	8a22      	ldrhlt	r2, [r4, #16]
	    _lastRssi = (int)_lastRssi * 16 / 15;
   d84ca:	b21b      	sxthge	r3, r3
   d84cc:	011b      	lslge	r3, r3, #4
	    _lastRssi = _lastRssi + _lastSNR;
   d84ce:	bfb2      	itee	lt
   d84d0:	189b      	addlt	r3, r3, r2
	    _lastRssi = (int)_lastRssi * 16 / 15;
   d84d2:	220f      	movge	r2, #15
   d84d4:	fb93 f3f2 	sdivge	r3, r3, r2
   d84d8:	b21b      	sxth	r3, r3
   d84da:	8223      	strh	r3, [r4, #16]
	if (_usingHFport)
   d84dc:	f894 3129 	ldrb.w	r3, [r4, #297]	; 0x129
   d84e0:	b173      	cbz	r3, d8500 <_ZN7RH_RF9515handleInterruptEv+0x118>
	    _lastRssi -= 157;
   d84e2:	8a23      	ldrh	r3, [r4, #16]
   d84e4:	3b9d      	subs	r3, #157	; 0x9d
	    _lastRssi -= 164;
   d84e6:	b21b      	sxth	r3, r3
   d84e8:	8223      	strh	r3, [r4, #16]
	validateRxBuf(); 
   d84ea:	4620      	mov	r0, r4
   d84ec:	f7ff ff04 	bl	d82f8 <_ZN7RH_RF9513validateRxBufEv>
	if (_rxBufValid)
   d84f0:	f894 3128 	ldrb.w	r3, [r4, #296]	; 0x128
   d84f4:	2b00      	cmp	r3, #0
   d84f6:	d0ae      	beq.n	d8456 <_ZN7RH_RF9515handleInterruptEv+0x6e>
        setModeIdle();
   d84f8:	4620      	mov	r0, r4
   d84fa:	f7ff ff63 	bl	d83c4 <_ZN7RH_RF9511setModeIdleEv>
   d84fe:	e7aa      	b.n	d8456 <_ZN7RH_RF9515handleInterruptEv+0x6e>
	    _lastRssi -= 164;
   d8500:	8a23      	ldrh	r3, [r4, #16]
   d8502:	3ba4      	subs	r3, #164	; 0xa4
   d8504:	e7ef      	b.n	d84e6 <_ZN7RH_RF9515handleInterruptEv+0xfe>
	_txGood++;
   d8506:	8ae3      	ldrh	r3, [r4, #22]
   d8508:	3301      	adds	r3, #1
   d850a:	b29b      	uxth	r3, r3
   d850c:	82e3      	strh	r3, [r4, #22]
	setModeIdle();
   d850e:	e7f3      	b.n	d84f8 <_ZN7RH_RF9515handleInterruptEv+0x110>

000d8510 <_ZN7RH_RF954isr0Ev>:
    if (_deviceForInterrupt[0])
   d8510:	4b02      	ldr	r3, [pc, #8]	; (d851c <_ZN7RH_RF954isr0Ev+0xc>)
   d8512:	6818      	ldr	r0, [r3, #0]
   d8514:	b108      	cbz	r0, d851a <_ZN7RH_RF954isr0Ev+0xa>
	_deviceForInterrupt[0]->handleInterrupt();
   d8516:	f7ff bf67 	b.w	d83e8 <_ZN7RH_RF9515handleInterruptEv>
}
   d851a:	4770      	bx	lr
   d851c:	2003e51c 	.word	0x2003e51c

000d8520 <_ZN7RH_RF954isr1Ev>:
    if (_deviceForInterrupt[1])
   d8520:	4b02      	ldr	r3, [pc, #8]	; (d852c <_ZN7RH_RF954isr1Ev+0xc>)
   d8522:	6858      	ldr	r0, [r3, #4]
   d8524:	b108      	cbz	r0, d852a <_ZN7RH_RF954isr1Ev+0xa>
	_deviceForInterrupt[1]->handleInterrupt();
   d8526:	f7ff bf5f 	b.w	d83e8 <_ZN7RH_RF9515handleInterruptEv>
}
   d852a:	4770      	bx	lr
   d852c:	2003e51c 	.word	0x2003e51c

000d8530 <_ZN7RH_RF954isr2Ev>:
    if (_deviceForInterrupt[2])
   d8530:	4b02      	ldr	r3, [pc, #8]	; (d853c <_ZN7RH_RF954isr2Ev+0xc>)
   d8532:	6898      	ldr	r0, [r3, #8]
   d8534:	b108      	cbz	r0, d853a <_ZN7RH_RF954isr2Ev+0xa>
	_deviceForInterrupt[2]->handleInterrupt();
   d8536:	f7ff bf57 	b.w	d83e8 <_ZN7RH_RF9515handleInterruptEv>
}
   d853a:	4770      	bx	lr
   d853c:	2003e51c 	.word	0x2003e51c

000d8540 <_ZN7RH_RF959setModeRxEv>:
{
   d8540:	b510      	push	{r4, lr}
    if (_mode != RHModeRx)
   d8542:	7903      	ldrb	r3, [r0, #4]
   d8544:	2b04      	cmp	r3, #4
{
   d8546:	4604      	mov	r4, r0
    if (_mode != RHModeRx)
   d8548:	d010      	beq.n	d856c <_ZN7RH_RF959setModeRxEv+0x2c>
	modeWillChange(RHModeRx);
   d854a:	6803      	ldr	r3, [r0, #0]
   d854c:	2104      	movs	r1, #4
   d854e:	f8d3 3080 	ldr.w	r3, [r3, #128]	; 0x80
   d8552:	4798      	blx	r3
	spiWrite(RH_RF95_REG_01_OP_MODE, RH_RF95_MODE_RXCONTINUOUS);
   d8554:	2205      	movs	r2, #5
   d8556:	2101      	movs	r1, #1
   d8558:	4620      	mov	r0, r4
   d855a:	f7ff fdda 	bl	d8112 <_ZN11RHSPIDriver8spiWriteEhh>
	spiWrite(RH_RF95_REG_40_DIO_MAPPING1, 0x00); // Interrupt on RxDone
   d855e:	2200      	movs	r2, #0
   d8560:	2140      	movs	r1, #64	; 0x40
   d8562:	4620      	mov	r0, r4
   d8564:	f7ff fdd5 	bl	d8112 <_ZN11RHSPIDriver8spiWriteEhh>
	_mode = RHModeRx;
   d8568:	2304      	movs	r3, #4
   d856a:	7123      	strb	r3, [r4, #4]
}
   d856c:	bd10      	pop	{r4, pc}

000d856e <_ZN7RH_RF959availableEv>:
{
   d856e:	b510      	push	{r4, lr}
    if (_mode == RHModeTx)
   d8570:	7903      	ldrb	r3, [r0, #4]
   d8572:	2b03      	cmp	r3, #3
{
   d8574:	4604      	mov	r4, r0
    if (_mode == RHModeTx)
   d8576:	d005      	beq.n	d8584 <_ZN7RH_RF959availableEv+0x16>
    setModeRx();
   d8578:	f7ff ffe2 	bl	d8540 <_ZN7RH_RF959setModeRxEv>
    return _rxBufValid; // Will be set by the interrupt handler when a good message is received
   d857c:	f894 0128 	ldrb.w	r0, [r4, #296]	; 0x128
   d8580:	b2c0      	uxtb	r0, r0
}
   d8582:	bd10      	pop	{r4, pc}
	return false;
   d8584:	2000      	movs	r0, #0
   d8586:	e7fc      	b.n	d8582 <_ZN7RH_RF959availableEv+0x14>

000d8588 <_ZN7RH_RF959setModeTxEv>:
{
   d8588:	b510      	push	{r4, lr}
    if (_mode != RHModeTx)
   d858a:	7903      	ldrb	r3, [r0, #4]
   d858c:	2b03      	cmp	r3, #3
{
   d858e:	4604      	mov	r4, r0
    if (_mode != RHModeTx)
   d8590:	d010      	beq.n	d85b4 <_ZN7RH_RF959setModeTxEv+0x2c>
	modeWillChange(RHModeTx);
   d8592:	6803      	ldr	r3, [r0, #0]
   d8594:	2103      	movs	r1, #3
   d8596:	f8d3 3080 	ldr.w	r3, [r3, #128]	; 0x80
   d859a:	4798      	blx	r3
	spiWrite(RH_RF95_REG_01_OP_MODE, RH_RF95_MODE_TX);
   d859c:	2203      	movs	r2, #3
   d859e:	2101      	movs	r1, #1
   d85a0:	4620      	mov	r0, r4
   d85a2:	f7ff fdb6 	bl	d8112 <_ZN11RHSPIDriver8spiWriteEhh>
	spiWrite(RH_RF95_REG_40_DIO_MAPPING1, 0x40); // Interrupt on TxDone
   d85a6:	2240      	movs	r2, #64	; 0x40
   d85a8:	4611      	mov	r1, r2
   d85aa:	4620      	mov	r0, r4
   d85ac:	f7ff fdb1 	bl	d8112 <_ZN11RHSPIDriver8spiWriteEhh>
	_mode = RHModeTx;
   d85b0:	2303      	movs	r3, #3
   d85b2:	7123      	strb	r3, [r4, #4]
}
   d85b4:	bd10      	pop	{r4, pc}

000d85b6 <_ZN7RH_RF954sendEPKhh>:
    if (len > RH_RF95_MAX_MESSAGE_LEN)
   d85b6:	2afb      	cmp	r2, #251	; 0xfb
{
   d85b8:	b5f8      	push	{r3, r4, r5, r6, r7, lr}
   d85ba:	4604      	mov	r4, r0
   d85bc:	460f      	mov	r7, r1
   d85be:	4615      	mov	r5, r2
    if (len > RH_RF95_MAX_MESSAGE_LEN)
   d85c0:	d902      	bls.n	d85c8 <_ZN7RH_RF954sendEPKhh+0x12>
	return false;
   d85c2:	2600      	movs	r6, #0
}
   d85c4:	4630      	mov	r0, r6
   d85c6:	bdf8      	pop	{r3, r4, r5, r6, r7, pc}
    waitPacketSent(); // Make sure we dont interrupt an outgoing message
   d85c8:	6803      	ldr	r3, [r0, #0]
   d85ca:	6a1b      	ldr	r3, [r3, #32]
   d85cc:	4798      	blx	r3
    setModeIdle();
   d85ce:	4620      	mov	r0, r4
   d85d0:	f7ff fef8 	bl	d83c4 <_ZN7RH_RF9511setModeIdleEv>
    if (!waitCAD()) 
   d85d4:	6823      	ldr	r3, [r4, #0]
   d85d6:	4620      	mov	r0, r4
   d85d8:	6adb      	ldr	r3, [r3, #44]	; 0x2c
   d85da:	4798      	blx	r3
   d85dc:	4606      	mov	r6, r0
   d85de:	2800      	cmp	r0, #0
   d85e0:	d0ef      	beq.n	d85c2 <_ZN7RH_RF954sendEPKhh+0xc>
    spiWrite(RH_RF95_REG_0D_FIFO_ADDR_PTR, 0);
   d85e2:	2200      	movs	r2, #0
   d85e4:	210d      	movs	r1, #13
   d85e6:	4620      	mov	r0, r4
   d85e8:	f7ff fd93 	bl	d8112 <_ZN11RHSPIDriver8spiWriteEhh>
    spiWrite(RH_RF95_REG_00_FIFO, _txHeaderTo);
   d85ec:	7ae2      	ldrb	r2, [r4, #11]
   d85ee:	2100      	movs	r1, #0
   d85f0:	4620      	mov	r0, r4
   d85f2:	f7ff fd8e 	bl	d8112 <_ZN11RHSPIDriver8spiWriteEhh>
    spiWrite(RH_RF95_REG_00_FIFO, _txHeaderFrom);
   d85f6:	7b22      	ldrb	r2, [r4, #12]
   d85f8:	2100      	movs	r1, #0
   d85fa:	4620      	mov	r0, r4
   d85fc:	f7ff fd89 	bl	d8112 <_ZN11RHSPIDriver8spiWriteEhh>
    spiWrite(RH_RF95_REG_00_FIFO, _txHeaderId);
   d8600:	7b62      	ldrb	r2, [r4, #13]
   d8602:	2100      	movs	r1, #0
   d8604:	4620      	mov	r0, r4
   d8606:	f7ff fd84 	bl	d8112 <_ZN11RHSPIDriver8spiWriteEhh>
    spiWrite(RH_RF95_REG_00_FIFO, _txHeaderFlags);
   d860a:	7ba2      	ldrb	r2, [r4, #14]
   d860c:	2100      	movs	r1, #0
   d860e:	4620      	mov	r0, r4
   d8610:	f7ff fd7f 	bl	d8112 <_ZN11RHSPIDriver8spiWriteEhh>
    spiBurstWrite(RH_RF95_REG_00_FIFO, data, len);
   d8614:	462b      	mov	r3, r5
   d8616:	463a      	mov	r2, r7
   d8618:	2100      	movs	r1, #0
   d861a:	4620      	mov	r0, r4
   d861c:	f7ff fdc7 	bl	d81ae <_ZN11RHSPIDriver13spiBurstWriteEhPKhh>
    spiWrite(RH_RF95_REG_22_PAYLOAD_LENGTH, len + RH_RF95_HEADER_LEN);
   d8620:	1d2a      	adds	r2, r5, #4
   d8622:	b2d2      	uxtb	r2, r2
   d8624:	2122      	movs	r1, #34	; 0x22
   d8626:	4620      	mov	r0, r4
   d8628:	f7ff fd73 	bl	d8112 <_ZN11RHSPIDriver8spiWriteEhh>
    setModeTx(); // Start the transmitter
   d862c:	4620      	mov	r0, r4
   d862e:	f7ff ffab 	bl	d8588 <_ZN7RH_RF959setModeTxEv>
    return true;
   d8632:	e7c7      	b.n	d85c4 <_ZN7RH_RF954sendEPKhh+0xe>

000d8634 <_ZN7RH_RF9510setTxPowerEab>:
{
   d8634:	b538      	push	{r3, r4, r5, lr}
   d8636:	4605      	mov	r5, r0
   d8638:	460c      	mov	r4, r1
    _useRFO = useRFO;
   d863a:	f880 2025 	strb.w	r2, [r0, #37]	; 0x25
    if (useRFO)
   d863e:	b172      	cbz	r2, d865e <_ZN7RH_RF9510setTxPowerEab+0x2a>
	spiWrite(RH_RF95_REG_09_PA_CONFIG, RH_RF95_MAX_POWER | power);
   d8640:	f381 0204 	usat	r2, #4, r1
   d8644:	f042 0270 	orr.w	r2, r2, #112	; 0x70
   d8648:	b2d2      	uxtb	r2, r2
   d864a:	2109      	movs	r1, #9
   d864c:	f7ff fd61 	bl	d8112 <_ZN11RHSPIDriver8spiWriteEhh>
	spiWrite(RH_RF95_REG_4D_PA_DAC, RH_RF95_PA_DAC_DISABLE);
   d8650:	2204      	movs	r2, #4
   d8652:	214d      	movs	r1, #77	; 0x4d
	spiWrite(RH_RF95_REG_09_PA_CONFIG, RH_RF95_PA_SELECT | (power-2));
   d8654:	4628      	mov	r0, r5
}
   d8656:	e8bd 4038 	ldmia.w	sp!, {r3, r4, r5, lr}
	spiWrite(RH_RF95_REG_09_PA_CONFIG, RH_RF95_PA_SELECT | (power-2));
   d865a:	f7ff bd5a 	b.w	d8112 <_ZN11RHSPIDriver8spiWriteEhh>
	if (power > 20)
   d865e:	2914      	cmp	r1, #20
   d8660:	dc10      	bgt.n	d8684 <_ZN7RH_RF9510setTxPowerEab+0x50>
	if (power < 2)
   d8662:	2901      	cmp	r1, #1
   d8664:	dd10      	ble.n	d8688 <_ZN7RH_RF9510setTxPowerEab+0x54>
	if (power > 17)
   d8666:	2911      	cmp	r1, #17
   d8668:	dd0f      	ble.n	d868a <_ZN7RH_RF9510setTxPowerEab+0x56>
	    spiWrite(RH_RF95_REG_4D_PA_DAC, RH_RF95_PA_DAC_ENABLE);
   d866a:	2207      	movs	r2, #7
   d866c:	214d      	movs	r1, #77	; 0x4d
   d866e:	4628      	mov	r0, r5
   d8670:	f7ff fd4f 	bl	d8112 <_ZN11RHSPIDriver8spiWriteEhh>
	    power -= 3;
   d8674:	3c03      	subs	r4, #3
   d8676:	b264      	sxtb	r4, r4
	spiWrite(RH_RF95_REG_09_PA_CONFIG, RH_RF95_PA_SELECT | (power-2));
   d8678:	1ea2      	subs	r2, r4, #2
   d867a:	f062 027f 	orn	r2, r2, #127	; 0x7f
   d867e:	b2d2      	uxtb	r2, r2
   d8680:	2109      	movs	r1, #9
   d8682:	e7e7      	b.n	d8654 <_ZN7RH_RF9510setTxPowerEab+0x20>
	    power = 20;
   d8684:	2414      	movs	r4, #20
   d8686:	e7f0      	b.n	d866a <_ZN7RH_RF9510setTxPowerEab+0x36>
	    power = 2;
   d8688:	2402      	movs	r4, #2
	    spiWrite(RH_RF95_REG_4D_PA_DAC, RH_RF95_PA_DAC_DISABLE);
   d868a:	2204      	movs	r2, #4
   d868c:	214d      	movs	r1, #77	; 0x4d
   d868e:	4628      	mov	r0, r5
   d8690:	f7ff fd3f 	bl	d8112 <_ZN11RHSPIDriver8spiWriteEhh>
   d8694:	e7f0      	b.n	d8678 <_ZN7RH_RF9510setTxPowerEab+0x44>

000d8696 <_ZN7RH_RF9517setModemRegistersEPKNS_11ModemConfigE>:
{
   d8696:	b538      	push	{r3, r4, r5, lr}
   d8698:	460c      	mov	r4, r1
   d869a:	4605      	mov	r5, r0
    spiWrite(RH_RF95_REG_1D_MODEM_CONFIG1,       config->reg_1d);
   d869c:	780a      	ldrb	r2, [r1, #0]
   d869e:	211d      	movs	r1, #29
   d86a0:	f7ff fd37 	bl	d8112 <_ZN11RHSPIDriver8spiWriteEhh>
    spiWrite(RH_RF95_REG_1E_MODEM_CONFIG2,       config->reg_1e);
   d86a4:	7862      	ldrb	r2, [r4, #1]
   d86a6:	211e      	movs	r1, #30
   d86a8:	4628      	mov	r0, r5
   d86aa:	f7ff fd32 	bl	d8112 <_ZN11RHSPIDriver8spiWriteEhh>
    spiWrite(RH_RF95_REG_26_MODEM_CONFIG3,       config->reg_26);
   d86ae:	78a2      	ldrb	r2, [r4, #2]
   d86b0:	4628      	mov	r0, r5
   d86b2:	2126      	movs	r1, #38	; 0x26
}
   d86b4:	e8bd 4038 	ldmia.w	sp!, {r3, r4, r5, lr}
    spiWrite(RH_RF95_REG_26_MODEM_CONFIG3,       config->reg_26);
   d86b8:	f7ff bd2b 	b.w	d8112 <_ZN11RHSPIDriver8spiWriteEhh>

000d86bc <_ZN7RH_RF9514setModemConfigENS_17ModemConfigChoiceE>:
    if (index > (signed int)(sizeof(MODEM_CONFIG_TABLE) / sizeof(ModemConfig)))
   d86bc:	2905      	cmp	r1, #5
{
   d86be:	b513      	push	{r0, r1, r4, lr}
    if (index > (signed int)(sizeof(MODEM_CONFIG_TABLE) / sizeof(ModemConfig)))
   d86c0:	d80f      	bhi.n	d86e2 <_ZN7RH_RF9514setModemConfigENS_17ModemConfigChoiceE+0x26>
    memcpy_P(&cfg, &MODEM_CONFIG_TABLE[index], sizeof(RH_RF95::ModemConfig));
   d86c2:	4b09      	ldr	r3, [pc, #36]	; (d86e8 <_ZN7RH_RF9514setModemConfigENS_17ModemConfigChoiceE+0x2c>)
   d86c4:	eb01 0141 	add.w	r1, r1, r1, lsl #1
   d86c8:	185c      	adds	r4, r3, r1
   d86ca:	5a5a      	ldrh	r2, [r3, r1]
   d86cc:	78a3      	ldrb	r3, [r4, #2]
   d86ce:	f8ad 2004 	strh.w	r2, [sp, #4]
    setModemRegisters(&cfg);
   d86d2:	a901      	add	r1, sp, #4
    memcpy_P(&cfg, &MODEM_CONFIG_TABLE[index], sizeof(RH_RF95::ModemConfig));
   d86d4:	f88d 3006 	strb.w	r3, [sp, #6]
    setModemRegisters(&cfg);
   d86d8:	f7ff ffdd 	bl	d8696 <_ZN7RH_RF9517setModemRegistersEPKNS_11ModemConfigE>
    return true;
   d86dc:	2001      	movs	r0, #1
}
   d86de:	b002      	add	sp, #8
   d86e0:	bd10      	pop	{r4, pc}
        return false;
   d86e2:	2000      	movs	r0, #0
   d86e4:	e7fb      	b.n	d86de <_ZN7RH_RF9514setModemConfigENS_17ModemConfigChoiceE+0x22>
   d86e6:	bf00      	nop
   d86e8:	000dd730 	.word	0x000dd730

000d86ec <_ZN7RH_RF9517setPreambleLengthEt>:
{
   d86ec:	b538      	push	{r3, r4, r5, lr}
    spiWrite(RH_RF95_REG_20_PREAMBLE_MSB, bytes >> 8);
   d86ee:	0a0a      	lsrs	r2, r1, #8
{
   d86f0:	4605      	mov	r5, r0
   d86f2:	460c      	mov	r4, r1
    spiWrite(RH_RF95_REG_20_PREAMBLE_MSB, bytes >> 8);
   d86f4:	2120      	movs	r1, #32
   d86f6:	f7ff fd0c 	bl	d8112 <_ZN11RHSPIDriver8spiWriteEhh>
    spiWrite(RH_RF95_REG_21_PREAMBLE_LSB, bytes & 0xff);
   d86fa:	b2e2      	uxtb	r2, r4
   d86fc:	4628      	mov	r0, r5
   d86fe:	2121      	movs	r1, #33	; 0x21
}
   d8700:	e8bd 4038 	ldmia.w	sp!, {r3, r4, r5, lr}
    spiWrite(RH_RF95_REG_21_PREAMBLE_LSB, bytes & 0xff);
   d8704:	f7ff bd05 	b.w	d8112 <_ZN11RHSPIDriver8spiWriteEhh>

000d8708 <_ZN7RH_RF954initEv>:
{
   d8708:	b573      	push	{r0, r1, r4, r5, r6, lr}
   d870a:	4604      	mov	r4, r0
    if (!RHSPIDriver::init())
   d870c:	f7ff fcb0 	bl	d8070 <_ZN11RHSPIDriver4initEv>
   d8710:	4606      	mov	r6, r0
   d8712:	b918      	cbnz	r0, d871c <_ZN7RH_RF954initEv+0x14>
	return false;
   d8714:	2600      	movs	r6, #0
}
   d8716:	4630      	mov	r0, r6
   d8718:	b002      	add	sp, #8
   d871a:	bd70      	pop	{r4, r5, r6, pc}
    if (_interruptPin != RH_INVALID_PIN)
   d871c:	f894 5026 	ldrb.w	r5, [r4, #38]	; 0x26
   d8720:	2dff      	cmp	r5, #255	; 0xff
   d8722:	d052      	beq.n	d87ca <_ZN7RH_RF954initEv+0xc2>
	spiUsingInterrupt(interruptNumber);
   d8724:	4629      	mov	r1, r5
   d8726:	4620      	mov	r0, r4
   d8728:	f7ff fd69 	bl	d81fe <_ZN11RHSPIDriver17spiUsingInterruptEh>
    spiWrite(RH_RF95_REG_01_OP_MODE, RH_RF95_MODE_SLEEP | RH_RF95_LONG_RANGE_MODE);
   d872c:	2280      	movs	r2, #128	; 0x80
   d872e:	2101      	movs	r1, #1
   d8730:	4620      	mov	r0, r4
   d8732:	f7ff fcee 	bl	d8112 <_ZN11RHSPIDriver8spiWriteEhh>
    delay(10); // Wait for sleep mode to take over from say, CAD
   d8736:	200a      	movs	r0, #10
   d8738:	f000 fc02 	bl	d8f40 <delay>
    if (spiRead(RH_RF95_REG_01_OP_MODE) != (RH_RF95_MODE_SLEEP | RH_RF95_LONG_RANGE_MODE))
   d873c:	2101      	movs	r1, #1
   d873e:	4620      	mov	r0, r4
   d8740:	f7ff fcc6 	bl	d80d0 <_ZN11RHSPIDriver7spiReadEh>
   d8744:	2880      	cmp	r0, #128	; 0x80
   d8746:	d1e5      	bne.n	d8714 <_ZN7RH_RF954initEv+0xc>
    if (_interruptPin != RH_INVALID_PIN)
   d8748:	f894 0026 	ldrb.w	r0, [r4, #38]	; 0x26
   d874c:	28ff      	cmp	r0, #255	; 0xff
   d874e:	d01c      	beq.n	d878a <_ZN7RH_RF954initEv+0x82>
	pinMode(_interruptPin, INPUT); 
   d8750:	2100      	movs	r1, #0
   d8752:	f003 fb45 	bl	dbde0 <pinMode>
	if (_myInterruptIndex == 0xff)
   d8756:	f894 3027 	ldrb.w	r3, [r4, #39]	; 0x27
   d875a:	2bff      	cmp	r3, #255	; 0xff
   d875c:	d107      	bne.n	d876e <_ZN7RH_RF954initEv+0x66>
	    if (_interruptCount <= RH_RF95_NUM_INTERRUPTS)
   d875e:	4a25      	ldr	r2, [pc, #148]	; (d87f4 <_ZN7RH_RF954initEv+0xec>)
   d8760:	7813      	ldrb	r3, [r2, #0]
   d8762:	2b03      	cmp	r3, #3
   d8764:	d8d6      	bhi.n	d8714 <_ZN7RH_RF954initEv+0xc>
		_myInterruptIndex = _interruptCount++;
   d8766:	1c59      	adds	r1, r3, #1
   d8768:	7011      	strb	r1, [r2, #0]
   d876a:	f884 3027 	strb.w	r3, [r4, #39]	; 0x27
	_deviceForInterrupt[_myInterruptIndex] = this;
   d876e:	f894 2027 	ldrb.w	r2, [r4, #39]	; 0x27
   d8772:	4b21      	ldr	r3, [pc, #132]	; (d87f8 <_ZN7RH_RF954initEv+0xf0>)
   d8774:	f843 4022 	str.w	r4, [r3, r2, lsl #2]
	if (_myInterruptIndex == 0)
   d8778:	bb52      	cbnz	r2, d87d0 <_ZN7RH_RF954initEv+0xc8>
	    attachInterrupt(interruptNumber, isr0, RISING);
   d877a:	4920      	ldr	r1, [pc, #128]	; (d87fc <_ZN7RH_RF954initEv+0xf4>)
   d877c:	9200      	str	r2, [sp, #0]
   d877e:	f04f 33ff 	mov.w	r3, #4294967295	; 0xffffffff
   d8782:	2201      	movs	r2, #1
	    attachInterrupt(interruptNumber, isr2, RISING);
   d8784:	b2a8      	uxth	r0, r5
   d8786:	f001 f995 	bl	d9ab4 <_Z15attachInterrupttPFvvE13InterruptModeah>
    spiWrite(RH_RF95_REG_0E_FIFO_TX_BASE_ADDR, 0);
   d878a:	2200      	movs	r2, #0
   d878c:	210e      	movs	r1, #14
   d878e:	4620      	mov	r0, r4
   d8790:	f7ff fcbf 	bl	d8112 <_ZN11RHSPIDriver8spiWriteEhh>
    spiWrite(RH_RF95_REG_0F_FIFO_RX_BASE_ADDR, 0);
   d8794:	2200      	movs	r2, #0
   d8796:	210f      	movs	r1, #15
   d8798:	4620      	mov	r0, r4
   d879a:	f7ff fcba 	bl	d8112 <_ZN11RHSPIDriver8spiWriteEhh>
    setModeIdle();
   d879e:	4620      	mov	r0, r4
   d87a0:	f7ff fe10 	bl	d83c4 <_ZN7RH_RF9511setModeIdleEv>
    setModemConfig(Bw125Cr45Sf128); // Radio default
   d87a4:	2100      	movs	r1, #0
   d87a6:	4620      	mov	r0, r4
   d87a8:	f7ff ff88 	bl	d86bc <_ZN7RH_RF9514setModemConfigENS_17ModemConfigChoiceE>
    setPreambleLength(8); // Default is 8
   d87ac:	2108      	movs	r1, #8
   d87ae:	4620      	mov	r0, r4
   d87b0:	f7ff ff9c 	bl	d86ec <_ZN7RH_RF9517setPreambleLengthEt>
    setFrequency(434.0);
   d87b4:	ed9f 0a12 	vldr	s0, [pc, #72]	; d8800 <_ZN7RH_RF954initEv+0xf8>
   d87b8:	4620      	mov	r0, r4
   d87ba:	f7ff fdc1 	bl	d8340 <_ZN7RH_RF9512setFrequencyEf>
    setTxPower(13);
   d87be:	2200      	movs	r2, #0
   d87c0:	210d      	movs	r1, #13
   d87c2:	4620      	mov	r0, r4
   d87c4:	f7ff ff36 	bl	d8634 <_ZN7RH_RF9510setTxPowerEab>
    return true;
   d87c8:	e7a5      	b.n	d8716 <_ZN7RH_RF954initEv+0xe>
    int interruptNumber = NOT_AN_INTERRUPT;
   d87ca:	f04f 35ff 	mov.w	r5, #4294967295	; 0xffffffff
   d87ce:	e7ad      	b.n	d872c <_ZN7RH_RF954initEv+0x24>
	else if (_myInterruptIndex == 1)
   d87d0:	2a01      	cmp	r2, #1
   d87d2:	f04f 0300 	mov.w	r3, #0
   d87d6:	d104      	bne.n	d87e2 <_ZN7RH_RF954initEv+0xda>
	    attachInterrupt(interruptNumber, isr1, RISING);
   d87d8:	9300      	str	r3, [sp, #0]
   d87da:	490a      	ldr	r1, [pc, #40]	; (d8804 <_ZN7RH_RF954initEv+0xfc>)
   d87dc:	f04f 33ff 	mov.w	r3, #4294967295	; 0xffffffff
   d87e0:	e7d0      	b.n	d8784 <_ZN7RH_RF954initEv+0x7c>
	else if (_myInterruptIndex == 2)
   d87e2:	2a02      	cmp	r2, #2
   d87e4:	d196      	bne.n	d8714 <_ZN7RH_RF954initEv+0xc>
	    attachInterrupt(interruptNumber, isr2, RISING);
   d87e6:	9300      	str	r3, [sp, #0]
   d87e8:	4907      	ldr	r1, [pc, #28]	; (d8808 <_ZN7RH_RF954initEv+0x100>)
   d87ea:	f04f 33ff 	mov.w	r3, #4294967295	; 0xffffffff
   d87ee:	2201      	movs	r2, #1
   d87f0:	e7c8      	b.n	d8784 <_ZN7RH_RF954initEv+0x7c>
   d87f2:	bf00      	nop
   d87f4:	2003e519 	.word	0x2003e519
   d87f8:	2003e51c 	.word	0x2003e51c
   d87fc:	000d8511 	.word	0x000d8511
   d8800:	43d90000 	.word	0x43d90000
   d8804:	000d8521 	.word	0x000d8521
   d8808:	000d8531 	.word	0x000d8531

000d880c <cellular_signal>:
DYNALIB_FN(12, hal_cellular, cellular_sim_ready, bool(void*))
DYNALIB_FN(13, hal_cellular, cellular_cancel, void(bool, bool, void*))
DYNALIB_FN(14, hal_cellular, HAL_NET_SetNetWatchDog, uint32_t(uint32_t))
DYNALIB_FN(15, hal_cellular, inet_gethostbyname, int(const char*, uint16_t, HAL_IPAddress*, network_interface_t, void*))
DYNALIB_FN(16, hal_cellular, inet_ping, int(const HAL_IPAddress*, network_interface_t, uint8_t, void*))
DYNALIB_FN(17, hal_cellular, cellular_signal, cellular_result_t(CellularSignalHal*, cellular_signal_t*))
   d880c:	b508      	push	{r3, lr}
   d880e:	4b02      	ldr	r3, [pc, #8]	; (d8818 <cellular_signal+0xc>)
   d8810:	681b      	ldr	r3, [r3, #0]
   d8812:	6c5b      	ldr	r3, [r3, #68]	; 0x44
   d8814:	9301      	str	r3, [sp, #4]
   d8816:	bd08      	pop	{r3, pc}
   d8818:	00030274 	.word	0x00030274

000d881c <os_mutex_recursive_create>:
DYNALIB_FN(13, hal_concurrent, os_mutex_destroy, int(os_mutex_t))
DYNALIB_FN(14, hal_concurrent, os_mutex_lock, int(os_mutex_t))
DYNALIB_FN(15, hal_concurrent, os_mutex_trylock, int(os_mutex_t))
DYNALIB_FN(16, hal_concurrent, os_mutex_unlock, int(os_mutex_t))

DYNALIB_FN(17, hal_concurrent, os_mutex_recursive_create, int(os_mutex_recursive_t*))
   d881c:	b508      	push	{r3, lr}
   d881e:	4b02      	ldr	r3, [pc, #8]	; (d8828 <os_mutex_recursive_create+0xc>)
   d8820:	681b      	ldr	r3, [r3, #0]
   d8822:	6c5b      	ldr	r3, [r3, #68]	; 0x44
   d8824:	9301      	str	r3, [sp, #4]
   d8826:	bd08      	pop	{r3, pc}
   d8828:	00030248 	.word	0x00030248

000d882c <os_mutex_recursive_destroy>:
DYNALIB_FN(18, hal_concurrent, os_mutex_recursive_destroy, int(os_mutex_recursive_t))
   d882c:	b508      	push	{r3, lr}
   d882e:	4b02      	ldr	r3, [pc, #8]	; (d8838 <os_mutex_recursive_destroy+0xc>)
   d8830:	681b      	ldr	r3, [r3, #0]
   d8832:	6c9b      	ldr	r3, [r3, #72]	; 0x48
   d8834:	9301      	str	r3, [sp, #4]
   d8836:	bd08      	pop	{r3, pc}
   d8838:	00030248 	.word	0x00030248

000d883c <os_mutex_recursive_lock>:
DYNALIB_FN(19, hal_concurrent, os_mutex_recursive_lock, int(os_mutex_recursive_t))
   d883c:	b508      	push	{r3, lr}
   d883e:	4b02      	ldr	r3, [pc, #8]	; (d8848 <os_mutex_recursive_lock+0xc>)
   d8840:	681b      	ldr	r3, [r3, #0]
   d8842:	6cdb      	ldr	r3, [r3, #76]	; 0x4c
   d8844:	9301      	str	r3, [sp, #4]
   d8846:	bd08      	pop	{r3, pc}
   d8848:	00030248 	.word	0x00030248

000d884c <os_mutex_recursive_unlock>:
DYNALIB_FN(20, hal_concurrent, os_mutex_recursive_trylock, int(os_mutex_recursive_t))
DYNALIB_FN(21, hal_concurrent, os_mutex_recursive_unlock, int(os_mutex_recursive_t))
   d884c:	b508      	push	{r3, lr}
   d884e:	4b02      	ldr	r3, [pc, #8]	; (d8858 <os_mutex_recursive_unlock+0xc>)
   d8850:	681b      	ldr	r3, [r3, #0]
   d8852:	6d5b      	ldr	r3, [r3, #84]	; 0x54
   d8854:	9301      	str	r3, [sp, #4]
   d8856:	bd08      	pop	{r3, pc}
   d8858:	00030248 	.word	0x00030248

000d885c <HAL_Feature_Set>:
DYNALIB_FN(20, hal_core, HAL_Core_System_Reset_FlagSet, bool(RESET_TypeDef))
DYNALIB_FN(21, hal_core, HAL_Core_Runtime_Info, uint32_t(runtime_info_t*, void*))
DYNALIB_FN(22, hal_core, HAL_Set_System_Config, int(hal_system_config_t, const void*, unsigned))
DYNALIB_FN(23, hal_core, HAL_Core_Enter_Safe_Mode, void(void*))
DYNALIB_FN(24, hal_core, HAL_Feature_Get, bool(HAL_Feature))
DYNALIB_FN(25, hal_core, HAL_Feature_Set, int(HAL_Feature, bool))
   d885c:	b508      	push	{r3, lr}
   d885e:	4b02      	ldr	r3, [pc, #8]	; (d8868 <HAL_Feature_Set+0xc>)
   d8860:	681b      	ldr	r3, [r3, #0]
   d8862:	6e5b      	ldr	r3, [r3, #100]	; 0x64
   d8864:	9301      	str	r3, [sp, #4]
   d8866:	bd08      	pop	{r3, pc}
   d8868:	00030234 	.word	0x00030234

000d886c <HAL_RNG_GetRandomNumber>:

DYNALIB_BEGIN(hal)

#if PLATFORM_ID > 3
DYNALIB_FN(0, hal, HAL_RNG_Configuration, void(void))
DYNALIB_FN(1, hal, HAL_RNG_GetRandomNumber, uint32_t(void))
   d886c:	b508      	push	{r3, lr}
   d886e:	4b02      	ldr	r3, [pc, #8]	; (d8878 <HAL_RNG_GetRandomNumber+0xc>)
   d8870:	681b      	ldr	r3, [r3, #0]
   d8872:	685b      	ldr	r3, [r3, #4]
   d8874:	9301      	str	r3, [sp, #4]
   d8876:	bd08      	pop	{r3, pc}
   d8878:	00030218 	.word	0x00030218

000d887c <HAL_Delay_Microseconds>:
#else
#define BASE_IDX 0
#endif

DYNALIB_FN(BASE_IDX + 0, hal, HAL_Delay_Milliseconds, void(uint32_t))
DYNALIB_FN(BASE_IDX + 1, hal, HAL_Delay_Microseconds, void(uint32_t))
   d887c:	b508      	push	{r3, lr}
   d887e:	4b02      	ldr	r3, [pc, #8]	; (d8888 <HAL_Delay_Microseconds+0xc>)
   d8880:	681b      	ldr	r3, [r3, #0]
   d8882:	68db      	ldr	r3, [r3, #12]
   d8884:	9301      	str	r3, [sp, #4]
   d8886:	bd08      	pop	{r3, pc}
   d8888:	00030218 	.word	0x00030218

000d888c <HAL_Timer_Get_Milli_Seconds>:
DYNALIB_FN(BASE_IDX + 2, hal, HAL_Timer_Get_Micro_Seconds, system_tick_t(void))
DYNALIB_FN(BASE_IDX + 3, hal, HAL_Timer_Get_Milli_Seconds, system_tick_t(void))
   d888c:	b508      	push	{r3, lr}
   d888e:	4b02      	ldr	r3, [pc, #8]	; (d8898 <HAL_Timer_Get_Milli_Seconds+0xc>)
   d8890:	681b      	ldr	r3, [r3, #0]
   d8892:	695b      	ldr	r3, [r3, #20]
   d8894:	9301      	str	r3, [sp, #4]
   d8896:	bd08      	pop	{r3, pc}
   d8898:	00030218 	.word	0x00030218

000d889c <hal_rtc_time_is_valid>:
DYNALIB_FN(BASE_IDX + 15, hal, HAL_EEPROM_Get, void(uint32_t, void *, size_t))
DYNALIB_FN(BASE_IDX + 16, hal, HAL_EEPROM_Put, void(uint32_t, const void *, size_t))
DYNALIB_FN(BASE_IDX + 17, hal, HAL_EEPROM_Clear, void(void))
DYNALIB_FN(BASE_IDX + 18, hal, HAL_EEPROM_Has_Pending_Erase, bool(void))
DYNALIB_FN(BASE_IDX + 19, hal, HAL_EEPROM_Perform_Pending_Erase, void(void))
DYNALIB_FN(BASE_IDX + 20, hal, hal_rtc_time_is_valid, bool(void*))
   d889c:	b508      	push	{r3, lr}
   d889e:	4b02      	ldr	r3, [pc, #8]	; (d88a8 <hal_rtc_time_is_valid+0xc>)
   d88a0:	681b      	ldr	r3, [r3, #0]
   d88a2:	6d9b      	ldr	r3, [r3, #88]	; 0x58
   d88a4:	9301      	str	r3, [sp, #4]
   d88a6:	bd08      	pop	{r3, pc}
   d88a8:	00030218 	.word	0x00030218

000d88ac <hal_rtc_get_time>:

DYNALIB_FN(BASE_IDX + 21, hal, hal_timer_millis, uint64_t(void*))
DYNALIB_FN(BASE_IDX + 22, hal, hal_timer_micros, uint64_t(void*))

DYNALIB_FN(BASE_IDX + 23, hal, hal_rtc_get_time, int(struct timeval*, void*))
   d88ac:	b508      	push	{r3, lr}
   d88ae:	4b02      	ldr	r3, [pc, #8]	; (d88b8 <hal_rtc_get_time+0xc>)
   d88b0:	681b      	ldr	r3, [r3, #0]
   d88b2:	6e5b      	ldr	r3, [r3, #100]	; 0x64
   d88b4:	9301      	str	r3, [sp, #4]
   d88b6:	bd08      	pop	{r3, pc}
   d88b8:	00030218 	.word	0x00030218

000d88bc <hal_rtc_set_time>:
DYNALIB_FN(BASE_IDX + 24, hal, hal_rtc_set_time, int(const struct timeval*, void*))
   d88bc:	b508      	push	{r3, lr}
   d88be:	4b02      	ldr	r3, [pc, #8]	; (d88c8 <hal_rtc_set_time+0xc>)
   d88c0:	681b      	ldr	r3, [r3, #0]
   d88c2:	6e9b      	ldr	r3, [r3, #104]	; 0x68
   d88c4:	9301      	str	r3, [sp, #4]
   d88c6:	bd08      	pop	{r3, pc}
   d88c8:	00030218 	.word	0x00030218

000d88cc <HAL_Validate_Pin_Function>:
// GNINRAW

DYNALIB_BEGIN(hal_gpio)

DYNALIB_FN(0, hal_gpio, HAL_Pin_Map, Hal_Pin_Info*(void))
DYNALIB_FN(1, hal_gpio, HAL_Validate_Pin_Function, PinFunction(pin_t, PinFunction))
   d88cc:	b508      	push	{r3, lr}
   d88ce:	4b02      	ldr	r3, [pc, #8]	; (d88d8 <HAL_Validate_Pin_Function+0xc>)
   d88d0:	681b      	ldr	r3, [r3, #0]
   d88d2:	685b      	ldr	r3, [r3, #4]
   d88d4:	9301      	str	r3, [sp, #4]
   d88d6:	bd08      	pop	{r3, pc}
   d88d8:	0003022c 	.word	0x0003022c

000d88dc <HAL_Pin_Mode>:
DYNALIB_FN(2, hal_gpio, HAL_Pin_Mode, void(pin_t, PinMode))
   d88dc:	b508      	push	{r3, lr}
   d88de:	4b02      	ldr	r3, [pc, #8]	; (d88e8 <HAL_Pin_Mode+0xc>)
   d88e0:	681b      	ldr	r3, [r3, #0]
   d88e2:	689b      	ldr	r3, [r3, #8]
   d88e4:	9301      	str	r3, [sp, #4]
   d88e6:	bd08      	pop	{r3, pc}
   d88e8:	0003022c 	.word	0x0003022c

000d88ec <HAL_Get_Pin_Mode>:
DYNALIB_FN(3, hal_gpio, HAL_Get_Pin_Mode, PinMode(pin_t))
   d88ec:	b508      	push	{r3, lr}
   d88ee:	4b02      	ldr	r3, [pc, #8]	; (d88f8 <HAL_Get_Pin_Mode+0xc>)
   d88f0:	681b      	ldr	r3, [r3, #0]
   d88f2:	68db      	ldr	r3, [r3, #12]
   d88f4:	9301      	str	r3, [sp, #4]
   d88f6:	bd08      	pop	{r3, pc}
   d88f8:	0003022c 	.word	0x0003022c

000d88fc <HAL_GPIO_Write>:
DYNALIB_FN(4, hal_gpio, HAL_GPIO_Write, void(pin_t, uint8_t))
   d88fc:	b508      	push	{r3, lr}
   d88fe:	4b02      	ldr	r3, [pc, #8]	; (d8908 <HAL_GPIO_Write+0xc>)
   d8900:	681b      	ldr	r3, [r3, #0]
   d8902:	691b      	ldr	r3, [r3, #16]
   d8904:	9301      	str	r3, [sp, #4]
   d8906:	bd08      	pop	{r3, pc}
   d8908:	0003022c 	.word	0x0003022c

000d890c <HAL_GPIO_Read>:
DYNALIB_FN(5, hal_gpio, HAL_GPIO_Read, int32_t(pin_t))
   d890c:	b508      	push	{r3, lr}
   d890e:	4b02      	ldr	r3, [pc, #8]	; (d8918 <HAL_GPIO_Read+0xc>)
   d8910:	681b      	ldr	r3, [r3, #0]
   d8912:	695b      	ldr	r3, [r3, #20]
   d8914:	9301      	str	r3, [sp, #4]
   d8916:	bd08      	pop	{r3, pc}
   d8918:	0003022c 	.word	0x0003022c

000d891c <HAL_Interrupts_Attach>:
DYNALIB_FN(6, hal_gpio, HAL_Interrupts_Attach, int(uint16_t, HAL_InterruptHandler, void*, InterruptMode, HAL_InterruptExtraConfiguration*))
   d891c:	b508      	push	{r3, lr}
   d891e:	4b02      	ldr	r3, [pc, #8]	; (d8928 <HAL_Interrupts_Attach+0xc>)
   d8920:	681b      	ldr	r3, [r3, #0]
   d8922:	699b      	ldr	r3, [r3, #24]
   d8924:	9301      	str	r3, [sp, #4]
   d8926:	bd08      	pop	{r3, pc}
   d8928:	0003022c 	.word	0x0003022c

000d892c <HAL_Interrupts_Detach>:
DYNALIB_FN(7, hal_gpio, HAL_Interrupts_Detach, int(uint16_t))
   d892c:	b508      	push	{r3, lr}
   d892e:	4b02      	ldr	r3, [pc, #8]	; (d8938 <HAL_Interrupts_Detach+0xc>)
   d8930:	681b      	ldr	r3, [r3, #0]
   d8932:	69db      	ldr	r3, [r3, #28]
   d8934:	9301      	str	r3, [sp, #4]
   d8936:	bd08      	pop	{r3, pc}
   d8938:	0003022c 	.word	0x0003022c

000d893c <hal_adc_read>:
DYNALIB_FN(8, hal_gpio, HAL_Interrupts_Enable_All, void(void))
DYNALIB_FN(9, hal_gpio, HAL_Interrupts_Disable_All, void(void))

DYNALIB_FN(10, hal_gpio, HAL_DAC_Write, void(pin_t, uint16_t))
DYNALIB_FN(11, hal_gpio, hal_adc_set_sample_time, void(uint8_t))
DYNALIB_FN(12, hal_gpio, hal_adc_read, int32_t(uint16_t))
   d893c:	b508      	push	{r3, lr}
   d893e:	4b02      	ldr	r3, [pc, #8]	; (d8948 <hal_adc_read+0xc>)
   d8940:	681b      	ldr	r3, [r3, #0]
   d8942:	6b1b      	ldr	r3, [r3, #48]	; 0x30
   d8944:	9301      	str	r3, [sp, #4]
   d8946:	bd08      	pop	{r3, pc}
   d8948:	0003022c 	.word	0x0003022c

000d894c <hal_i2c_begin>:
#endif

DYNALIB_FN(BASE_IDX + 0, hal_i2c, hal_i2c_set_speed, void(hal_i2c_interface_t, uint32_t, void*))
DYNALIB_FN(BASE_IDX + 1, hal_i2c, hal_i2c_enable_dma_mode, void(hal_i2c_interface_t, bool, void*))
DYNALIB_FN(BASE_IDX + 2, hal_i2c, hal_i2c_stretch_clock, void(hal_i2c_interface_t, bool, void*))
DYNALIB_FN(BASE_IDX + 3, hal_i2c, hal_i2c_begin, void(hal_i2c_interface_t, hal_i2c_mode_t, uint8_t, void*))
   d894c:	b508      	push	{r3, lr}
   d894e:	4b02      	ldr	r3, [pc, #8]	; (d8958 <hal_i2c_begin+0xc>)
   d8950:	681b      	ldr	r3, [r3, #0]
   d8952:	68db      	ldr	r3, [r3, #12]
   d8954:	9301      	str	r3, [sp, #4]
   d8956:	bd08      	pop	{r3, pc}
   d8958:	00030228 	.word	0x00030228

000d895c <hal_i2c_begin_transmission>:
DYNALIB_FN(BASE_IDX + 4, hal_i2c, hal_i2c_end, void(hal_i2c_interface_t, void*))
DYNALIB_FN(BASE_IDX + 5, hal_i2c, hal_i2c_request, uint32_t(hal_i2c_interface_t, uint8_t, uint8_t, uint8_t, void*))
DYNALIB_FN(BASE_IDX + 6, hal_i2c, hal_i2c_begin_transmission, void(hal_i2c_interface_t, uint8_t, const hal_i2c_transmission_config_t*))
   d895c:	b508      	push	{r3, lr}
   d895e:	4b02      	ldr	r3, [pc, #8]	; (d8968 <hal_i2c_begin_transmission+0xc>)
   d8960:	681b      	ldr	r3, [r3, #0]
   d8962:	699b      	ldr	r3, [r3, #24]
   d8964:	9301      	str	r3, [sp, #4]
   d8966:	bd08      	pop	{r3, pc}
   d8968:	00030228 	.word	0x00030228

000d896c <hal_i2c_end_transmission>:
DYNALIB_FN(BASE_IDX + 7, hal_i2c, hal_i2c_end_transmission, uint8_t(hal_i2c_interface_t, uint8_t, void*))
   d896c:	b508      	push	{r3, lr}
   d896e:	4b02      	ldr	r3, [pc, #8]	; (d8978 <hal_i2c_end_transmission+0xc>)
   d8970:	681b      	ldr	r3, [r3, #0]
   d8972:	69db      	ldr	r3, [r3, #28]
   d8974:	9301      	str	r3, [sp, #4]
   d8976:	bd08      	pop	{r3, pc}
   d8978:	00030228 	.word	0x00030228

000d897c <hal_i2c_write>:
DYNALIB_FN(BASE_IDX + 8, hal_i2c, hal_i2c_write, uint32_t(hal_i2c_interface_t, uint8_t, void*))
   d897c:	b508      	push	{r3, lr}
   d897e:	4b02      	ldr	r3, [pc, #8]	; (d8988 <hal_i2c_write+0xc>)
   d8980:	681b      	ldr	r3, [r3, #0]
   d8982:	6a1b      	ldr	r3, [r3, #32]
   d8984:	9301      	str	r3, [sp, #4]
   d8986:	bd08      	pop	{r3, pc}
   d8988:	00030228 	.word	0x00030228

000d898c <hal_i2c_available>:
DYNALIB_FN(BASE_IDX + 9, hal_i2c, hal_i2c_available, int32_t(hal_i2c_interface_t, void*))
   d898c:	b508      	push	{r3, lr}
   d898e:	4b02      	ldr	r3, [pc, #8]	; (d8998 <hal_i2c_available+0xc>)
   d8990:	681b      	ldr	r3, [r3, #0]
   d8992:	6a5b      	ldr	r3, [r3, #36]	; 0x24
   d8994:	9301      	str	r3, [sp, #4]
   d8996:	bd08      	pop	{r3, pc}
   d8998:	00030228 	.word	0x00030228

000d899c <hal_i2c_read>:
DYNALIB_FN(BASE_IDX + 10, hal_i2c, hal_i2c_read, int32_t(hal_i2c_interface_t, void*))
   d899c:	b508      	push	{r3, lr}
   d899e:	4b02      	ldr	r3, [pc, #8]	; (d89a8 <hal_i2c_read+0xc>)
   d89a0:	681b      	ldr	r3, [r3, #0]
   d89a2:	6a9b      	ldr	r3, [r3, #40]	; 0x28
   d89a4:	9301      	str	r3, [sp, #4]
   d89a6:	bd08      	pop	{r3, pc}
   d89a8:	00030228 	.word	0x00030228

000d89ac <hal_i2c_peek>:
DYNALIB_FN(BASE_IDX + 11, hal_i2c, hal_i2c_peek, int32_t(hal_i2c_interface_t, void*))
   d89ac:	b508      	push	{r3, lr}
   d89ae:	4b02      	ldr	r3, [pc, #8]	; (d89b8 <hal_i2c_peek+0xc>)
   d89b0:	681b      	ldr	r3, [r3, #0]
   d89b2:	6adb      	ldr	r3, [r3, #44]	; 0x2c
   d89b4:	9301      	str	r3, [sp, #4]
   d89b6:	bd08      	pop	{r3, pc}
   d89b8:	00030228 	.word	0x00030228

000d89bc <hal_i2c_flush>:
DYNALIB_FN(BASE_IDX + 12, hal_i2c, hal_i2c_flush, void(hal_i2c_interface_t, void*))
   d89bc:	b508      	push	{r3, lr}
   d89be:	4b02      	ldr	r3, [pc, #8]	; (d89c8 <hal_i2c_flush+0xc>)
   d89c0:	681b      	ldr	r3, [r3, #0]
   d89c2:	6b1b      	ldr	r3, [r3, #48]	; 0x30
   d89c4:	9301      	str	r3, [sp, #4]
   d89c6:	bd08      	pop	{r3, pc}
   d89c8:	00030228 	.word	0x00030228

000d89cc <hal_i2c_is_enabled>:
DYNALIB_FN(BASE_IDX + 13, hal_i2c, hal_i2c_is_enabled, bool(hal_i2c_interface_t, void*))
   d89cc:	b508      	push	{r3, lr}
   d89ce:	4b02      	ldr	r3, [pc, #8]	; (d89d8 <hal_i2c_is_enabled+0xc>)
   d89d0:	681b      	ldr	r3, [r3, #0]
   d89d2:	6b5b      	ldr	r3, [r3, #52]	; 0x34
   d89d4:	9301      	str	r3, [sp, #4]
   d89d6:	bd08      	pop	{r3, pc}
   d89d8:	00030228 	.word	0x00030228

000d89dc <hal_i2c_init>:
DYNALIB_FN(BASE_IDX + 14, hal_i2c, hal_i2c_set_callback_on_received, void(hal_i2c_interface_t, void(*)(int), void*))
DYNALIB_FN(BASE_IDX + 15, hal_i2c, hal_i2c_set_callback_on_requested, void(hal_i2c_interface_t, void(*)(void), void*))
DYNALIB_FN(BASE_IDX + 16, hal_i2c, hal_i2c_init, int(hal_i2c_interface_t, const hal_i2c_config_t*))
   d89dc:	b508      	push	{r3, lr}
   d89de:	4b02      	ldr	r3, [pc, #8]	; (d89e8 <hal_i2c_init+0xc>)
   d89e0:	681b      	ldr	r3, [r3, #0]
   d89e2:	6c1b      	ldr	r3, [r3, #64]	; 0x40
   d89e4:	9301      	str	r3, [sp, #4]
   d89e6:	bd08      	pop	{r3, pc}
   d89e8:	00030228 	.word	0x00030228

000d89ec <hal_i2c_lock>:
DYNALIB_FN(BASE_IDX + 17, hal_i2c, hal_i2c_reset, uint8_t(hal_i2c_interface_t, uint32_t, void*))
DYNALIB_FN(BASE_IDX + 18, hal_i2c, hal_i2c_lock, int32_t(hal_i2c_interface_t, void*))
   d89ec:	b508      	push	{r3, lr}
   d89ee:	4b02      	ldr	r3, [pc, #8]	; (d89f8 <hal_i2c_lock+0xc>)
   d89f0:	681b      	ldr	r3, [r3, #0]
   d89f2:	6c9b      	ldr	r3, [r3, #72]	; 0x48
   d89f4:	9301      	str	r3, [sp, #4]
   d89f6:	bd08      	pop	{r3, pc}
   d89f8:	00030228 	.word	0x00030228

000d89fc <hal_i2c_unlock>:
DYNALIB_FN(BASE_IDX + 19, hal_i2c, hal_i2c_unlock, int32_t(hal_i2c_interface_t, void*))
   d89fc:	b508      	push	{r3, lr}
   d89fe:	4b02      	ldr	r3, [pc, #8]	; (d8a08 <hal_i2c_unlock+0xc>)
   d8a00:	681b      	ldr	r3, [r3, #0]
   d8a02:	6cdb      	ldr	r3, [r3, #76]	; 0x4c
   d8a04:	9301      	str	r3, [sp, #4]
   d8a06:	bd08      	pop	{r3, pc}
   d8a08:	00030228 	.word	0x00030228

000d8a0c <hal_i2c_request_ex>:
DYNALIB_FN(BASE_IDX + 20, hal_i2c, hal_i2c_request_ex, int32_t(hal_i2c_interface_t, const hal_i2c_transmission_config_t*, void*))
   d8a0c:	b508      	push	{r3, lr}
   d8a0e:	4b02      	ldr	r3, [pc, #8]	; (d8a18 <hal_i2c_request_ex+0xc>)
   d8a10:	681b      	ldr	r3, [r3, #0]
   d8a12:	6d1b      	ldr	r3, [r3, #80]	; 0x50
   d8a14:	9301      	str	r3, [sp, #4]
   d8a16:	bd08      	pop	{r3, pc}
   d8a18:	00030228 	.word	0x00030228

000d8a1c <inet_inet_ntop>:
DYNALIB_FN(0, hal_inet, inet_inet_addr, in_addr_t(const char*))
DYNALIB_FN(1, hal_inet, inet_inet_aton, int(const char*, struct in_addr*))
DYNALIB_FN(2, hal_inet, inet_inet_network, in_addr_t(const char*))
DYNALIB_FN(3, hal_inet, inet_inet_ntoa, char*(struct in_addr))
DYNALIB_FN(4, hal_inet, inet_inet_ntoa_r, char*(struct in_addr, char*, socklen_t))
DYNALIB_FN(5, hal_inet, inet_inet_ntop, const char*(int, const void*, char*, socklen_t))
   d8a1c:	b508      	push	{r3, lr}
   d8a1e:	4b02      	ldr	r3, [pc, #8]	; (d8a28 <inet_inet_ntop+0xc>)
   d8a20:	681b      	ldr	r3, [r3, #0]
   d8a22:	695b      	ldr	r3, [r3, #20]
   d8a24:	9301      	str	r3, [sp, #4]
   d8a26:	bd08      	pop	{r3, pc}
   d8a28:	00030264 	.word	0x00030264

000d8a2c <netdb_freeaddrinfo>:

DYNALIB_BEGIN(hal_netdb)

DYNALIB_FN(0, hal_netdb, netdb_gethostbyname, struct hostent*(const char*))
DYNALIB_FN(1, hal_netdb, netdb_gethostbyname_r, int(const char*, struct hostent*, char*, size_t, struct hostent**, int*))
DYNALIB_FN(2, hal_netdb, netdb_freeaddrinfo, void(struct addrinfo*))
   d8a2c:	b508      	push	{r3, lr}
   d8a2e:	4b02      	ldr	r3, [pc, #8]	; (d8a38 <netdb_freeaddrinfo+0xc>)
   d8a30:	681b      	ldr	r3, [r3, #0]
   d8a32:	689b      	ldr	r3, [r3, #8]
   d8a34:	9301      	str	r3, [sp, #4]
   d8a36:	bd08      	pop	{r3, pc}
   d8a38:	00030268 	.word	0x00030268

000d8a3c <netdb_getaddrinfo>:
DYNALIB_FN(3, hal_netdb, netdb_getaddrinfo, int(const char*, const char*, const struct addrinfo*, struct addrinfo**))
   d8a3c:	b508      	push	{r3, lr}
   d8a3e:	4b02      	ldr	r3, [pc, #8]	; (d8a48 <netdb_getaddrinfo+0xc>)
   d8a40:	681b      	ldr	r3, [r3, #0]
   d8a42:	68db      	ldr	r3, [r3, #12]
   d8a44:	9301      	str	r3, [sp, #4]
   d8a46:	bd08      	pop	{r3, pc}
   d8a48:	00030268 	.word	0x00030268

000d8a4c <hal_spi_begin>:
// New HAL functions must be added to the end of this list.
// GNINRAW

DYNALIB_BEGIN(hal_spi)

DYNALIB_FN(0, hal_spi, hal_spi_begin, void(hal_spi_interface_t, uint16_t))
   d8a4c:	b508      	push	{r3, lr}
   d8a4e:	4b02      	ldr	r3, [pc, #8]	; (d8a58 <hal_spi_begin+0xc>)
   d8a50:	681b      	ldr	r3, [r3, #0]
   d8a52:	681b      	ldr	r3, [r3, #0]
   d8a54:	9301      	str	r3, [sp, #4]
   d8a56:	bd08      	pop	{r3, pc}
   d8a58:	00030230 	.word	0x00030230

000d8a5c <hal_spi_end>:
DYNALIB_FN(1, hal_spi, hal_spi_end, void(hal_spi_interface_t))
   d8a5c:	b508      	push	{r3, lr}
   d8a5e:	4b02      	ldr	r3, [pc, #8]	; (d8a68 <hal_spi_end+0xc>)
   d8a60:	681b      	ldr	r3, [r3, #0]
   d8a62:	685b      	ldr	r3, [r3, #4]
   d8a64:	9301      	str	r3, [sp, #4]
   d8a66:	bd08      	pop	{r3, pc}
   d8a68:	00030230 	.word	0x00030230

000d8a6c <hal_spi_transfer>:
DYNALIB_FN(2, hal_spi, hal_spi_set_bit_order, void(hal_spi_interface_t, uint8_t))
DYNALIB_FN(3, hal_spi, hal_spi_set_data_mode, void(hal_spi_interface_t, uint8_t))
DYNALIB_FN(4, hal_spi, hal_spi_set_clock_divider, void(hal_spi_interface_t, uint8_t))
DYNALIB_FN(5, hal_spi, hal_spi_transfer, uint16_t(hal_spi_interface_t, uint16_t))
   d8a6c:	b508      	push	{r3, lr}
   d8a6e:	4b02      	ldr	r3, [pc, #8]	; (d8a78 <hal_spi_transfer+0xc>)
   d8a70:	681b      	ldr	r3, [r3, #0]
   d8a72:	695b      	ldr	r3, [r3, #20]
   d8a74:	9301      	str	r3, [sp, #4]
   d8a76:	bd08      	pop	{r3, pc}
   d8a78:	00030230 	.word	0x00030230

000d8a7c <hal_spi_init>:
DYNALIB_FN(6, hal_spi, hal_spi_is_enabled_deprecated, bool(void))
DYNALIB_FN(7, hal_spi, hal_spi_init, void(hal_spi_interface_t))
   d8a7c:	b508      	push	{r3, lr}
   d8a7e:	4b02      	ldr	r3, [pc, #8]	; (d8a88 <hal_spi_init+0xc>)
   d8a80:	681b      	ldr	r3, [r3, #0]
   d8a82:	69db      	ldr	r3, [r3, #28]
   d8a84:	9301      	str	r3, [sp, #4]
   d8a86:	bd08      	pop	{r3, pc}
   d8a88:	00030230 	.word	0x00030230

000d8a8c <hal_spi_is_enabled>:
DYNALIB_FN(8, hal_spi, hal_spi_is_enabled, bool(hal_spi_interface_t))
   d8a8c:	b508      	push	{r3, lr}
   d8a8e:	4b02      	ldr	r3, [pc, #8]	; (d8a98 <hal_spi_is_enabled+0xc>)
   d8a90:	681b      	ldr	r3, [r3, #0]
   d8a92:	6a1b      	ldr	r3, [r3, #32]
   d8a94:	9301      	str	r3, [sp, #4]
   d8a96:	bd08      	pop	{r3, pc}
   d8a98:	00030230 	.word	0x00030230

000d8a9c <hal_spi_info>:
DYNALIB_FN(9, hal_spi, hal_spi_info, void(hal_spi_interface_t, hal_spi_info_t*, void*))
   d8a9c:	b508      	push	{r3, lr}
   d8a9e:	4b02      	ldr	r3, [pc, #8]	; (d8aa8 <hal_spi_info+0xc>)
   d8aa0:	681b      	ldr	r3, [r3, #0]
   d8aa2:	6a5b      	ldr	r3, [r3, #36]	; 0x24
   d8aa4:	9301      	str	r3, [sp, #4]
   d8aa6:	bd08      	pop	{r3, pc}
   d8aa8:	00030230 	.word	0x00030230

000d8aac <hal_spi_set_settings>:
DYNALIB_FN(10, hal_spi, hal_spi_transfer_dma, void(hal_spi_interface_t, void*, void*, uint32_t, hal_spi_dma_user_callback))
DYNALIB_FN(11, hal_spi, hal_spi_begin_ext, void(hal_spi_interface_t, hal_spi_mode_t, uint16_t, void*))
DYNALIB_FN(12, hal_spi, hal_spi_set_callback_on_selected, void(hal_spi_interface_t, hal_spi_select_user_callback, void*))
DYNALIB_FN(13, hal_spi, hal_spi_transfer_dma_cancel, void(hal_spi_interface_t))
DYNALIB_FN(14, hal_spi, hal_spi_transfer_dma_status, int32_t(hal_spi_interface_t, hal_spi_transfer_status_t*))
DYNALIB_FN(15, hal_spi, hal_spi_set_settings, int32_t(hal_spi_interface_t, uint8_t, uint8_t, uint8_t, uint8_t, void*))
   d8aac:	b508      	push	{r3, lr}
   d8aae:	4b02      	ldr	r3, [pc, #8]	; (d8ab8 <hal_spi_set_settings+0xc>)
   d8ab0:	681b      	ldr	r3, [r3, #0]
   d8ab2:	6bdb      	ldr	r3, [r3, #60]	; 0x3c
   d8ab4:	9301      	str	r3, [sp, #4]
   d8ab6:	bd08      	pop	{r3, pc}
   d8ab8:	00030230 	.word	0x00030230

000d8abc <hal_spi_acquire>:
#if HAL_PLATFORM_SPI_HAL_THREAD_SAFETY
DYNALIB_FN(16, hal_spi, hal_spi_acquire, int32_t(hal_spi_interface_t, const hal_spi_acquire_config_t*))
   d8abc:	b508      	push	{r3, lr}
   d8abe:	4b02      	ldr	r3, [pc, #8]	; (d8ac8 <hal_spi_acquire+0xc>)
   d8ac0:	681b      	ldr	r3, [r3, #0]
   d8ac2:	6c1b      	ldr	r3, [r3, #64]	; 0x40
   d8ac4:	9301      	str	r3, [sp, #4]
   d8ac6:	bd08      	pop	{r3, pc}
   d8ac8:	00030230 	.word	0x00030230

000d8acc <hal_spi_release>:
DYNALIB_FN(17, hal_spi, hal_spi_release, int32_t(hal_spi_interface_t, void*))
   d8acc:	b508      	push	{r3, lr}
   d8ace:	4b02      	ldr	r3, [pc, #8]	; (d8ad8 <hal_spi_release+0xc>)
   d8ad0:	681b      	ldr	r3, [r3, #0]
   d8ad2:	6c5b      	ldr	r3, [r3, #68]	; 0x44
   d8ad4:	9301      	str	r3, [sp, #4]
   d8ad6:	bd08      	pop	{r3, pc}
   d8ad8:	00030230 	.word	0x00030230

000d8adc <hal_usart_init>:
#define BASE_IDX 6 // Base index for all subsequent functions
#else
#define BASE_IDX 0
#endif

DYNALIB_FN(BASE_IDX + 0, hal_usart, hal_usart_init, void(hal_usart_interface_t, hal_usart_ring_buffer_t*, hal_usart_ring_buffer_t*))
   d8adc:	b508      	push	{r3, lr}
   d8ade:	4b02      	ldr	r3, [pc, #8]	; (d8ae8 <hal_usart_init+0xc>)
   d8ae0:	681b      	ldr	r3, [r3, #0]
   d8ae2:	681b      	ldr	r3, [r3, #0]
   d8ae4:	9301      	str	r3, [sp, #4]
   d8ae6:	bd08      	pop	{r3, pc}
   d8ae8:	0003023c 	.word	0x0003023c

000d8aec <hal_usart_end>:
DYNALIB_FN(BASE_IDX + 1, hal_usart, hal_usart_begin, void(hal_usart_interface_t, uint32_t))
DYNALIB_FN(BASE_IDX + 2, hal_usart, hal_usart_end, void(hal_usart_interface_t))
   d8aec:	b508      	push	{r3, lr}
   d8aee:	4b02      	ldr	r3, [pc, #8]	; (d8af8 <hal_usart_end+0xc>)
   d8af0:	681b      	ldr	r3, [r3, #0]
   d8af2:	689b      	ldr	r3, [r3, #8]
   d8af4:	9301      	str	r3, [sp, #4]
   d8af6:	bd08      	pop	{r3, pc}
   d8af8:	0003023c 	.word	0x0003023c

000d8afc <hal_usart_write>:
DYNALIB_FN(BASE_IDX + 3, hal_usart, hal_usart_write, uint32_t(hal_usart_interface_t, uint8_t))
   d8afc:	b508      	push	{r3, lr}
   d8afe:	4b02      	ldr	r3, [pc, #8]	; (d8b08 <hal_usart_write+0xc>)
   d8b00:	681b      	ldr	r3, [r3, #0]
   d8b02:	68db      	ldr	r3, [r3, #12]
   d8b04:	9301      	str	r3, [sp, #4]
   d8b06:	bd08      	pop	{r3, pc}
   d8b08:	0003023c 	.word	0x0003023c

000d8b0c <hal_usart_available>:
DYNALIB_FN(BASE_IDX + 4, hal_usart, hal_usart_available, int32_t(hal_usart_interface_t))
   d8b0c:	b508      	push	{r3, lr}
   d8b0e:	4b02      	ldr	r3, [pc, #8]	; (d8b18 <hal_usart_available+0xc>)
   d8b10:	681b      	ldr	r3, [r3, #0]
   d8b12:	691b      	ldr	r3, [r3, #16]
   d8b14:	9301      	str	r3, [sp, #4]
   d8b16:	bd08      	pop	{r3, pc}
   d8b18:	0003023c 	.word	0x0003023c

000d8b1c <hal_usart_read>:
DYNALIB_FN(BASE_IDX + 5, hal_usart, hal_usart_read, int32_t(hal_usart_interface_t))
   d8b1c:	b508      	push	{r3, lr}
   d8b1e:	4b02      	ldr	r3, [pc, #8]	; (d8b28 <hal_usart_read+0xc>)
   d8b20:	681b      	ldr	r3, [r3, #0]
   d8b22:	695b      	ldr	r3, [r3, #20]
   d8b24:	9301      	str	r3, [sp, #4]
   d8b26:	bd08      	pop	{r3, pc}
   d8b28:	0003023c 	.word	0x0003023c

000d8b2c <hal_usart_peek>:
DYNALIB_FN(BASE_IDX + 6, hal_usart, hal_usart_peek, int32_t(hal_usart_interface_t))
   d8b2c:	b508      	push	{r3, lr}
   d8b2e:	4b02      	ldr	r3, [pc, #8]	; (d8b38 <hal_usart_peek+0xc>)
   d8b30:	681b      	ldr	r3, [r3, #0]
   d8b32:	699b      	ldr	r3, [r3, #24]
   d8b34:	9301      	str	r3, [sp, #4]
   d8b36:	bd08      	pop	{r3, pc}
   d8b38:	0003023c 	.word	0x0003023c

000d8b3c <hal_usart_flush>:
DYNALIB_FN(BASE_IDX + 7, hal_usart, hal_usart_flush, void(hal_usart_interface_t))
   d8b3c:	b508      	push	{r3, lr}
   d8b3e:	4b02      	ldr	r3, [pc, #8]	; (d8b48 <hal_usart_flush+0xc>)
   d8b40:	681b      	ldr	r3, [r3, #0]
   d8b42:	69db      	ldr	r3, [r3, #28]
   d8b44:	9301      	str	r3, [sp, #4]
   d8b46:	bd08      	pop	{r3, pc}
   d8b48:	0003023c 	.word	0x0003023c

000d8b4c <hal_usart_is_enabled>:
DYNALIB_FN(BASE_IDX + 8, hal_usart, hal_usart_is_enabled, bool(hal_usart_interface_t))
   d8b4c:	b508      	push	{r3, lr}
   d8b4e:	4b02      	ldr	r3, [pc, #8]	; (d8b58 <hal_usart_is_enabled+0xc>)
   d8b50:	681b      	ldr	r3, [r3, #0]
   d8b52:	6a1b      	ldr	r3, [r3, #32]
   d8b54:	9301      	str	r3, [sp, #4]
   d8b56:	bd08      	pop	{r3, pc}
   d8b58:	0003023c 	.word	0x0003023c

000d8b5c <hal_usart_available_data_for_write>:
DYNALIB_FN(BASE_IDX + 9, hal_usart, hal_usart_half_duplex, void(hal_usart_interface_t, bool))
DYNALIB_FN(BASE_IDX + 10, hal_usart, hal_usart_available_data_for_write, int32_t(hal_usart_interface_t))
   d8b5c:	b508      	push	{r3, lr}
   d8b5e:	4b02      	ldr	r3, [pc, #8]	; (d8b68 <hal_usart_available_data_for_write+0xc>)
   d8b60:	681b      	ldr	r3, [r3, #0]
   d8b62:	6a9b      	ldr	r3, [r3, #40]	; 0x28
   d8b64:	9301      	str	r3, [sp, #4]
   d8b66:	bd08      	pop	{r3, pc}
   d8b68:	0003023c 	.word	0x0003023c

000d8b6c <hal_usart_begin_config>:
#define BASE_IDX2 (BASE_IDX+13)
#else
#define BASE_IDX2 (BASE_IDX+11)
#endif

DYNALIB_FN(BASE_IDX2 + 0, hal_usart, hal_usart_begin_config, void(hal_usart_interface_t serial, uint32_t baud, uint32_t config, void *ptr))
   d8b6c:	b508      	push	{r3, lr}
   d8b6e:	4b02      	ldr	r3, [pc, #8]	; (d8b78 <hal_usart_begin_config+0xc>)
   d8b70:	681b      	ldr	r3, [r3, #0]
   d8b72:	6adb      	ldr	r3, [r3, #44]	; 0x2c
   d8b74:	9301      	str	r3, [sp, #4]
   d8b76:	bd08      	pop	{r3, pc}
   d8b78:	0003023c 	.word	0x0003023c

000d8b7c <HAL_USB_USART_Init>:
#endif

DYNALIB_BEGIN(hal_usb)

#ifdef USB_CDC_ENABLE
DYNALIB_FN(0, hal_usb, HAL_USB_USART_Init, void(HAL_USB_USART_Serial, const HAL_USB_USART_Config*))
   d8b7c:	b508      	push	{r3, lr}
   d8b7e:	4b02      	ldr	r3, [pc, #8]	; (d8b88 <HAL_USB_USART_Init+0xc>)
   d8b80:	681b      	ldr	r3, [r3, #0]
   d8b82:	681b      	ldr	r3, [r3, #0]
   d8b84:	9301      	str	r3, [sp, #4]
   d8b86:	bd08      	pop	{r3, pc}
   d8b88:	0003024c 	.word	0x0003024c

000d8b8c <HAL_USB_USART_Begin>:
DYNALIB_FN(1, hal_usb, HAL_USB_USART_Begin, void(HAL_USB_USART_Serial, uint32_t, void *))
   d8b8c:	b508      	push	{r3, lr}
   d8b8e:	4b02      	ldr	r3, [pc, #8]	; (d8b98 <HAL_USB_USART_Begin+0xc>)
   d8b90:	681b      	ldr	r3, [r3, #0]
   d8b92:	685b      	ldr	r3, [r3, #4]
   d8b94:	9301      	str	r3, [sp, #4]
   d8b96:	bd08      	pop	{r3, pc}
   d8b98:	0003024c 	.word	0x0003024c

000d8b9c <HAL_USB_USART_End>:
DYNALIB_FN(2, hal_usb, HAL_USB_USART_End, void(HAL_USB_USART_Serial))
   d8b9c:	b508      	push	{r3, lr}
   d8b9e:	4b02      	ldr	r3, [pc, #8]	; (d8ba8 <HAL_USB_USART_End+0xc>)
   d8ba0:	681b      	ldr	r3, [r3, #0]
   d8ba2:	689b      	ldr	r3, [r3, #8]
   d8ba4:	9301      	str	r3, [sp, #4]
   d8ba6:	bd08      	pop	{r3, pc}
   d8ba8:	0003024c 	.word	0x0003024c

000d8bac <HAL_USB_USART_Available_Data>:
DYNALIB_FN(3, hal_usb, HAL_USB_USART_Baud_Rate, unsigned int(HAL_USB_USART_Serial))
DYNALIB_FN(4, hal_usb, HAL_USB_USART_Available_Data, int32_t(HAL_USB_USART_Serial))
   d8bac:	b508      	push	{r3, lr}
   d8bae:	4b02      	ldr	r3, [pc, #8]	; (d8bb8 <HAL_USB_USART_Available_Data+0xc>)
   d8bb0:	681b      	ldr	r3, [r3, #0]
   d8bb2:	691b      	ldr	r3, [r3, #16]
   d8bb4:	9301      	str	r3, [sp, #4]
   d8bb6:	bd08      	pop	{r3, pc}
   d8bb8:	0003024c 	.word	0x0003024c

000d8bbc <HAL_USB_USART_Available_Data_For_Write>:
DYNALIB_FN(5, hal_usb, HAL_USB_USART_Available_Data_For_Write, int32_t(HAL_USB_USART_Serial))
   d8bbc:	b508      	push	{r3, lr}
   d8bbe:	4b02      	ldr	r3, [pc, #8]	; (d8bc8 <HAL_USB_USART_Available_Data_For_Write+0xc>)
   d8bc0:	681b      	ldr	r3, [r3, #0]
   d8bc2:	695b      	ldr	r3, [r3, #20]
   d8bc4:	9301      	str	r3, [sp, #4]
   d8bc6:	bd08      	pop	{r3, pc}
   d8bc8:	0003024c 	.word	0x0003024c

000d8bcc <HAL_USB_USART_Receive_Data>:
DYNALIB_FN(6, hal_usb, HAL_USB_USART_Receive_Data, int32_t(HAL_USB_USART_Serial, uint8_t))
   d8bcc:	b508      	push	{r3, lr}
   d8bce:	4b02      	ldr	r3, [pc, #8]	; (d8bd8 <HAL_USB_USART_Receive_Data+0xc>)
   d8bd0:	681b      	ldr	r3, [r3, #0]
   d8bd2:	699b      	ldr	r3, [r3, #24]
   d8bd4:	9301      	str	r3, [sp, #4]
   d8bd6:	bd08      	pop	{r3, pc}
   d8bd8:	0003024c 	.word	0x0003024c

000d8bdc <HAL_USB_USART_Send_Data>:
DYNALIB_FN(7, hal_usb, HAL_USB_USART_Send_Data, int32_t(HAL_USB_USART_Serial, uint8_t))
   d8bdc:	b508      	push	{r3, lr}
   d8bde:	4b02      	ldr	r3, [pc, #8]	; (d8be8 <HAL_USB_USART_Send_Data+0xc>)
   d8be0:	681b      	ldr	r3, [r3, #0]
   d8be2:	69db      	ldr	r3, [r3, #28]
   d8be4:	9301      	str	r3, [sp, #4]
   d8be6:	bd08      	pop	{r3, pc}
   d8be8:	0003024c 	.word	0x0003024c

000d8bec <HAL_USB_USART_Flush_Data>:
DYNALIB_FN(8, hal_usb, HAL_USB_USART_Flush_Data, void(HAL_USB_USART_Serial))
   d8bec:	b508      	push	{r3, lr}
   d8bee:	4b02      	ldr	r3, [pc, #8]	; (d8bf8 <HAL_USB_USART_Flush_Data+0xc>)
   d8bf0:	681b      	ldr	r3, [r3, #0]
   d8bf2:	6a1b      	ldr	r3, [r3, #32]
   d8bf4:	9301      	str	r3, [sp, #4]
   d8bf6:	bd08      	pop	{r3, pc}
   d8bf8:	0003024c 	.word	0x0003024c

000d8bfc <panic_>:
DYNALIB_FN(9, services, LED_Toggle, void(Led_TypeDef))
DYNALIB_FN(10, services, LED_Fade, void(Led_TypeDef))
DYNALIB_FN(11, services, Get_LED_Brightness, uint8_t(void))

DYNALIB_FN(12, services, set_logger_output, void(debug_output_fn, LoggerOutputLevel)) // Deprecated
DYNALIB_FN(13, services, panic_, void(ePanicCode, void*, void(*)(uint32_t)))
   d8bfc:	b508      	push	{r3, lr}
   d8bfe:	4b02      	ldr	r3, [pc, #8]	; (d8c08 <panic_+0xc>)
   d8c00:	681b      	ldr	r3, [r3, #0]
   d8c02:	6b5b      	ldr	r3, [r3, #52]	; 0x34
   d8c04:	9301      	str	r3, [sp, #4]
   d8c06:	bd08      	pop	{r3, pc}
   d8c08:	00030260 	.word	0x00030260

000d8c0c <log_message>:
DYNALIB_FN(16, services, log_print_, void(int, int, const char*, const char*, const char*, ...)) // Deprecated
DYNALIB_FN(17, services, LED_RGB_SetChangeHandler, void(led_update_handler_fn, void*))
DYNALIB_FN(18, services, log_print_direct_, void(int, void*, const char*, ...)) // Deprecated
DYNALIB_FN(19, services, LED_GetColor, uint32_t(uint32_t, void*))

DYNALIB_FN(20, services, log_message, void(int, const char*, LogAttributes*, void*, const char*, ...))
   d8c0c:	b508      	push	{r3, lr}
   d8c0e:	4b02      	ldr	r3, [pc, #8]	; (d8c18 <log_message+0xc>)
   d8c10:	681b      	ldr	r3, [r3, #0]
   d8c12:	6d1b      	ldr	r3, [r3, #80]	; 0x50
   d8c14:	9301      	str	r3, [sp, #4]
   d8c16:	bd08      	pop	{r3, pc}
   d8c18:	00030260 	.word	0x00030260

000d8c1c <log_message_v>:
DYNALIB_FN(21, services, log_message_v, void(int, const char*, LogAttributes*, void*, const char*, va_list))
   d8c1c:	b508      	push	{r3, lr}
   d8c1e:	4b02      	ldr	r3, [pc, #8]	; (d8c28 <log_message_v+0xc>)
   d8c20:	681b      	ldr	r3, [r3, #0]
   d8c22:	6d5b      	ldr	r3, [r3, #84]	; 0x54
   d8c24:	9301      	str	r3, [sp, #4]
   d8c26:	bd08      	pop	{r3, pc}
   d8c28:	00030260 	.word	0x00030260

000d8c2c <log_level_name>:
DYNALIB_FN(22, services, log_write, void(int, const char*, const char*, size_t, void*))
DYNALIB_FN(23, services, log_printf, void(int, const char*, void*, const char*, ...))
DYNALIB_FN(24, services, log_printf_v, void(int, const char*, void*, const char*, va_list))
DYNALIB_FN(25, services, log_dump, void(int, const char*, const void*, size_t, int, void*))
DYNALIB_FN(26, services, log_enabled, int(int, const char*, void*))
DYNALIB_FN(27, services, log_level_name, const char*(int, void*))
   d8c2c:	b508      	push	{r3, lr}
   d8c2e:	4b02      	ldr	r3, [pc, #8]	; (d8c38 <log_level_name+0xc>)
   d8c30:	681b      	ldr	r3, [r3, #0]
   d8c32:	6edb      	ldr	r3, [r3, #108]	; 0x6c
   d8c34:	9301      	str	r3, [sp, #4]
   d8c36:	bd08      	pop	{r3, pc}
   d8c38:	00030260 	.word	0x00030260

000d8c3c <log_set_callbacks>:
DYNALIB_FN(28, services, log_set_callbacks, void(log_message_callback_type, log_write_callback_type, log_enabled_callback_type, void*))
   d8c3c:	b508      	push	{r3, lr}
   d8c3e:	4b02      	ldr	r3, [pc, #8]	; (d8c48 <log_set_callbacks+0xc>)
   d8c40:	681b      	ldr	r3, [r3, #0]
   d8c42:	6f1b      	ldr	r3, [r3, #112]	; 0x70
   d8c44:	9301      	str	r3, [sp, #4]
   d8c46:	bd08      	pop	{r3, pc}
   d8c48:	00030260 	.word	0x00030260

000d8c4c <diag_get_source>:
DYNALIB_FN(34, services, led_update_enabled, int(void*))
DYNALIB_FN(35, services, led_update, void(system_tick_t, LEDStatusData*, void*))

DYNALIB_FN(36, services, diag_register_source, int(const diag_source*, void*))
DYNALIB_FN(37, services, diag_enum_sources, int(diag_enum_sources_callback, size_t*, void*, void*))
DYNALIB_FN(38, services, diag_get_source, int(uint16_t, const diag_source**, void*))
   d8c4c:	b508      	push	{r3, lr}
   d8c4e:	4b03      	ldr	r3, [pc, #12]	; (d8c5c <diag_get_source+0x10>)
   d8c50:	681b      	ldr	r3, [r3, #0]
   d8c52:	f8d3 3098 	ldr.w	r3, [r3, #152]	; 0x98
   d8c56:	9301      	str	r3, [sp, #4]
   d8c58:	bd08      	pop	{r3, pc}
   d8c5a:	0000      	.short	0x0000
   d8c5c:	00030260 	.word	0x00030260

000d8c60 <system_mode>:
#include "system_power.h"
#endif

DYNALIB_BEGIN(system)

DYNALIB_FN(0, system, system_mode, System_Mode_TypeDef(void))
   d8c60:	b508      	push	{r3, lr}
   d8c62:	4b02      	ldr	r3, [pc, #8]	; (d8c6c <system_mode+0xc>)
   d8c64:	681b      	ldr	r3, [r3, #0]
   d8c66:	681b      	ldr	r3, [r3, #0]
   d8c68:	9301      	str	r3, [sp, #4]
   d8c6a:	bd08      	pop	{r3, pc}
   d8c6c:	00030220 	.word	0x00030220

000d8c70 <set_system_mode>:
DYNALIB_FN(1, system, set_system_mode, void(System_Mode_TypeDef))
   d8c70:	b508      	push	{r3, lr}
   d8c72:	4b02      	ldr	r3, [pc, #8]	; (d8c7c <set_system_mode+0xc>)
   d8c74:	681b      	ldr	r3, [r3, #0]
   d8c76:	685b      	ldr	r3, [r3, #4]
   d8c78:	9301      	str	r3, [sp, #4]
   d8c7a:	bd08      	pop	{r3, pc}
   d8c7c:	00030220 	.word	0x00030220

000d8c80 <system_delay_ms>:

DYNALIB_FN(2, system, set_ymodem_serial_flash_update_handler, void(ymodem_serial_flash_update_handler))
DYNALIB_FN(3, system, system_firmwareUpdate, bool(Stream*, void*))
DYNALIB_FN(4, system, system_fileTransfer, bool(system_file_transfer_t*, void*))

DYNALIB_FN(5, system, system_delay_ms, void(unsigned long, bool))
   d8c80:	b508      	push	{r3, lr}
   d8c82:	4b02      	ldr	r3, [pc, #8]	; (d8c8c <system_delay_ms+0xc>)
   d8c84:	681b      	ldr	r3, [r3, #0]
   d8c86:	695b      	ldr	r3, [r3, #20]
   d8c88:	9301      	str	r3, [sp, #4]
   d8c8a:	bd08      	pop	{r3, pc}
   d8c8c:	00030220 	.word	0x00030220

000d8c90 <system_subscribe_event>:
DYNALIB_FN(6, system, system_sleep, int(Spark_Sleep_TypeDef, long, uint32_t, void*))
DYNALIB_FN(7, system, system_sleep_pin, int(uint16_t, uint16_t, long, uint32_t, void*))
DYNALIB_FN(8, system, system_subscribe_event, int(system_event_t, system_event_handler_t*, void*))
   d8c90:	b508      	push	{r3, lr}
   d8c92:	4b02      	ldr	r3, [pc, #8]	; (d8c9c <system_subscribe_event+0xc>)
   d8c94:	681b      	ldr	r3, [r3, #0]
   d8c96:	6a1b      	ldr	r3, [r3, #32]
   d8c98:	9301      	str	r3, [sp, #4]
   d8c9a:	bd08      	pop	{r3, pc}
   d8c9c:	00030220 	.word	0x00030220

000d8ca0 <system_thread_set_state>:
DYNALIB_FN(9, system, system_unsubscribe_event, void(system_event_t, system_event_handler_t*, void*))
DYNALIB_FN(10, system, system_button_pushed_duration, uint16_t(uint8_t, void*))
DYNALIB_FN(11, system, system_thread_set_state, void(spark::feature::State, void*))
   d8ca0:	b508      	push	{r3, lr}
   d8ca2:	4b02      	ldr	r3, [pc, #8]	; (d8cac <system_thread_set_state+0xc>)
   d8ca4:	681b      	ldr	r3, [r3, #0]
   d8ca6:	6adb      	ldr	r3, [r3, #44]	; 0x2c
   d8ca8:	9301      	str	r3, [sp, #4]
   d8caa:	bd08      	pop	{r3, pc}
   d8cac:	00030220 	.word	0x00030220

000d8cb0 <application_thread_current>:
DYNALIB_FN(15, system, system_get_flag, int(system_flag_t, uint8_t*, void*))
DYNALIB_FN(16, system, Spark_Prepare_For_Firmware_Update, int(FileTransfer::Descriptor&, uint32_t, void*))
DYNALIB_FN(17, system, Spark_Save_Firmware_Chunk, int(FileTransfer::Descriptor&, const uint8_t*, void*))
DYNALIB_FN(18, system, Spark_Finish_Firmware_Update, int(FileTransfer::Descriptor&, uint32_t, void*))

DYNALIB_FN(19, system, application_thread_current, uint8_t(void*))
   d8cb0:	b508      	push	{r3, lr}
   d8cb2:	4b02      	ldr	r3, [pc, #8]	; (d8cbc <application_thread_current+0xc>)
   d8cb4:	681b      	ldr	r3, [r3, #0]
   d8cb6:	6cdb      	ldr	r3, [r3, #76]	; 0x4c
   d8cb8:	9301      	str	r3, [sp, #4]
   d8cba:	bd08      	pop	{r3, pc}
   d8cbc:	00030220 	.word	0x00030220

000d8cc0 <application_thread_invoke>:
DYNALIB_FN(20, system, system_thread_current, uint8_t(void*))
DYNALIB_FN(21, system, application_thread_invoke, uint8_t(void(*)(void*), void*, void*))
   d8cc0:	b508      	push	{r3, lr}
   d8cc2:	4b02      	ldr	r3, [pc, #8]	; (d8ccc <application_thread_invoke+0xc>)
   d8cc4:	681b      	ldr	r3, [r3, #0]
   d8cc6:	6d5b      	ldr	r3, [r3, #84]	; 0x54
   d8cc8:	9301      	str	r3, [sp, #4]
   d8cca:	bd08      	pop	{r3, pc}
   d8ccc:	00030220 	.word	0x00030220

000d8cd0 <system_thread_get_state>:
DYNALIB_FN(22, system, system_thread_get_state, spark::feature::State(void*))
   d8cd0:	b508      	push	{r3, lr}
   d8cd2:	4b02      	ldr	r3, [pc, #8]	; (d8cdc <system_thread_get_state+0xc>)
   d8cd4:	681b      	ldr	r3, [r3, #0]
   d8cd6:	6d9b      	ldr	r3, [r3, #88]	; 0x58
   d8cd8:	9301      	str	r3, [sp, #4]
   d8cda:	bd08      	pop	{r3, pc}
   d8cdc:	00030220 	.word	0x00030220

000d8ce0 <system_notify_time_changed>:
DYNALIB_FN(23, system, system_notify_time_changed, void(uint32_t, void*, void*))
   d8ce0:	b508      	push	{r3, lr}
   d8ce2:	4b02      	ldr	r3, [pc, #8]	; (d8cec <system_notify_time_changed+0xc>)
   d8ce4:	681b      	ldr	r3, [r3, #0]
   d8ce6:	6ddb      	ldr	r3, [r3, #92]	; 0x5c
   d8ce8:	9301      	str	r3, [sp, #4]
   d8cea:	bd08      	pop	{r3, pc}
   d8cec:	00030220 	.word	0x00030220

000d8cf0 <system_ctrl_set_app_request_handler>:
DYNALIB_FN(BASE_IDX + 6, system, led_pattern_period, uint16_t(int, int, void*))
DYNALIB_FN(BASE_IDX + 7, system, system_set_tester_handlers, int(system_tester_handlers_t*, void*))
DYNALIB_FN(BASE_IDX + 8, system, system_format_diag_data, int(const uint16_t*, size_t, unsigned, appender_fn, void*, void*))

// Control requests
DYNALIB_FN(BASE_IDX + 9, system, system_ctrl_set_app_request_handler, int(ctrl_request_handler_fn, void*))
   d8cf0:	b508      	push	{r3, lr}
   d8cf2:	4b03      	ldr	r3, [pc, #12]	; (d8d00 <system_ctrl_set_app_request_handler+0x10>)
   d8cf4:	681b      	ldr	r3, [r3, #0]
   d8cf6:	f8d3 3088 	ldr.w	r3, [r3, #136]	; 0x88
   d8cfa:	9301      	str	r3, [sp, #4]
   d8cfc:	bd08      	pop	{r3, pc}
   d8cfe:	0000      	.short	0x0000
   d8d00:	00030220 	.word	0x00030220

000d8d04 <system_ctrl_set_result>:
DYNALIB_FN(BASE_IDX + 10, system, system_ctrl_alloc_reply_data, int(ctrl_request*, size_t, void*))
DYNALIB_FN(BASE_IDX + 11, system, system_ctrl_free_request_data, void(ctrl_request*, void*))
DYNALIB_FN(BASE_IDX + 12, system, system_ctrl_set_result, void(ctrl_request*, int, ctrl_completion_handler_fn, void*, void*))
   d8d04:	b508      	push	{r3, lr}
   d8d06:	4b03      	ldr	r3, [pc, #12]	; (d8d14 <system_ctrl_set_result+0x10>)
   d8d08:	681b      	ldr	r3, [r3, #0]
   d8d0a:	f8d3 3094 	ldr.w	r3, [r3, #148]	; 0x94
   d8d0e:	9301      	str	r3, [sp, #4]
   d8d10:	bd08      	pop	{r3, pc}
   d8d12:	0000      	.short	0x0000
   d8d14:	00030220 	.word	0x00030220

000d8d18 <system_power_management_set_config>:
DYNALIB_FN(BASE_IDX + 14, system, system_pool_free, void(void*, void*))
DYNALIB_FN(BASE_IDX + 15, system, system_sleep_pins, int(const uint16_t*, size_t, const InterruptMode*, size_t, long, uint32_t, void*))
DYNALIB_FN(BASE_IDX + 16, system, system_invoke_event_handler, int(uint16_t handlerInfoSize, FilteringEventHandler* handlerInfo, const char* event_name, const char* event_data, void* reserved))

#if HAL_PLATFORM_POWER_MANAGEMENT
DYNALIB_FN(BASE_IDX + 17, system, system_power_management_set_config, int(const hal_power_config*, void*))
   d8d18:	b508      	push	{r3, lr}
   d8d1a:	4b03      	ldr	r3, [pc, #12]	; (d8d28 <system_power_management_set_config+0x10>)
   d8d1c:	681b      	ldr	r3, [r3, #0]
   d8d1e:	f8d3 30a8 	ldr.w	r3, [r3, #168]	; 0xa8
   d8d22:	9301      	str	r3, [sp, #4]
   d8d24:	bd08      	pop	{r3, pc}
   d8d26:	0000      	.short	0x0000
   d8d28:	00030220 	.word	0x00030220

000d8d2c <system_sleep_ext>:
#define BASE_IDX1 (BASE_IDX + 18)
#else
#define BASE_IDX1 (BASE_IDX + 17)
#endif // HAL_PLATFORM_POWER_MANAGEMENT

DYNALIB_FN(BASE_IDX1 + 0, system, system_sleep_ext, int(const hal_sleep_config_t*, hal_wakeup_source_base_t**, void*))
   d8d2c:	b508      	push	{r3, lr}
   d8d2e:	4b03      	ldr	r3, [pc, #12]	; (d8d3c <system_sleep_ext+0x10>)
   d8d30:	681b      	ldr	r3, [r3, #0]
   d8d32:	f8d3 30ac 	ldr.w	r3, [r3, #172]	; 0xac
   d8d36:	9301      	str	r3, [sp, #4]
   d8d38:	bd08      	pop	{r3, pc}
   d8d3a:	0000      	.short	0x0000
   d8d3c:	00030220 	.word	0x00030220

000d8d40 <spark_process>:

DYNALIB_BEGIN(system_cloud)

DYNALIB_FN(0, system_cloud, spark_variable, bool(const char*, const void*, Spark_Data_TypeDef, spark_variable_t*))
DYNALIB_FN(1, system_cloud, spark_function, bool(const char*, p_user_function_int_str_t, void*))
DYNALIB_FN(2, system_cloud, spark_process, void(void))
   d8d40:	b508      	push	{r3, lr}
   d8d42:	4b02      	ldr	r3, [pc, #8]	; (d8d4c <spark_process+0xc>)
   d8d44:	681b      	ldr	r3, [r3, #0]
   d8d46:	689b      	ldr	r3, [r3, #8]
   d8d48:	9301      	str	r3, [sp, #4]
   d8d4a:	bd08      	pop	{r3, pc}
   d8d4c:	00030244 	.word	0x00030244

000d8d50 <spark_cloud_flag_connected>:
DYNALIB_FN(3, system_cloud, spark_cloud_flag_connect, void(void))
DYNALIB_FN(4, system_cloud, spark_cloud_flag_disconnect, void(void))
DYNALIB_FN(5, system_cloud, spark_cloud_flag_connected, bool(void))
   d8d50:	b508      	push	{r3, lr}
   d8d52:	4b02      	ldr	r3, [pc, #8]	; (d8d5c <spark_cloud_flag_connected+0xc>)
   d8d54:	681b      	ldr	r3, [r3, #0]
   d8d56:	695b      	ldr	r3, [r3, #20]
   d8d58:	9301      	str	r3, [sp, #4]
   d8d5a:	bd08      	pop	{r3, pc}
   d8d5c:	00030244 	.word	0x00030244

000d8d60 <spark_send_event>:
DYNALIB_FN(6, system_cloud, system_cloud_protocol_instance, ProtocolFacade*(void))
DYNALIB_FN(7, system_cloud, spark_deviceID, String(void))
DYNALIB_FN(8, system_cloud, spark_send_event, bool(const char*, const char*, int, uint32_t, void*))
   d8d60:	b508      	push	{r3, lr}
   d8d62:	4b02      	ldr	r3, [pc, #8]	; (d8d6c <spark_send_event+0xc>)
   d8d64:	681b      	ldr	r3, [r3, #0]
   d8d66:	6a1b      	ldr	r3, [r3, #32]
   d8d68:	9301      	str	r3, [sp, #4]
   d8d6a:	bd08      	pop	{r3, pc}
   d8d6c:	00030244 	.word	0x00030244

000d8d70 <spark_sync_time_pending>:
DYNALIB_FN(9, system_cloud, spark_subscribe, bool(const char*, EventHandler, void*, Spark_Subscription_Scope_TypeDef, const char*, void*))
DYNALIB_FN(10, system_cloud, spark_unsubscribe, void(void*))
DYNALIB_FN(11, system_cloud, spark_sync_time, bool(void*))
DYNALIB_FN(12, system_cloud, spark_sync_time_pending, bool(void*))
   d8d70:	b508      	push	{r3, lr}
   d8d72:	4b02      	ldr	r3, [pc, #8]	; (d8d7c <spark_sync_time_pending+0xc>)
   d8d74:	681b      	ldr	r3, [r3, #0]
   d8d76:	6b1b      	ldr	r3, [r3, #48]	; 0x30
   d8d78:	9301      	str	r3, [sp, #4]
   d8d7a:	bd08      	pop	{r3, pc}
   d8d7c:	00030244 	.word	0x00030244

000d8d80 <spark_sync_time_last>:
DYNALIB_FN(13, system_cloud, spark_sync_time_last, system_tick_t(time32_t*, time_t*))
   d8d80:	b508      	push	{r3, lr}
   d8d82:	4b02      	ldr	r3, [pc, #8]	; (d8d8c <spark_sync_time_last+0xc>)
   d8d84:	681b      	ldr	r3, [r3, #0]
   d8d86:	6b5b      	ldr	r3, [r3, #52]	; 0x34
   d8d88:	9301      	str	r3, [sp, #4]
   d8d8a:	bd08      	pop	{r3, pc}
   d8d8c:	00030244 	.word	0x00030244

000d8d90 <spark_set_random_seed_from_cloud_handler>:
DYNALIB_FN(14, system_cloud, spark_set_connection_property, int(unsigned, unsigned, const void*, void*))
DYNALIB_FN(15, system_cloud, spark_set_random_seed_from_cloud_handler, int(void (*handler)(unsigned int), void*))
   d8d90:	b508      	push	{r3, lr}
   d8d92:	4b02      	ldr	r3, [pc, #8]	; (d8d9c <spark_set_random_seed_from_cloud_handler+0xc>)
   d8d94:	681b      	ldr	r3, [r3, #0]
   d8d96:	6bdb      	ldr	r3, [r3, #60]	; 0x3c
   d8d98:	9301      	str	r3, [sp, #4]
   d8d9a:	bd08      	pop	{r3, pc}
   d8d9c:	00030244 	.word	0x00030244

000d8da0 <network_connect>:
#endif

DYNALIB_BEGIN(system_net)

DYNALIB_FN(0, system_net, network_config, const void*(network_handle_t, uint32_t, void*))
DYNALIB_FN(1, system_net, network_connect, void(network_handle_t, uint32_t, uint32_t, void*))
   d8da0:	b508      	push	{r3, lr}
   d8da2:	4b02      	ldr	r3, [pc, #8]	; (d8dac <network_connect+0xc>)
   d8da4:	681b      	ldr	r3, [r3, #0]
   d8da6:	685b      	ldr	r3, [r3, #4]
   d8da8:	9301      	str	r3, [sp, #4]
   d8daa:	bd08      	pop	{r3, pc}
   d8dac:	00030240 	.word	0x00030240

000d8db0 <network_connecting>:
DYNALIB_FN(2, system_net, network_connecting, bool(network_handle_t, uint32_t, void*))
   d8db0:	b508      	push	{r3, lr}
   d8db2:	4b02      	ldr	r3, [pc, #8]	; (d8dbc <network_connecting+0xc>)
   d8db4:	681b      	ldr	r3, [r3, #0]
   d8db6:	689b      	ldr	r3, [r3, #8]
   d8db8:	9301      	str	r3, [sp, #4]
   d8dba:	bd08      	pop	{r3, pc}
   d8dbc:	00030240 	.word	0x00030240

000d8dc0 <network_disconnect>:
DYNALIB_FN(3, system_net, network_disconnect, void(network_handle_t, uint32_t, void*))
   d8dc0:	b508      	push	{r3, lr}
   d8dc2:	4b02      	ldr	r3, [pc, #8]	; (d8dcc <network_disconnect+0xc>)
   d8dc4:	681b      	ldr	r3, [r3, #0]
   d8dc6:	68db      	ldr	r3, [r3, #12]
   d8dc8:	9301      	str	r3, [sp, #4]
   d8dca:	bd08      	pop	{r3, pc}
   d8dcc:	00030240 	.word	0x00030240

000d8dd0 <network_ready>:
DYNALIB_FN(4, system_net, network_ready, bool(network_handle_t, uint32_t, void*))
   d8dd0:	b508      	push	{r3, lr}
   d8dd2:	4b02      	ldr	r3, [pc, #8]	; (d8ddc <network_ready+0xc>)
   d8dd4:	681b      	ldr	r3, [r3, #0]
   d8dd6:	691b      	ldr	r3, [r3, #16]
   d8dd8:	9301      	str	r3, [sp, #4]
   d8dda:	bd08      	pop	{r3, pc}
   d8ddc:	00030240 	.word	0x00030240

000d8de0 <network_on>:
DYNALIB_FN(5, system_net, network_on, void(network_handle_t, uint32_t, uint32_t, void*))
   d8de0:	b508      	push	{r3, lr}
   d8de2:	4b02      	ldr	r3, [pc, #8]	; (d8dec <network_on+0xc>)
   d8de4:	681b      	ldr	r3, [r3, #0]
   d8de6:	695b      	ldr	r3, [r3, #20]
   d8de8:	9301      	str	r3, [sp, #4]
   d8dea:	bd08      	pop	{r3, pc}
   d8dec:	00030240 	.word	0x00030240

000d8df0 <network_off>:
DYNALIB_FN(6, system_net, network_off, void(network_handle_t, uint32_t, uint32_t, void*))
   d8df0:	b508      	push	{r3, lr}
   d8df2:	4b02      	ldr	r3, [pc, #8]	; (d8dfc <network_off+0xc>)
   d8df4:	681b      	ldr	r3, [r3, #0]
   d8df6:	699b      	ldr	r3, [r3, #24]
   d8df8:	9301      	str	r3, [sp, #4]
   d8dfa:	bd08      	pop	{r3, pc}
   d8dfc:	00030240 	.word	0x00030240

000d8e00 <network_listen>:
DYNALIB_FN(7, system_net, network_listen, void(network_handle_t, uint32_t, void*))
   d8e00:	b508      	push	{r3, lr}
   d8e02:	4b02      	ldr	r3, [pc, #8]	; (d8e0c <network_listen+0xc>)
   d8e04:	681b      	ldr	r3, [r3, #0]
   d8e06:	69db      	ldr	r3, [r3, #28]
   d8e08:	9301      	str	r3, [sp, #4]
   d8e0a:	bd08      	pop	{r3, pc}
   d8e0c:	00030240 	.word	0x00030240

000d8e10 <network_listening>:
DYNALIB_FN(8, system_net, network_listening, bool(network_handle_t, uint32_t, void*))
   d8e10:	b508      	push	{r3, lr}
   d8e12:	4b02      	ldr	r3, [pc, #8]	; (d8e1c <network_listening+0xc>)
   d8e14:	681b      	ldr	r3, [r3, #0]
   d8e16:	6a1b      	ldr	r3, [r3, #32]
   d8e18:	9301      	str	r3, [sp, #4]
   d8e1a:	bd08      	pop	{r3, pc}
   d8e1c:	00030240 	.word	0x00030240

000d8e20 <network_set_listen_timeout>:
DYNALIB_FN(9, system_net, network_has_credentials, bool(network_handle_t, uint32_t, void*))
DYNALIB_FN(10, system_net, network_set_credentials, int(network_handle_t, uint32_t, NetworkCredentials*, void*))
DYNALIB_FN(11, system_net, network_clear_credentials, bool(network_handle_t, uint32_t, NetworkCredentials*, void*))
DYNALIB_FN(12, system_net, network_set_listen_timeout, void(network_handle_t, uint16_t, void*))
   d8e20:	b508      	push	{r3, lr}
   d8e22:	4b02      	ldr	r3, [pc, #8]	; (d8e2c <network_set_listen_timeout+0xc>)
   d8e24:	681b      	ldr	r3, [r3, #0]
   d8e26:	6b1b      	ldr	r3, [r3, #48]	; 0x30
   d8e28:	9301      	str	r3, [sp, #4]
   d8e2a:	bd08      	pop	{r3, pc}
   d8e2c:	00030240 	.word	0x00030240

000d8e30 <network_get_listen_timeout>:
DYNALIB_FN(13, system_net, network_get_listen_timeout, uint16_t(network_handle_t, uint32_t, void*))
   d8e30:	b508      	push	{r3, lr}
   d8e32:	4b02      	ldr	r3, [pc, #8]	; (d8e3c <network_get_listen_timeout+0xc>)
   d8e34:	681b      	ldr	r3, [r3, #0]
   d8e36:	6b5b      	ldr	r3, [r3, #52]	; 0x34
   d8e38:	9301      	str	r3, [sp, #4]
   d8e3a:	bd08      	pop	{r3, pc}
   d8e3c:	00030240 	.word	0x00030240

000d8e40 <network_is_on>:
DYNALIB_FN(14, system_net, network_set_hostname, int(network_handle_t, uint32_t, const char*, void*))
DYNALIB_FN(15, system_net, network_get_hostname, int(network_handle_t, uint32_t, char*, size_t, void*))
DYNALIB_FN(16, system_net, network_is_on, bool(network_handle_t, void*))
   d8e40:	b508      	push	{r3, lr}
   d8e42:	4b02      	ldr	r3, [pc, #8]	; (d8e4c <network_is_on+0xc>)
   d8e44:	681b      	ldr	r3, [r3, #0]
   d8e46:	6c1b      	ldr	r3, [r3, #64]	; 0x40
   d8e48:	9301      	str	r3, [sp, #4]
   d8e4a:	bd08      	pop	{r3, pc}
   d8e4c:	00030240 	.word	0x00030240

000d8e50 <network_is_off>:
DYNALIB_FN(17, system_net, network_is_off, bool(network_handle_t, void*))
   d8e50:	b508      	push	{r3, lr}
   d8e52:	4b02      	ldr	r3, [pc, #8]	; (d8e5c <network_is_off+0xc>)
   d8e54:	681b      	ldr	r3, [r3, #0]
   d8e56:	6c5b      	ldr	r3, [r3, #68]	; 0x44
   d8e58:	9301      	str	r3, [sp, #4]
   d8e5a:	bd08      	pop	{r3, pc}
   d8e5c:	00030240 	.word	0x00030240

000d8e60 <malloc>:
#include "hal_platform.h"
#endif // defined(DYNALIB_EXPORT) || (defined(DYNALIB_IMPORT) && !defined(RT_DYNALIB_NO_DEPENDENCY_BREAKING_IMPORTS))

DYNALIB_BEGIN(rt)

DYNALIB_FN(0, rt, malloc, void*(size_t))
   d8e60:	b508      	push	{r3, lr}
   d8e62:	4b02      	ldr	r3, [pc, #8]	; (d8e6c <malloc+0xc>)
   d8e64:	681b      	ldr	r3, [r3, #0]
   d8e66:	681b      	ldr	r3, [r3, #0]
   d8e68:	9301      	str	r3, [sp, #4]
   d8e6a:	bd08      	pop	{r3, pc}
   d8e6c:	0003021c 	.word	0x0003021c

000d8e70 <free>:
DYNALIB_FN(1, rt, free, void(void*))
   d8e70:	b508      	push	{r3, lr}
   d8e72:	4b02      	ldr	r3, [pc, #8]	; (d8e7c <free+0xc>)
   d8e74:	681b      	ldr	r3, [r3, #0]
   d8e76:	685b      	ldr	r3, [r3, #4]
   d8e78:	9301      	str	r3, [sp, #4]
   d8e7a:	bd08      	pop	{r3, pc}
   d8e7c:	0003021c 	.word	0x0003021c

000d8e80 <realloc>:
DYNALIB_FN(2, rt, realloc, void*(void*, size_t))
   d8e80:	b508      	push	{r3, lr}
   d8e82:	4b02      	ldr	r3, [pc, #8]	; (d8e8c <realloc+0xc>)
   d8e84:	681b      	ldr	r3, [r3, #0]
   d8e86:	689b      	ldr	r3, [r3, #8]
   d8e88:	9301      	str	r3, [sp, #4]
   d8e8a:	bd08      	pop	{r3, pc}
   d8e8c:	0003021c 	.word	0x0003021c

000d8e90 <siprintf>:
DYNALIB_FN(3, rt, sprintf, int(char*, const char*, ...))
DYNALIB_FN(4, rt, siprintf, int(char*, const char*, ...))
   d8e90:	b508      	push	{r3, lr}
   d8e92:	4b02      	ldr	r3, [pc, #8]	; (d8e9c <siprintf+0xc>)
   d8e94:	681b      	ldr	r3, [r3, #0]
   d8e96:	691b      	ldr	r3, [r3, #16]
   d8e98:	9301      	str	r3, [sp, #4]
   d8e9a:	bd08      	pop	{r3, pc}
   d8e9c:	0003021c 	.word	0x0003021c

000d8ea0 <sscanf>:
DYNALIB_FN(5, rt, sscanf, int(const char*, const char*, ...))
   d8ea0:	b508      	push	{r3, lr}
   d8ea2:	4b02      	ldr	r3, [pc, #8]	; (d8eac <sscanf+0xc>)
   d8ea4:	681b      	ldr	r3, [r3, #0]
   d8ea6:	695b      	ldr	r3, [r3, #20]
   d8ea8:	9301      	str	r3, [sp, #4]
   d8eaa:	bd08      	pop	{r3, pc}
   d8eac:	0003021c 	.word	0x0003021c

000d8eb0 <snprintf>:
DYNALIB_FN(6, rt, siscanf, int(const char*, const char*, ...))
DYNALIB_FN(7, rt, snprintf, int(char*, size_t, const char*, ...))
   d8eb0:	b508      	push	{r3, lr}
   d8eb2:	4b02      	ldr	r3, [pc, #8]	; (d8ebc <snprintf+0xc>)
   d8eb4:	681b      	ldr	r3, [r3, #0]
   d8eb6:	69db      	ldr	r3, [r3, #28]
   d8eb8:	9301      	str	r3, [sp, #4]
   d8eba:	bd08      	pop	{r3, pc}
   d8ebc:	0003021c 	.word	0x0003021c

000d8ec0 <vsnprintf>:
DYNALIB_FN(8, rt, sniprintf, int(char*, size_t, const char*, ...))
DYNALIB_FN(9, rt, vsnprintf, int(char*, size_t, const char*, va_list))
   d8ec0:	b508      	push	{r3, lr}
   d8ec2:	4b02      	ldr	r3, [pc, #8]	; (d8ecc <vsnprintf+0xc>)
   d8ec4:	681b      	ldr	r3, [r3, #0]
   d8ec6:	6a5b      	ldr	r3, [r3, #36]	; 0x24
   d8ec8:	9301      	str	r3, [sp, #4]
   d8eca:	bd08      	pop	{r3, pc}
   d8ecc:	0003021c 	.word	0x0003021c

000d8ed0 <abort>:
DYNALIB_FN(10, rt, vsniprintf, int(char*, size_t, const char*, va_list))
DYNALIB_FN(11, rt, abort, void(void))
   d8ed0:	b508      	push	{r3, lr}
   d8ed2:	4b02      	ldr	r3, [pc, #8]	; (d8edc <abort+0xc>)
   d8ed4:	681b      	ldr	r3, [r3, #0]
   d8ed6:	6adb      	ldr	r3, [r3, #44]	; 0x2c
   d8ed8:	9301      	str	r3, [sp, #4]
   d8eda:	bd08      	pop	{r3, pc}
   d8edc:	0003021c 	.word	0x0003021c

000d8ee0 <_malloc_r>:
DYNALIB_FN(12, rt, _malloc_r, void*(struct _reent*, size_t))
   d8ee0:	b508      	push	{r3, lr}
   d8ee2:	4b02      	ldr	r3, [pc, #8]	; (d8eec <_malloc_r+0xc>)
   d8ee4:	681b      	ldr	r3, [r3, #0]
   d8ee6:	6b1b      	ldr	r3, [r3, #48]	; 0x30
   d8ee8:	9301      	str	r3, [sp, #4]
   d8eea:	bd08      	pop	{r3, pc}
   d8eec:	0003021c 	.word	0x0003021c

000d8ef0 <newlib_impure_ptr_callback>:
// RT is currently being imported into system-part1 from system-part2,
// which is the reverse direction.

#if defined(DYNALIB_EXPORT) || (defined(DYNALIB_IMPORT) && !defined(RT_DYNALIB_NO_DEPENDENCY_BREAKING_IMPORTS))
DYNALIB_FN(16, rt, __assert_func, void(const char*, int, const char*, const char*))
DYNALIB_FN(17, rt, newlib_impure_ptr_callback, void(void (*)(struct _reent*, size_t, uint32_t, void*), void*))
   d8ef0:	b508      	push	{r3, lr}
   d8ef2:	4b02      	ldr	r3, [pc, #8]	; (d8efc <newlib_impure_ptr_callback+0xc>)
   d8ef4:	681b      	ldr	r3, [r3, #0]
   d8ef6:	6c5b      	ldr	r3, [r3, #68]	; 0x44
   d8ef8:	9301      	str	r3, [sp, #4]
   d8efa:	bd08      	pop	{r3, pc}
   d8efc:	0003021c 	.word	0x0003021c

000d8f00 <strftime>:
// Electron has some of these exported from a different system part through services2 dynalib
// Photon/P1 do not have enough space in system-part2
#if HAL_PLATFORM_EXPORT_STDLIB_RT_DYNALIB
DYNALIB_FN(18, rt, strftime, size_t(char* __restrict, size_t, const char* __restrict, const struct tm* __restrict))
   d8f00:	b508      	push	{r3, lr}
   d8f02:	4b02      	ldr	r3, [pc, #8]	; (d8f0c <strftime+0xc>)
   d8f04:	681b      	ldr	r3, [r3, #0]
   d8f06:	6c9b      	ldr	r3, [r3, #72]	; 0x48
   d8f08:	9301      	str	r3, [sp, #4]
   d8f0a:	bd08      	pop	{r3, pc}
   d8f0c:	0003021c 	.word	0x0003021c

000d8f10 <localtime_r>:
DYNALIB_FN(19, rt, localtime_r, struct tm*(const time_t* __restrict, struct tm* __restrict))
   d8f10:	b508      	push	{r3, lr}
   d8f12:	4b02      	ldr	r3, [pc, #8]	; (d8f1c <localtime_r+0xc>)
   d8f14:	681b      	ldr	r3, [r3, #0]
   d8f16:	6cdb      	ldr	r3, [r3, #76]	; 0x4c
   d8f18:	9301      	str	r3, [sp, #4]
   d8f1a:	bd08      	pop	{r3, pc}
   d8f1c:	0003021c 	.word	0x0003021c

000d8f20 <gmtime_r>:
DYNALIB_FN(20, rt, gmtime_r, struct tm*(const time_t* __restrict, struct tm* __restrict))
   d8f20:	b508      	push	{r3, lr}
   d8f22:	4b02      	ldr	r3, [pc, #8]	; (d8f2c <gmtime_r+0xc>)
   d8f24:	681b      	ldr	r3, [r3, #0]
   d8f26:	6d1b      	ldr	r3, [r3, #80]	; 0x50
   d8f28:	9301      	str	r3, [sp, #4]
   d8f2a:	bd08      	pop	{r3, pc}
   d8f2c:	0003021c 	.word	0x0003021c

000d8f30 <mktime>:
DYNALIB_FN(21, rt, mktime, time_t(struct tm*))
   d8f30:	b508      	push	{r3, lr}
   d8f32:	4b02      	ldr	r3, [pc, #8]	; (d8f3c <mktime+0xc>)
   d8f34:	681b      	ldr	r3, [r3, #0]
   d8f36:	6d5b      	ldr	r3, [r3, #84]	; 0x54
   d8f38:	9301      	str	r3, [sp, #4]
   d8f3a:	bd08      	pop	{r3, pc}
   d8f3c:	0003021c 	.word	0x0003021c

000d8f40 <delay>:
    return (value - fromStart) * (toEnd - toStart) / (fromEnd - fromStart) + toStart;
}

void delay(unsigned long ms)
{
    system_delay_ms(ms, false);
   d8f40:	2100      	movs	r1, #0
   d8f42:	f7ff be9d 	b.w	d8c80 <system_delay_ms>

000d8f46 <_ZN8particle6detail21futureCallbackWrapperEPv>:
 * License along with this library; if not, see <http://www.gnu.org/licenses/>.
 */

#include "spark_wiring_async.h"

void particle::detail::futureCallbackWrapper(void* data) {
   d8f46:	b510      	push	{r4, lr}
      if (_M_empty())
   d8f48:	6883      	ldr	r3, [r0, #8]
   d8f4a:	4604      	mov	r4, r0
   d8f4c:	b90b      	cbnz	r3, d8f52 <_ZN8particle6detail21futureCallbackWrapperEPv+0xc>
	__throw_bad_function_call();
   d8f4e:	f003 f821 	bl	dbf94 <_ZSt25__throw_bad_function_callv>
      return _M_invoker(_M_functor, std::forward<_ArgTypes>(__args)...);
   d8f52:	68c3      	ldr	r3, [r0, #12]
   d8f54:	4798      	blx	r3
      if (_M_manager)
   d8f56:	68a3      	ldr	r3, [r4, #8]
   d8f58:	b11b      	cbz	r3, d8f62 <_ZN8particle6detail21futureCallbackWrapperEPv+0x1c>
	_M_manager(_M_functor, _M_functor, __destroy_functor);
   d8f5a:	2203      	movs	r2, #3
   d8f5c:	4621      	mov	r1, r4
   d8f5e:	4620      	mov	r0, r4
   d8f60:	4798      	blx	r3
    auto callbackPtr = static_cast<const std::function<void()>*>(data);
    (*callbackPtr)();
    delete callbackPtr;
   d8f62:	4620      	mov	r0, r4
   d8f64:	2110      	movs	r1, #16
}
   d8f66:	e8bd 4010 	ldmia.w	sp!, {r4, lr}
    delete callbackPtr;
   d8f6a:	f003 b807 	b.w	dbf7c <_ZdlPvj>

000d8f6e <_ZNSt14__shared_countILN9__gnu_cxx12_Lock_policyE0EEC1ERKS2_>:
      : _M_pi(__r._M_pi)
   d8f6e:	680b      	ldr	r3, [r1, #0]
   d8f70:	6003      	str	r3, [r0, #0]
	if (_M_pi != 0)
   d8f72:	b113      	cbz	r3, d8f7a <_ZNSt14__shared_countILN9__gnu_cxx12_Lock_policyE0EEC1ERKS2_+0xc>
    { ++_M_use_count; }
   d8f74:	685a      	ldr	r2, [r3, #4]
   d8f76:	3201      	adds	r2, #1
   d8f78:	605a      	str	r2, [r3, #4]
      }
   d8f7a:	4770      	bx	lr

000d8f7c <_GLOBAL__sub_I__ZN8particle3ble13WiringBleLock6mutex_E>:
    /**
     * Creates a shared mutex.
     */
    RecursiveMutex(os_mutex_recursive_t handle) : handle_(handle) {}

    RecursiveMutex() : handle_(nullptr)
   d8f7c:	4802      	ldr	r0, [pc, #8]	; (d8f88 <_GLOBAL__sub_I__ZN8particle3ble13WiringBleLock6mutex_E+0xc>)
   d8f7e:	2300      	movs	r3, #0
   d8f80:	6003      	str	r3, [r0, #0]
    {
        os_mutex_recursive_create(&handle_);
   d8f82:	f7ff bc4b 	b.w	d881c <os_mutex_recursive_create>
   d8f86:	bf00      	nop
   d8f88:	2003e528 	.word	0x2003e528

000d8f8c <_ZN5spark13CellularClass5readyEv>:
        return network_listening(*this, 0, NULL);
    }

    bool ready()
    {
        return network_ready(*this, 0,  NULL);
   d8f8c:	2200      	movs	r2, #0
   d8f8e:	6840      	ldr	r0, [r0, #4]
   d8f90:	4611      	mov	r1, r2
   d8f92:	f7ff bf1d 	b.w	d8dd0 <network_ready>

000d8f96 <_ZN5spark13CellularClass9listeningEv>:
        return network_listening(*this, 0, NULL);
   d8f96:	2200      	movs	r2, #0
   d8f98:	6840      	ldr	r0, [r0, #4]
   d8f9a:	4611      	mov	r1, r2
   d8f9c:	f7ff bf38 	b.w	d8e10 <network_listening>

000d8fa0 <_ZN5spark13CellularClass16getListenTimeoutEv>:
        return network_get_listen_timeout(*this, 0, NULL);
   d8fa0:	2200      	movs	r2, #0
   d8fa2:	6840      	ldr	r0, [r0, #4]
   d8fa4:	4611      	mov	r1, r2
   d8fa6:	f7ff bf43 	b.w	d8e30 <network_get_listen_timeout>

000d8faa <_ZN5spark13CellularClass16setListenTimeoutEt>:
        network_set_listen_timeout(*this, timeout, NULL);
   d8faa:	6840      	ldr	r0, [r0, #4]
   d8fac:	2200      	movs	r2, #0
   d8fae:	f7ff bf37 	b.w	d8e20 <network_set_listen_timeout>

000d8fb2 <_ZN5spark13CellularClass6listenEb>:
        network_listen(*this, begin ? 0 : 1, NULL);
   d8fb2:	6840      	ldr	r0, [r0, #4]
   d8fb4:	2200      	movs	r2, #0
   d8fb6:	f081 0101 	eor.w	r1, r1, #1
   d8fba:	f7ff bf21 	b.w	d8e00 <network_listen>

000d8fbe <_ZN5spark13CellularClass3offEv>:
        network_off(*this, 0, 0, NULL);
   d8fbe:	2300      	movs	r3, #0
   d8fc0:	6840      	ldr	r0, [r0, #4]
   d8fc2:	461a      	mov	r2, r3
   d8fc4:	4619      	mov	r1, r3
   d8fc6:	f7ff bf13 	b.w	d8df0 <network_off>

000d8fca <_ZN5spark13CellularClass2onEv>:
        network_on(*this, 0, 0, NULL);
   d8fca:	2300      	movs	r3, #0
   d8fcc:	6840      	ldr	r0, [r0, #4]
   d8fce:	461a      	mov	r2, r3
   d8fd0:	4619      	mov	r1, r3
   d8fd2:	f7ff bf05 	b.w	d8de0 <network_on>

000d8fd6 <_ZN5spark13CellularClass10connectingEv>:
        return network_connecting(*this, 0, NULL);
   d8fd6:	2200      	movs	r2, #0
   d8fd8:	6840      	ldr	r0, [r0, #4]
   d8fda:	4611      	mov	r1, r2
   d8fdc:	f7ff bee8 	b.w	d8db0 <network_connecting>

000d8fe0 <_ZN5spark13CellularClass10disconnectEv>:
        network_disconnect(*this, NETWORK_DISCONNECT_REASON_USER, NULL);
   d8fe0:	6840      	ldr	r0, [r0, #4]
   d8fe2:	2200      	movs	r2, #0
   d8fe4:	2102      	movs	r1, #2
   d8fe6:	f7ff beeb 	b.w	d8dc0 <network_disconnect>

000d8fea <_ZN5spark13CellularClass7connectEj>:
        network_connect(*this, flags, 0, NULL);
   d8fea:	2300      	movs	r3, #0
   d8fec:	6840      	ldr	r0, [r0, #4]
   d8fee:	461a      	mov	r2, r3
   d8ff0:	f7ff bed6 	b.w	d8da0 <network_connect>

000d8ff4 <_ZN5spark13CellularClass4RSSIEv>:

// #include "cellular_internal.h"

namespace spark {

    CellularSignal CellularClass::RSSI() {
   d8ff4:	b5f0      	push	{r4, r5, r6, r7, lr}
    int qual __attribute__((deprecated("Use getQualityValue() instead"))) = 0;

// TODO: remove once rssi/qual are removed
#pragma GCC diagnostic push
#pragma GCC diagnostic ignored "-Wdeprecated-declarations"
    CellularSignal() {}
   d8ff6:	4b1b      	ldr	r3, [pc, #108]	; (d9064 <_ZN5spark13CellularClass4RSSIEv+0x70>)
   d8ff8:	6003      	str	r3, [r0, #0]
   d8ffa:	2500      	movs	r5, #0
   d8ffc:	460f      	mov	r7, r1
   d8ffe:	3330      	adds	r3, #48	; 0x30
   d9000:	2618      	movs	r6, #24
   d9002:	e9c0 5502 	strd	r5, r5, [r0, #8]
   d9006:	b089      	sub	sp, #36	; 0x24
   d9008:	6043      	str	r3, [r0, #4]
   d900a:	4632      	mov	r2, r6
   d900c:	4629      	mov	r1, r5
   d900e:	4604      	mov	r4, r0
   d9010:	3010      	adds	r0, #16
   d9012:	f003 fc67 	bl	dc8e4 <memset>
// TODO: remove once rssi/qual are removed
#pragma GCC diagnostic push
#pragma GCC diagnostic ignored "-Wdeprecated-declarations"
        CellularSignal sig;
        if (!network_ready(*this, 0, NULL)) {
   d9016:	6878      	ldr	r0, [r7, #4]
   d9018:	462a      	mov	r2, r5
   d901a:	4629      	mov	r1, r5
   d901c:	f7ff fed8 	bl	d8dd0 <network_ready>
   d9020:	b918      	cbnz	r0, d902a <_ZN5spark13CellularClass4RSSIEv+0x36>
            sig.rssi = 0;
   d9022:	60a0      	str	r0, [r4, #8]
            sig.rssi = 2;
        }
        sig.fromHalCellularSignal(sigext);
        return sig;
#pragma GCC diagnostic pop
    }
   d9024:	4620      	mov	r0, r4
   d9026:	b009      	add	sp, #36	; 0x24
   d9028:	bdf0      	pop	{r4, r5, r6, r7, pc}
        cellular_signal_t sigext = {0};
   d902a:	4629      	mov	r1, r5
   d902c:	4632      	mov	r2, r6
   d902e:	a802      	add	r0, sp, #8
        CellularSignalHal sig_hal = {0};
   d9030:	e9cd 5500 	strd	r5, r5, [sp]
        cellular_signal_t sigext = {0};
   d9034:	f003 fc56 	bl	dc8e4 <memset>
        if (cellular_signal(&sig_hal, &sigext) != 0) {
   d9038:	a902      	add	r1, sp, #8
   d903a:	4668      	mov	r0, sp
        sigext.size = sizeof(sigext);
   d903c:	f8ad 6008 	strh.w	r6, [sp, #8]
        if (cellular_signal(&sig_hal, &sigext) != 0) {
   d9040:	f7ff fbe4 	bl	d880c <cellular_signal>
   d9044:	b110      	cbz	r0, d904c <_ZN5spark13CellularClass4RSSIEv+0x58>
            sig.rssi = 1;
   d9046:	2301      	movs	r3, #1
   d9048:	60a3      	str	r3, [r4, #8]
            return sig;
   d904a:	e7eb      	b.n	d9024 <_ZN5spark13CellularClass4RSSIEv+0x30>
        sig.rssi = sig_hal.rssi;
   d904c:	9b00      	ldr	r3, [sp, #0]
        sig.qual = sig_hal.qual;
   d904e:	9a01      	ldr	r2, [sp, #4]
        sig.rssi = sig_hal.rssi;
   d9050:	60a3      	str	r3, [r4, #8]
        sig.qual = sig_hal.qual;
   d9052:	60e2      	str	r2, [r4, #12]
        if (sig.rssi == 0) {
   d9054:	b90b      	cbnz	r3, d905a <_ZN5spark13CellularClass4RSSIEv+0x66>
            sig.rssi = 2;
   d9056:	2302      	movs	r3, #2
   d9058:	60a3      	str	r3, [r4, #8]
        sig.fromHalCellularSignal(sigext);
   d905a:	a902      	add	r1, sp, #8
   d905c:	4620      	mov	r0, r4
   d905e:	f000 f8c0 	bl	d91e2 <_ZN14CellularSignal21fromHalCellularSignalERK17cellular_signal_t>
        return sig;
   d9062:	e7df      	b.n	d9024 <_ZN5spark13CellularClass4RSSIEv+0x30>
   d9064:	000dd810 	.word	0x000dd810

000d9068 <_GLOBAL__sub_I__ZN5spark13CellularClass4RSSIEv>:
    int tx_total;
    int rx_total;

    CellularDataHal()
    {
        memset(this, 0, sizeof(*this));
   d9068:	4b08      	ldr	r3, [pc, #32]	; (d908c <_GLOBAL__sub_I__ZN5spark13CellularClass4RSSIEv+0x24>)
        return (band_get.ok = true);
    }

    CellularClass Cellular;
    // NetworkClass& Network = Cellular;
}
   d906a:	b510      	push	{r4, lr}
   d906c:	2428      	movs	r4, #40	; 0x28
   d906e:	4622      	mov	r2, r4
   d9070:	4618      	mov	r0, r3
   d9072:	2100      	movs	r1, #0
   d9074:	f003 fc36 	bl	dc8e4 <memset>
    static NetworkClass& from(network_interface_t nif);

    virtual IPAddress resolve(const char* name);

    explicit NetworkClass(network_interface_t iface)
            : iface_(iface) {
   d9078:	4b05      	ldr	r3, [pc, #20]	; (d9090 <_GLOBAL__sub_I__ZN5spark13CellularClass4RSSIEv+0x28>)
        cid = -1;
        size = sizeof(*this);
   d907a:	8004      	strh	r4, [r0, #0]
        cid = -1;
   d907c:	f04f 32ff 	mov.w	r2, #4294967295	; 0xffffffff
   d9080:	6042      	str	r2, [r0, #4]
   d9082:	2204      	movs	r2, #4
   d9084:	605a      	str	r2, [r3, #4]
            NetworkClass(NETWORK_INTERFACE_CELLULAR) {
   d9086:	4a03      	ldr	r2, [pc, #12]	; (d9094 <_GLOBAL__sub_I__ZN5spark13CellularClass4RSSIEv+0x2c>)
   d9088:	601a      	str	r2, [r3, #0]
   d908a:	bd10      	pop	{r4, pc}
   d908c:	2003e534 	.word	0x2003e534
   d9090:	2003e52c 	.word	0x2003e52c
   d9094:	000dd7d4 	.word	0x000dd7d4

000d9098 <_ZN14CellularSignalD1Ev>:
    CellularSignal(const cellular_signal_t& sig);
    virtual ~CellularSignal() {};
   d9098:	4770      	bx	lr

000d909a <_ZNK14CellularSignal19getAccessTechnologyEv>:
#pragma GCC diagnostic pop

hal_net_access_tech_t CellularSignal::getAccessTechnology() const
{
    return static_cast<hal_net_access_tech_t>(sig_.rat);
}
   d909a:	7d00      	ldrb	r0, [r0, #20]
   d909c:	4770      	bx	lr

000d909e <_ZNK14CellularSignal7isValidEv>:
#pragma GCC diagnostic pop

bool CellularSignal::isValid() const
{
    return (sig_.rat != NET_ACCESS_TECHNOLOGY_NONE &&
            sig_.rssi != std::numeric_limits<int32_t>::min() &&
   d909e:	7d03      	ldrb	r3, [r0, #20]
   d90a0:	b14b      	cbz	r3, d90b6 <_ZNK14CellularSignal7isValidEv+0x18>
    return (sig_.rat != NET_ACCESS_TECHNOLOGY_NONE &&
   d90a2:	6983      	ldr	r3, [r0, #24]
   d90a4:	f1b3 4f00 	cmp.w	r3, #2147483648	; 0x80000000
   d90a8:	d005      	beq.n	d90b6 <_ZNK14CellularSignal7isValidEv+0x18>
            sig_.rssi != std::numeric_limits<int32_t>::min() &&
   d90aa:	6a00      	ldr	r0, [r0, #32]
   d90ac:	f1b0 4000 	subs.w	r0, r0, #2147483648	; 0x80000000
   d90b0:	bf18      	it	ne
   d90b2:	2001      	movne	r0, #1
   d90b4:	4770      	bx	lr
   d90b6:	2000      	movs	r0, #0
            // Hence, `isValid()` can return "true" for invalid signal value. To add a note in docs.
            (sig_.rat == NET_ACCESS_TECHNOLOGY_GSM || sig_.qual != std::numeric_limits<int32_t>::min()));
#else
            sig_.qual != std::numeric_limits<int32_t>::min());
#endif
}
   d90b8:	4770      	bx	lr

000d90ba <_ZNK14CellularSignalcvbEv>:

CellularSignal::operator bool() const
{
    return isValid();
   d90ba:	6803      	ldr	r3, [r0, #0]
   d90bc:	6a1b      	ldr	r3, [r3, #32]
   d90be:	4718      	bx	r3

000d90c0 <_ZN14CellularSignalD0Ev>:
   d90c0:	b510      	push	{r4, lr}
   d90c2:	2128      	movs	r1, #40	; 0x28
   d90c4:	4604      	mov	r4, r0
   d90c6:	f002 ff59 	bl	dbf7c <_ZdlPvj>
   d90ca:	4620      	mov	r0, r4
   d90cc:	bd10      	pop	{r4, pc}
	...

000d90d0 <_ZNK14CellularSignal11getStrengthEv>:
    if (sig_.rat != NET_ACCESS_TECHNOLOGY_NONE && sig_.strength >= 0) {
   d90d0:	7d03      	ldrb	r3, [r0, #20]
   d90d2:	b17b      	cbz	r3, d90f4 <_ZNK14CellularSignal11getStrengthEv+0x24>
   d90d4:	69c3      	ldr	r3, [r0, #28]
   d90d6:	2b00      	cmp	r3, #0
   d90d8:	db0c      	blt.n	d90f4 <_ZNK14CellularSignal11getStrengthEv+0x24>
        return (float)sig_.strength / 65535.0f * 100.0f;
   d90da:	ee07 3a90 	vmov	s15, r3
   d90de:	ed9f 7a07 	vldr	s14, [pc, #28]	; d90fc <_ZNK14CellularSignal11getStrengthEv+0x2c>
   d90e2:	eef8 7ae7 	vcvt.f32.s32	s15, s15
   d90e6:	ee87 0a87 	vdiv.f32	s0, s15, s14
   d90ea:	eddf 7a05 	vldr	s15, [pc, #20]	; d9100 <_ZNK14CellularSignal11getStrengthEv+0x30>
   d90ee:	ee20 0a27 	vmul.f32	s0, s0, s15
   d90f2:	4770      	bx	lr
    return -1.0f;
   d90f4:	eebf 0a00 	vmov.f32	s0, #240	; 0xbf800000 -1.0
}
   d90f8:	4770      	bx	lr
   d90fa:	bf00      	nop
   d90fc:	477fff00 	.word	0x477fff00
   d9100:	42c80000 	.word	0x42c80000

000d9104 <_ZNK14CellularSignal16getStrengthValueEv>:
    if (sig_.rat != NET_ACCESS_TECHNOLOGY_NONE && sig_.rssi != std::numeric_limits<int32_t>::min()) {
   d9104:	7d03      	ldrb	r3, [r0, #20]
   d9106:	b163      	cbz	r3, d9122 <_ZNK14CellularSignal16getStrengthValueEv+0x1e>
   d9108:	6983      	ldr	r3, [r0, #24]
   d910a:	f1b3 4f00 	cmp.w	r3, #2147483648	; 0x80000000
   d910e:	d008      	beq.n	d9122 <_ZNK14CellularSignal16getStrengthValueEv+0x1e>
        return (float)sig_.rssi / 100.0f;
   d9110:	ee07 3a90 	vmov	s15, r3
   d9114:	ed9f 7a04 	vldr	s14, [pc, #16]	; d9128 <_ZNK14CellularSignal16getStrengthValueEv+0x24>
   d9118:	eef8 7ae7 	vcvt.f32.s32	s15, s15
   d911c:	ee87 0a87 	vdiv.f32	s0, s15, s14
   d9120:	4770      	bx	lr
    return 0.0f;
   d9122:	ed9f 0a02 	vldr	s0, [pc, #8]	; d912c <_ZNK14CellularSignal16getStrengthValueEv+0x28>
}
   d9126:	4770      	bx	lr
   d9128:	42c80000 	.word	0x42c80000
   d912c:	00000000 	.word	0x00000000

000d9130 <_ZNK14CellularSignal10getQualityEv>:
    if (sig_.rat != NET_ACCESS_TECHNOLOGY_NONE && sig_.quality >= 0) {
   d9130:	7d03      	ldrb	r3, [r0, #20]
   d9132:	b17b      	cbz	r3, d9154 <_ZNK14CellularSignal10getQualityEv+0x24>
   d9134:	6a43      	ldr	r3, [r0, #36]	; 0x24
   d9136:	2b00      	cmp	r3, #0
   d9138:	db0c      	blt.n	d9154 <_ZNK14CellularSignal10getQualityEv+0x24>
        return (float)sig_.quality / 65535.0f * 100.0f;
   d913a:	ee07 3a90 	vmov	s15, r3
   d913e:	ed9f 7a07 	vldr	s14, [pc, #28]	; d915c <_ZNK14CellularSignal10getQualityEv+0x2c>
   d9142:	eef8 7ae7 	vcvt.f32.s32	s15, s15
   d9146:	ee87 0a87 	vdiv.f32	s0, s15, s14
   d914a:	eddf 7a05 	vldr	s15, [pc, #20]	; d9160 <_ZNK14CellularSignal10getQualityEv+0x30>
   d914e:	ee20 0a27 	vmul.f32	s0, s0, s15
   d9152:	4770      	bx	lr
    return -1.0f;
   d9154:	eebf 0a00 	vmov.f32	s0, #240	; 0xbf800000 -1.0
}
   d9158:	4770      	bx	lr
   d915a:	bf00      	nop
   d915c:	477fff00 	.word	0x477fff00
   d9160:	42c80000 	.word	0x42c80000

000d9164 <_ZNK14CellularSignal15getQualityValueEv>:
    if (sig_.rat != NET_ACCESS_TECHNOLOGY_NONE && sig_.qual != std::numeric_limits<int32_t>::min()) {
   d9164:	7d03      	ldrb	r3, [r0, #20]
   d9166:	b163      	cbz	r3, d9182 <_ZNK14CellularSignal15getQualityValueEv+0x1e>
   d9168:	6a03      	ldr	r3, [r0, #32]
   d916a:	f1b3 4f00 	cmp.w	r3, #2147483648	; 0x80000000
   d916e:	d008      	beq.n	d9182 <_ZNK14CellularSignal15getQualityValueEv+0x1e>
        return (float)sig_.qual / 100.0f;
   d9170:	ee07 3a90 	vmov	s15, r3
   d9174:	ed9f 7a04 	vldr	s14, [pc, #16]	; d9188 <_ZNK14CellularSignal15getQualityValueEv+0x24>
   d9178:	eef8 7ae7 	vcvt.f32.s32	s15, s15
   d917c:	ee87 0a87 	vdiv.f32	s0, s15, s14
   d9180:	4770      	bx	lr
    return 0.0f;
   d9182:	ed9f 0a02 	vldr	s0, [pc, #8]	; d918c <_ZNK14CellularSignal15getQualityValueEv+0x28>
}
   d9186:	4770      	bx	lr
   d9188:	42c80000 	.word	0x42c80000
   d918c:	00000000 	.word	0x00000000

000d9190 <_ZN5Print5printIiLi0EEEjT_i.part.0.constprop.0>:
    size_t vprintf(bool newline, const char* format, va_list args) __attribute__ ((format(printf, 3, 0)));
};

template <typename T, std::enable_if_t<!std::is_base_of<Printable, T>::value && (std::is_integral<T>::value || std::is_convertible<T, unsigned long long>::value ||
    std::is_convertible<T, long long>::value), int>>
size_t Print::print(T n, int base)
   d9190:	b570      	push	{r4, r5, r6, lr}
// FIXME: avoids 'comparison of constant '0' with boolean expression is always false'
#if __GNUC__ >= 9
#pragma GCC diagnostic push
#pragma GCC diagnostic ignored "-Wbool-compare"
#endif // __GNUC__ >= 9
        if (n < 0 && base == 10) {
   d9192:	1e0c      	subs	r4, r1, #0
size_t Print::print(T n, int base)
   d9194:	4606      	mov	r6, r0
        if (n < 0 && base == 10) {
   d9196:	da0a      	bge.n	d91ae <_ZN5Print5printIiLi0EEEjT_i.part.0.constprop.0+0x1e>
            t = print('-');
   d9198:	212d      	movs	r1, #45	; 0x2d
   d919a:	f002 f812 	bl	db1c2 <_ZN5Print5printEc>
            val = -n;
   d919e:	4261      	negs	r1, r4
            t = print('-');
   d91a0:	4605      	mov	r5, r0
            val = n;
        }
#if __GNUC__ >= 9
#pragma GCC diagnostic pop
#endif // __GNUC__ >= 9
        return printNumber(val, base) + t;
   d91a2:	220a      	movs	r2, #10
   d91a4:	4630      	mov	r0, r6
   d91a6:	f002 f81b 	bl	db1e0 <_ZN5Print11printNumberEmh>
    }
}
   d91aa:	4428      	add	r0, r5
   d91ac:	bd70      	pop	{r4, r5, r6, pc}
            val = n;
   d91ae:	4621      	mov	r1, r4
        size_t t = 0;
   d91b0:	2500      	movs	r5, #0
   d91b2:	e7f6      	b.n	d91a2 <_ZN5Print5printIiLi0EEEjT_i.part.0.constprop.0+0x12>

000d91b4 <_ZNK14CellularSignal7printToER5Print>:
{
   d91b4:	b570      	push	{r4, r5, r6, lr}
   d91b6:	460c      	mov	r4, r1
   d91b8:	4605      	mov	r5, r0
   d91ba:	6881      	ldr	r1, [r0, #8]
   d91bc:	4620      	mov	r0, r4
   d91be:	f7ff ffe7 	bl	d9190 <_ZN5Print5printIiLi0EEEjT_i.part.0.constprop.0>
    n += p.print(',');
   d91c2:	212c      	movs	r1, #44	; 0x2c
   d91c4:	4606      	mov	r6, r0
   d91c6:	4620      	mov	r0, r4
   d91c8:	f001 fffb 	bl	db1c2 <_ZN5Print5printEc>
   d91cc:	68e9      	ldr	r1, [r5, #12]
   d91ce:	4406      	add	r6, r0
size_t Print::print(T n, int base)
   d91d0:	4620      	mov	r0, r4
   d91d2:	f7ff ffdd 	bl	d9190 <_ZN5Print5printIiLi0EEEjT_i.part.0.constprop.0>
}
   d91d6:	4430      	add	r0, r6
   d91d8:	bd70      	pop	{r4, r5, r6, pc}

000d91da <_ZThn4_NK14CellularSignal7printToER5Print>:
    virtual float getStrength() const;
    virtual float getStrengthValue() const;
    virtual float getQuality() const;
    virtual float getQualityValue() const;

    virtual size_t printTo(Print& p) const;
   d91da:	f1a0 0004 	sub.w	r0, r0, #4
   d91de:	f7ff bfe9 	b.w	d91b4 <_ZNK14CellularSignal7printToER5Print>

000d91e2 <_ZN14CellularSignal21fromHalCellularSignalERK17cellular_signal_t>:
{
   d91e2:	b530      	push	{r4, r5, lr}
    sig_ = sig;
   d91e4:	460d      	mov	r5, r1
   d91e6:	f100 0410 	add.w	r4, r0, #16
   d91ea:	cd0f      	ldmia	r5!, {r0, r1, r2, r3}
   d91ec:	c40f      	stmia	r4!, {r0, r1, r2, r3}
   d91ee:	e895 0003 	ldmia.w	r5, {r0, r1}
   d91f2:	e884 0003 	stmia.w	r4, {r0, r1}
}
   d91f6:	2001      	movs	r0, #1
   d91f8:	bd30      	pop	{r4, r5, pc}

000d91fa <_ZNSt15_Sp_counted_ptrIPN8particle6detail10FutureImplIbNS1_13FutureContextEEELN9__gnu_cxx12_Lock_policyE0EED1Ev>:
    class _Sp_counted_ptr final : public _Sp_counted_base<_Lp>
   d91fa:	4770      	bx	lr

000d91fc <_ZNSt15_Sp_counted_ptrIPN8particle6detail10FutureImplIbNS1_13FutureContextEEELN9__gnu_cxx12_Lock_policyE0EE14_M_get_deleterERKSt9type_info>:
      { return nullptr; }
   d91fc:	2000      	movs	r0, #0
   d91fe:	4770      	bx	lr

000d9200 <_ZNSt15_Sp_counted_ptrIPN8particle6detail10FutureImplIbNS1_13FutureContextEEELN9__gnu_cxx12_Lock_policyE0EED0Ev>:
    class _Sp_counted_ptr final : public _Sp_counted_base<_Lp>
   d9200:	b510      	push	{r4, lr}
   d9202:	2110      	movs	r1, #16
   d9204:	4604      	mov	r4, r0
   d9206:	f002 feb9 	bl	dbf7c <_ZdlPvj>
   d920a:	4620      	mov	r0, r4
   d920c:	bd10      	pop	{r4, pc}

000d920e <_ZNSt15_Sp_counted_ptrIPN8particle6detail10FutureImplIbNS1_13FutureContextEEELN9__gnu_cxx12_Lock_policyE0EE10_M_destroyEv>:
      _M_destroy() noexcept
   d920e:	b508      	push	{r3, lr}
      { delete this; }
   d9210:	f7ff fff6 	bl	d9200 <_ZNSt15_Sp_counted_ptrIPN8particle6detail10FutureImplIbNS1_13FutureContextEEELN9__gnu_cxx12_Lock_policyE0EED0Ev>
   d9214:	bd08      	pop	{r3, pc}

000d9216 <_ZNSt14_Function_baseD1Ev>:
    ~_Function_base()
   d9216:	b510      	push	{r4, lr}
      if (_M_manager)
   d9218:	6883      	ldr	r3, [r0, #8]
    ~_Function_base()
   d921a:	4604      	mov	r4, r0
      if (_M_manager)
   d921c:	b113      	cbz	r3, d9224 <_ZNSt14_Function_baseD1Ev+0xe>
	_M_manager(_M_functor, _M_functor, __destroy_functor);
   d921e:	2203      	movs	r2, #3
   d9220:	4601      	mov	r1, r0
   d9222:	4798      	blx	r3
    }
   d9224:	4620      	mov	r0, r4
   d9226:	bd10      	pop	{r4, pc}

000d9228 <_ZN8particle5ErrorC1EOS0_>:

inline particle::Error::Error(const Error& error) :
        Error(error.type_, error.msg_) {
}

inline particle::Error::Error(Error&& error) :
   d9228:	b530      	push	{r4, r5, lr}
        type_(type) {
   d922a:	2200      	movs	r2, #0
   d922c:	f64f 749c 	movw	r4, #65436	; 0xff9c
   d9230:	6002      	str	r2, [r0, #0]
   d9232:	8084      	strh	r4, [r0, #4]
    {
      // concept requirements
      __glibcxx_function_requires(_SGIAssignableConcept<_Tp>)

      _Tp __tmp = _GLIBCXX_MOVE(__a);
      __a = _GLIBCXX_MOVE(__b);
   d9234:	888d      	ldrh	r5, [r1, #4]
      __b = _GLIBCXX_MOVE(__tmp);
   d9236:	808c      	strh	r4, [r1, #4]
      __a = _GLIBCXX_MOVE(__b);
   d9238:	680c      	ldr	r4, [r1, #0]
   d923a:	8085      	strh	r5, [r0, #4]
   d923c:	6004      	str	r4, [r0, #0]
      __b = _GLIBCXX_MOVE(__tmp);
   d923e:	600a      	str	r2, [r1, #0]
        Error() {
    swap(*this, error);
}
   d9240:	bd30      	pop	{r4, r5, pc}

000d9242 <_ZN8particle5ErrorD1Ev>:

inline particle::Error::~Error() {
   d9242:	b510      	push	{r4, lr}
   d9244:	4604      	mov	r4, r0
    free((void*)msg_);
   d9246:	6800      	ldr	r0, [r0, #0]
   d9248:	f7ff fe12 	bl	d8e70 <free>
}
   d924c:	4620      	mov	r0, r4
   d924e:	bd10      	pop	{r4, pc}

000d9250 <_ZNSt15_Sp_counted_ptrIPN8particle6detail10FutureImplIbNS1_13FutureContextEEELN9__gnu_cxx12_Lock_policyE0EE10_M_disposeEv>:
      _M_dispose() noexcept
   d9250:	b538      	push	{r3, r4, r5, lr}
      { delete _M_ptr; }
   d9252:	68c4      	ldr	r4, [r0, #12]
   d9254:	b1f4      	cbz	r4, d9294 <_ZNSt15_Sp_counted_ptrIPN8particle6detail10FutureImplIbNS1_13FutureContextEEELN9__gnu_cxx12_Lock_policyE0EE10_M_disposeEv+0x44>
      _Tp
      load(memory_order __m = memory_order_seq_cst) const noexcept
      {
	alignas(_Tp) unsigned char __buf[sizeof(_Tp)];
	_Tp* __ptr = reinterpret_cast<_Tp*>(__buf);
	__atomic_load(std::__addressof(_M_i), __ptr, int(__m));
   d9256:	7823      	ldrb	r3, [r4, #0]
    ~FutureImpl() {
        // Call destructor of the appropriate unnamed enum's field
        const State s = this->state();
        if (s == State::SUCCEEDED) {
            result_.~ResultT();
        } else if (s == State::FAILED) {
   d9258:	2b02      	cmp	r3, #2
   d925a:	d103      	bne.n	d9264 <_ZNSt15_Sp_counted_ptrIPN8particle6detail10FutureImplIbNS1_13FutureContextEEELN9__gnu_cxx12_Lock_policyE0EE10_M_disposeEv+0x14>
            error_.~Error();
   d925c:	f104 000c 	add.w	r0, r4, #12
   d9260:	f7ff ffef 	bl	d9242 <_ZN8particle5ErrorD1Ev>
      {
	memory_order __b = __m & __memory_order_mask;
	__glibcxx_assert(__b != memory_order_release);
	__glibcxx_assert(__b != memory_order_acq_rel);

	return __atomic_load_n(&_M_p, int(__m));
   d9264:	6865      	ldr	r5, [r4, #4]
        delete onSuccess_.load(std::memory_order_relaxed);
   d9266:	b135      	cbz	r5, d9276 <_ZNSt15_Sp_counted_ptrIPN8particle6detail10FutureImplIbNS1_13FutureContextEEELN9__gnu_cxx12_Lock_policyE0EE10_M_disposeEv+0x26>
    class function<_Res(_ArgTypes...)>
   d9268:	4628      	mov	r0, r5
   d926a:	f7ff ffd4 	bl	d9216 <_ZNSt14_Function_baseD1Ev>
   d926e:	2110      	movs	r1, #16
   d9270:	4628      	mov	r0, r5
   d9272:	f002 fe83 	bl	dbf7c <_ZdlPvj>
   d9276:	68a5      	ldr	r5, [r4, #8]
        delete onError_.load(std::memory_order_relaxed);
   d9278:	b135      	cbz	r5, d9288 <_ZNSt15_Sp_counted_ptrIPN8particle6detail10FutureImplIbNS1_13FutureContextEEELN9__gnu_cxx12_Lock_policyE0EE10_M_disposeEv+0x38>
   d927a:	4628      	mov	r0, r5
   d927c:	f7ff ffcb 	bl	d9216 <_ZNSt14_Function_baseD1Ev>
   d9280:	2110      	movs	r1, #16
   d9282:	4628      	mov	r0, r5
   d9284:	f002 fe7a 	bl	dbf7c <_ZdlPvj>
   d9288:	4620      	mov	r0, r4
   d928a:	2114      	movs	r1, #20
   d928c:	e8bd 4038 	ldmia.w	sp!, {r3, r4, r5, lr}
   d9290:	f002 be74 	b.w	dbf7c <_ZdlPvj>
   d9294:	bd38      	pop	{r3, r4, r5, pc}

000d9296 <_ZN8particle11PromiseBaseIbNS_6detail13FutureContextEE11fromDataPtrEPv>:
        // TODO: Use custom reference counting object to avoid unnecessary memory allocation
        return new detail::FutureImplPtr<ResultT, ContextT>(p_);
    }

    // Unwraps promise from an object pointer created via dataPtr() method
    static Promise<ResultT, ContextT> fromDataPtr(void* data) {
   d9296:	b573      	push	{r0, r1, r4, r5, r6, lr}
      __shared_ptr(const __shared_ptr&) noexcept = default;
   d9298:	460e      	mov	r6, r1
   d929a:	4604      	mov	r4, r0
   d929c:	f856 3b04 	ldr.w	r3, [r6], #4
   d92a0:	9300      	str	r3, [sp, #0]
   d92a2:	460d      	mov	r5, r1
   d92a4:	a801      	add	r0, sp, #4
   d92a6:	4631      	mov	r1, r6
   d92a8:	f7ff fe61 	bl	d8f6e <_ZNSt14__shared_countILN9__gnu_cxx12_Lock_policyE0EEC1ERKS2_>
	_Sp_counted_base<_Lp>* __tmp = __r._M_pi;
   d92ac:	9a01      	ldr	r2, [sp, #4]
	__shared_ptr(const __shared_ptr<_Yp, _Lp>& __r) noexcept
	: _M_ptr(__r._M_ptr), _M_refcount(__r._M_refcount)
	{ }

      __shared_ptr(__shared_ptr&& __r) noexcept
      : _M_ptr(__r._M_ptr), _M_refcount()
   d92ae:	9b00      	ldr	r3, [sp, #0]
	_M_pi = __tmp;
   d92b0:	6062      	str	r2, [r4, #4]
      : _M_ptr(__r._M_ptr), _M_refcount()
   d92b2:	6023      	str	r3, [r4, #0]
      ~__shared_ptr() = default;
   d92b4:	a801      	add	r0, sp, #4
	__r._M_pi = _M_pi;
   d92b6:	2300      	movs	r3, #0
   d92b8:	9301      	str	r3, [sp, #4]
      {
	_M_refcount._M_swap(__r._M_refcount);
	__r._M_ptr = 0;
   d92ba:	9300      	str	r3, [sp, #0]
      ~__shared_ptr() = default;
   d92bc:	f7fb fc38 	bl	d4b30 <_ZNSt14__shared_countILN9__gnu_cxx12_Lock_policyE0EED1Ev>
   d92c0:	4630      	mov	r0, r6
   d92c2:	f7fb fc35 	bl	d4b30 <_ZNSt14__shared_countILN9__gnu_cxx12_Lock_policyE0EED1Ev>
        auto d = static_cast<detail::FutureImplPtr<ResultT, ContextT>*>(data);
        const Promise<ResultT, ContextT> p(*d);
        delete d;
   d92c6:	4628      	mov	r0, r5
   d92c8:	2108      	movs	r1, #8
   d92ca:	f002 fe57 	bl	dbf7c <_ZdlPvj>
        return p;
    }
   d92ce:	4620      	mov	r0, r4
   d92d0:	b002      	add	sp, #8
   d92d2:	bd70      	pop	{r4, r5, r6, pc}

000d92d4 <_ZSt4swapISt9_Any_dataENSt9enable_ifIXsrSt6__and_IJSt6__not_ISt15__is_tuple_likeIT_EESt21is_move_constructibleIS5_ESt18is_move_assignableIS5_EEE5valueEvE4typeERS5_SF_>:
    swap(_Tp& __a, _Tp& __b)
   d92d4:	b513      	push	{r0, r1, r4, lr}
   d92d6:	460b      	mov	r3, r1
   d92d8:	4602      	mov	r2, r0
      _Tp __tmp = _GLIBCXX_MOVE(__a);
   d92da:	e9d0 0100 	ldrd	r0, r1, [r0]
   d92de:	466c      	mov	r4, sp
   d92e0:	e884 0003 	stmia.w	r4, {r0, r1}
      __a = _GLIBCXX_MOVE(__b);
   d92e4:	e893 0003 	ldmia.w	r3, {r0, r1}
   d92e8:	e882 0003 	stmia.w	r2, {r0, r1}
      __b = _GLIBCXX_MOVE(__tmp);
   d92ec:	e894 0003 	ldmia.w	r4, {r0, r1}
   d92f0:	e883 0003 	stmia.w	r3, {r0, r1}
    }
   d92f4:	b002      	add	sp, #8
   d92f6:	bd10      	pop	{r4, pc}

000d92f8 <_ZNKSt8functionIFvRKN8particle5ErrorEEEclES3_>:
      if (_M_empty())
   d92f8:	6882      	ldr	r2, [r0, #8]
    function<_Res(_ArgTypes...)>::
   d92fa:	b510      	push	{r4, lr}
      if (_M_empty())
   d92fc:	b90a      	cbnz	r2, d9302 <_ZNKSt8functionIFvRKN8particle5ErrorEEEclES3_+0xa>
	__throw_bad_function_call();
   d92fe:	f002 fe49 	bl	dbf94 <_ZSt25__throw_bad_function_callv>
    }
   d9302:	e8bd 4010 	ldmia.w	sp!, {r4, lr}
      return _M_invoker(_M_functor, std::forward<_ArgTypes>(__args)...);
   d9306:	68c3      	ldr	r3, [r0, #12]
   d9308:	4718      	bx	r3

000d930a <_ZNSt17_Function_handlerIFvvESt5_BindIFSt8functionIFvRKN8particle5ErrorEEES4_EEE9_M_invokeERKSt9_Any_data>:
      _M_invoke(const _Any_data& __functor, _ArgTypes&&... __args)
   d930a:	b508      	push	{r3, lr}
	    return __source._M_access<_Functor*>();
   d930c:	6800      	ldr	r0, [r0, #0]
    { return static_cast<_Up&&>(__t); }

  template<typename _Res, typename _Fn, typename... _Args>
    constexpr _Res
    __invoke_impl(__invoke_other, _Fn&& __f, _Args&&... __args)
    { return std::forward<_Fn>(__f)(std::forward<_Args>(__args)...); }
   d930e:	f100 0110 	add.w	r1, r0, #16
   d9312:	f7ff fff1 	bl	d92f8 <_ZNKSt8functionIFvRKN8particle5ErrorEEEclES3_>
      }
   d9316:	bd08      	pop	{r3, pc}

000d9318 <_ZNKSt8functionIFvRKbEEclES1_>:
      if (_M_empty())
   d9318:	6882      	ldr	r2, [r0, #8]
    function<_Res(_ArgTypes...)>::
   d931a:	b510      	push	{r4, lr}
      if (_M_empty())
   d931c:	b90a      	cbnz	r2, d9322 <_ZNKSt8functionIFvRKbEEclES1_+0xa>
	__throw_bad_function_call();
   d931e:	f002 fe39 	bl	dbf94 <_ZSt25__throw_bad_function_callv>
    }
   d9322:	e8bd 4010 	ldmia.w	sp!, {r4, lr}
      return _M_invoker(_M_functor, std::forward<_ArgTypes>(__args)...);
   d9326:	68c3      	ldr	r3, [r0, #12]
   d9328:	4718      	bx	r3

000d932a <_ZNSt17_Function_handlerIFvvESt5_BindIFSt8functionIFvRKbEEbEEE9_M_invokeERKSt9_Any_data>:
      _M_invoke(const _Any_data& __functor, _ArgTypes&&... __args)
   d932a:	b508      	push	{r3, lr}
	    return __source._M_access<_Functor*>();
   d932c:	6800      	ldr	r0, [r0, #0]
   d932e:	f100 0110 	add.w	r1, r0, #16
   d9332:	f7ff fff1 	bl	d9318 <_ZNKSt8functionIFvRKbEEclES1_>
      }
   d9336:	bd08      	pop	{r3, pc}

000d9338 <_ZNSt14__shared_countILN9__gnu_cxx12_Lock_policyE0EEC1IPN8particle6detail10FutureImplIbNS5_13FutureContextEEEEET_>:
	__shared_count(_Ptr __p) : _M_pi(0)
   d9338:	b538      	push	{r3, r4, r5, lr}
   d933a:	2300      	movs	r3, #0
   d933c:	4604      	mov	r4, r0
   d933e:	6003      	str	r3, [r0, #0]
	      _M_pi = new _Sp_counted_ptr<_Ptr, _Lp>(__p);
   d9340:	2010      	movs	r0, #16
	__shared_count(_Ptr __p) : _M_pi(0)
   d9342:	460d      	mov	r5, r1
	      _M_pi = new _Sp_counted_ptr<_Ptr, _Lp>(__p);
   d9344:	f7fa fea7 	bl	d4096 <_Znwj>
   d9348:	b128      	cbz	r0, d9356 <_ZNSt14__shared_countILN9__gnu_cxx12_Lock_policyE0EEC1IPN8particle6detail10FutureImplIbNS5_13FutureContextEEEEET_+0x1e>
      : _M_use_count(1), _M_weak_count(1) { }
   d934a:	2301      	movs	r3, #1
   d934c:	e9c0 3301 	strd	r3, r3, [r0, #4]
      : _M_ptr(__p) { }
   d9350:	4b02      	ldr	r3, [pc, #8]	; (d935c <_ZNSt14__shared_countILN9__gnu_cxx12_Lock_policyE0EEC1IPN8particle6detail10FutureImplIbNS5_13FutureContextEEEEET_+0x24>)
   d9352:	6003      	str	r3, [r0, #0]
   d9354:	60c5      	str	r5, [r0, #12]
	      _M_pi = new _Sp_counted_ptr<_Ptr, _Lp>(__p);
   d9356:	6020      	str	r0, [r4, #0]
	}
   d9358:	4620      	mov	r0, r4
   d935a:	bd38      	pop	{r3, r4, r5, pc}
   d935c:	000dd84c 	.word	0x000dd84c

000d9360 <_ZNSt8functionIFvRKN8particle5ErrorEEEC1ERKS5_>:
    function<_Res(_ArgTypes...)>::
   d9360:	b538      	push	{r3, r4, r5, lr}
    _Function_base() : _M_manager(nullptr) { }
   d9362:	2300      	movs	r3, #0
   d9364:	6083      	str	r3, [r0, #8]
      { return !_M_empty(); }
   d9366:	688b      	ldr	r3, [r1, #8]
    function<_Res(_ArgTypes...)>::
   d9368:	4604      	mov	r4, r0
   d936a:	460d      	mov	r5, r1
      if (static_cast<bool>(__x))
   d936c:	b12b      	cbz	r3, d937a <_ZNSt8functionIFvRKN8particle5ErrorEEEC1ERKS5_+0x1a>
	  __x._M_manager(_M_functor, __x._M_functor, __clone_functor);
   d936e:	2202      	movs	r2, #2
   d9370:	4798      	blx	r3
	  _M_invoker = __x._M_invoker;
   d9372:	68eb      	ldr	r3, [r5, #12]
   d9374:	60e3      	str	r3, [r4, #12]
	  _M_manager = __x._M_manager;
   d9376:	68ab      	ldr	r3, [r5, #8]
   d9378:	60a3      	str	r3, [r4, #8]
    }
   d937a:	4620      	mov	r0, r4
   d937c:	bd38      	pop	{r3, r4, r5, pc}
	...

000d9380 <_ZN8particle11PromiseBaseIbNS_6detail13FutureContextEE8setErrorENS_5ErrorE>:
    void setError(Error error) {
   d9380:	b5f0      	push	{r4, r5, r6, r7, lr}
   d9382:	b089      	sub	sp, #36	; 0x24
      { return static_cast<const __shared_ptr<_Tp, _Lp>*>(this)->get(); }
   d9384:	6804      	ldr	r4, [r0, #0]
        p_->setError(std::move(error));
   d9386:	4668      	mov	r0, sp
   d9388:	f7ff ff4e 	bl	d9228 <_ZN8particle5ErrorC1EOS0_>

      bool
      compare_exchange_strong(_Tp& __e, _Tp __i, memory_order __s,
			      memory_order __f) noexcept
      {
	return __atomic_compare_exchange(std::__addressof(_M_i),
   d938c:	f04f 0302 	mov.w	r3, #2
   d9390:	e8d4 2f4f 	ldrexb	r2, [r4]
   d9394:	2a00      	cmp	r2, #0
   d9396:	d103      	bne.n	d93a0 <_ZN8particle11PromiseBaseIbNS_6detail13FutureContextEE8setErrorENS_5ErrorE+0x20>
   d9398:	e8c4 3f41 	strexb	r1, r3, [r4]
   d939c:	2900      	cmp	r1, #0
   d939e:	d1f7      	bne.n	d9390 <_ZN8particle11PromiseBaseIbNS_6detail13FutureContextEE8setErrorENS_5ErrorE+0x10>
        if (this->changeState(State::FAILED)) {
   d93a0:	d125      	bne.n	d93ee <_ZN8particle11PromiseBaseIbNS_6detail13FutureContextEE8setErrorENS_5ErrorE+0x6e>
            new(&error_) Error(std::move(error));
   d93a2:	f104 050c 	add.w	r5, r4, #12
   d93a6:	4669      	mov	r1, sp
   d93a8:	4628      	mov	r0, r5
   d93aa:	f7ff ff3d 	bl	d9228 <_ZN8particle5ErrorC1EOS0_>
	__atomic_store_n(&_M_i, __i, int(__m));
   d93ae:	f3bf 8f5b 	dmb	ish
   d93b2:	2301      	movs	r3, #1
   d93b4:	7063      	strb	r3, [r4, #1]

      _GLIBCXX_ALWAYS_INLINE __pointer_type
      exchange(__pointer_type __p,
	       memory_order __m = memory_order_seq_cst) noexcept
      {
	return __atomic_exchange_n(&_M_p, __p, int(__m));
   d93b6:	2000      	movs	r0, #0
   d93b8:	f104 0308 	add.w	r3, r4, #8
   d93bc:	f3bf 8f5b 	dmb	ish
   d93c0:	e853 6f00 	ldrex	r6, [r3]
   d93c4:	e843 0200 	strex	r2, r0, [r3]
   d93c8:	2a00      	cmp	r2, #0
   d93ca:	d1f9      	bne.n	d93c0 <_ZN8particle11PromiseBaseIbNS_6detail13FutureContextEE8setErrorENS_5ErrorE+0x40>
   d93cc:	f3bf 8f5b 	dmb	ish
        if (callbackPtr) {
   d93d0:	b16e      	cbz	r6, d93ee <_ZN8particle11PromiseBaseIbNS_6detail13FutureContextEE8setErrorENS_5ErrorE+0x6e>
        return (application_thread_current(nullptr) != 0);
   d93d2:	f7ff fc6d 	bl	d8cb0 <application_thread_current>
        if (ContextT::isApplicationThreadCurrent()) {
   d93d6:	b178      	cbz	r0, d93f8 <_ZN8particle11PromiseBaseIbNS_6detail13FutureContextEE8setErrorENS_5ErrorE+0x78>
            callback(std::forward<ArgsT>(args)...); // Synchronous call
   d93d8:	4629      	mov	r1, r5
   d93da:	4630      	mov	r0, r6
   d93dc:	f7ff ff8c 	bl	d92f8 <_ZNKSt8functionIFvRKN8particle5ErrorEEEclES3_>
    class function<_Res(_ArgTypes...)>
   d93e0:	4630      	mov	r0, r6
   d93e2:	f7ff ff18 	bl	d9216 <_ZNSt14_Function_baseD1Ev>
            delete callbackPtr;
   d93e6:	2110      	movs	r1, #16
   d93e8:	4630      	mov	r0, r6
   d93ea:	f002 fdc7 	bl	dbf7c <_ZdlPvj>
        p_->setError(std::move(error));
   d93ee:	4668      	mov	r0, sp
   d93f0:	f7ff ff27 	bl	d9242 <_ZN8particle5ErrorD1Ev>
    }
   d93f4:	b009      	add	sp, #36	; 0x24
   d93f6:	bdf0      	pop	{r4, r5, r6, r7, pc}
	  typename __cv_quals<_Bound_args>::type...>;

     public:
      template<typename... _Args>
	explicit _Bind(const _Functor& __f, _Args&&... __args)
	: _M_f(__f), _M_bound_args(std::forward<_Args>(__args)...)
   d93f8:	4631      	mov	r1, r6
   d93fa:	a802      	add	r0, sp, #8
   d93fc:	f7ff ffb0 	bl	d9360 <_ZNSt8functionIFvRKN8particle5ErrorEEEC1ERKS5_>
        Error(error.type_, error.msg_) {
   d9400:	68e0      	ldr	r0, [r4, #12]
   d9402:	f9b4 5010 	ldrsh.w	r5, [r4, #16]
        msg_(msg ? (const char*)strdup(msg) : nullptr),
   d9406:	b108      	cbz	r0, d940c <_ZN8particle11PromiseBaseIbNS_6detail13FutureContextEE8setErrorENS_5ErrorE+0x8c>
   d9408:	f003 faf6 	bl	dc9f8 <strdup>
        type_(type) {
   d940c:	9006      	str	r0, [sp, #24]
            auto callbackPtr = new std::function<void()>(std::bind(callback, std::forward<ArgsT>(args)...));
   d940e:	2010      	movs	r0, #16
   d9410:	f8ad 501c 	strh.w	r5, [sp, #28]
   d9414:	f7fa fe3f 	bl	d4096 <_Znwj>
   d9418:	4605      	mov	r5, r0
   d941a:	b1e8      	cbz	r0, d9458 <_ZN8particle11PromiseBaseIbNS_6detail13FutureContextEE8setErrorENS_5ErrorE+0xd8>
    _Function_base() : _M_manager(nullptr) { }
   d941c:	2700      	movs	r7, #0
   d941e:	6087      	str	r7, [r0, #8]
	{ __functor._M_access<_Functor*>() = new _Functor(std::move(__f)); }
   d9420:	2018      	movs	r0, #24
   d9422:	f7fa fe38 	bl	d4096 <_Znwj>
   d9426:	4604      	mov	r4, r0
   d9428:	b188      	cbz	r0, d944e <_ZN8particle11PromiseBaseIbNS_6detail13FutureContextEE8setErrorENS_5ErrorE+0xce>
	std::swap(_M_functor, __x._M_functor);
   d942a:	4601      	mov	r1, r0
    _Function_base() : _M_manager(nullptr) { }
   d942c:	6087      	str	r7, [r0, #8]
	std::swap(_M_functor, __x._M_functor);
   d942e:	a802      	add	r0, sp, #8
   d9430:	f7ff ff50 	bl	d92d4 <_ZSt4swapISt9_Any_dataENSt9enable_ifIXsrSt6__and_IJSt6__not_ISt15__is_tuple_likeIT_EESt21is_move_constructibleIS5_ESt18is_move_assignableIS5_EEE5valueEvE4typeERS5_SF_>
      _Tp __tmp = _GLIBCXX_MOVE(__a);
   d9434:	9b04      	ldr	r3, [sp, #16]
      __a = _GLIBCXX_MOVE(__b);
   d9436:	68a2      	ldr	r2, [r4, #8]
      __b = _GLIBCXX_MOVE(__tmp);
   d9438:	60a3      	str	r3, [r4, #8]
      _Tp __tmp = _GLIBCXX_MOVE(__a);
   d943a:	9b05      	ldr	r3, [sp, #20]
      __a = _GLIBCXX_MOVE(__b);
   d943c:	9204      	str	r2, [sp, #16]
      constexpr _Head_base(const _Head_base&) = default;
      constexpr _Head_base(_Head_base&&) = default;

      template<typename _UHead>
        constexpr _Head_base(_UHead&& __h)
	: _M_head_impl(std::forward<_UHead>(__h)) { }
   d943e:	a906      	add	r1, sp, #24
   d9440:	68e2      	ldr	r2, [r4, #12]
      __b = _GLIBCXX_MOVE(__tmp);
   d9442:	60e3      	str	r3, [r4, #12]
   d9444:	f104 0010 	add.w	r0, r4, #16
      __a = _GLIBCXX_MOVE(__b);
   d9448:	9205      	str	r2, [sp, #20]
   d944a:	f7ff feed 	bl	d9228 <_ZN8particle5ErrorC1EOS0_>
	    _M_invoker = &_My_handler::_M_invoke;
   d944e:	4b08      	ldr	r3, [pc, #32]	; (d9470 <_ZN8particle11PromiseBaseIbNS_6detail13FutureContextEE8setErrorENS_5ErrorE+0xf0>)
   d9450:	60eb      	str	r3, [r5, #12]
	    _M_manager = &_My_handler::_M_manager;
   d9452:	4b08      	ldr	r3, [pc, #32]	; (d9474 <_ZN8particle11PromiseBaseIbNS_6detail13FutureContextEE8setErrorENS_5ErrorE+0xf4>)
	{ __functor._M_access<_Functor*>() = new _Functor(std::move(__f)); }
   d9454:	602c      	str	r4, [r5, #0]
	    _M_manager = &_My_handler::_M_manager;
   d9456:	60ab      	str	r3, [r5, #8]
    struct _Head_base<_Idx, _Head, false>
   d9458:	a806      	add	r0, sp, #24
   d945a:	f7ff fef2 	bl	d9242 <_ZN8particle5ErrorD1Ev>
    class function<_Res(_ArgTypes...)>
   d945e:	a802      	add	r0, sp, #8
   d9460:	f7ff fed9 	bl	d9216 <_ZNSt14_Function_baseD1Ev>
        return (application_thread_invoke(callback, data, nullptr) == 0);
   d9464:	2200      	movs	r2, #0
   d9466:	4629      	mov	r1, r5
   d9468:	4803      	ldr	r0, [pc, #12]	; (d9478 <_ZN8particle11PromiseBaseIbNS_6detail13FutureContextEE8setErrorENS_5ErrorE+0xf8>)
   d946a:	f7ff fc29 	bl	d8cc0 <application_thread_invoke>
   d946e:	e7b7      	b.n	d93e0 <_ZN8particle11PromiseBaseIbNS_6detail13FutureContextEE8setErrorENS_5ErrorE+0x60>
   d9470:	000d930b 	.word	0x000d930b
   d9474:	000d95a1 	.word	0x000d95a1
   d9478:	000d8f47 	.word	0x000d8f47

000d947c <_ZN10CloudClass13publish_eventEPKcS1_iN8particle5FlagsI15PublishFlagTypehEE>:
    desc.data = (void*)data;
    desc.funcKey = funcKey;
    return spark_function(NULL, (user_function_int_str_t*)&desc, NULL);
}

Future<bool> CloudClass::publish_event(const char *eventName, const char *eventData, int ttl, PublishFlags flags) {
   d947c:	e92d 47f0 	stmdb	sp!, {r4, r5, r6, r7, r8, r9, sl, lr}
   d9480:	b08a      	sub	sp, #40	; 0x28
   d9482:	4605      	mov	r5, r0
   d9484:	f89d 9048 	ldrb.w	r9, [sp, #72]	; 0x48
   d9488:	460c      	mov	r4, r1
   d948a:	4617      	mov	r7, r2
   d948c:	4698      	mov	r8, r3
    static void sleep(Spark_Sleep_TypeDef sleepMode, long seconds=0) __attribute__ ((deprecated("Please use System.sleep() instead.")))
    { SystemClass::sleep(sleepMode, seconds); }
    static void sleep(uint16_t wakeUpPin, InterruptMode edgeTriggerMode, long seconds=0) __attribute__ ((deprecated("Please use System.sleep() instead.")))
    { SystemClass::sleep(wakeUpPin, edgeTriggerMode, seconds); }

    static bool connected(void) { return spark_cloud_flag_connected(); }
   d948e:	f7ff fc5f 	bl	d8d50 <spark_cloud_flag_connected>
   d9492:	ae07      	add	r6, sp, #28
    if (!connected()) {
   d9494:	4682      	mov	sl, r0
   d9496:	bb38      	cbnz	r0, d94e8 <_ZN10CloudClass13publish_eventEPKcS1_iN8particle5FlagsI15PublishFlagTypehEE+0x6c>
        type_(type) {
   d9498:	f64f 732e 	movw	r3, #65326	; 0xff2e
   d949c:	9005      	str	r0, [sp, #20]
    typedef typename detail::FutureImpl<ResultT, ContextT>::OnSuccessCallback OnSuccessCallback;
    typedef typename detail::FutureImpl<ResultT, ContextT>::OnErrorCallback OnErrorCallback;

    // Construct failed future
    explicit FutureBase(Error error) :
            p_(new detail::FutureImpl<ResultT, ContextT>(std::move(error))) {
   d949e:	a905      	add	r1, sp, #20
   d94a0:	4630      	mov	r0, r6
   d94a2:	f8ad 3018 	strh.w	r3, [sp, #24]
   d94a6:	f7ff febf 	bl	d9228 <_ZN8particle5ErrorC1EOS0_>
   d94aa:	2014      	movs	r0, #20
   d94ac:	f7fa fdf3 	bl	d4096 <_Znwj>
   d94b0:	4604      	mov	r4, r0
   d94b2:	b148      	cbz	r0, d94c8 <_ZN10CloudClass13publish_eventEPKcS1_iN8particle5FlagsI15PublishFlagTypehEE+0x4c>
      constexpr atomic(_Tp __i) noexcept : _M_i(__i) { }
   d94b4:	2302      	movs	r3, #2
   d94b6:	7003      	strb	r3, [r0, #0]
      constexpr __atomic_base(__int_type __i) noexcept : _M_i (__i) { }
   d94b8:	2301      	movs	r3, #1
      constexpr __atomic_base(__pointer_type __p) noexcept : _M_p (__p) { }
   d94ba:	e9c0 aa01 	strd	sl, sl, [r0, #4]
      constexpr __atomic_base(__int_type __i) noexcept : _M_i (__i) { }
   d94be:	7043      	strb	r3, [r0, #1]
            error_(std::move(error)) {
   d94c0:	4631      	mov	r1, r6
   d94c2:	300c      	adds	r0, #12
   d94c4:	f7ff feb0 	bl	d9228 <_ZN8particle5ErrorC1EOS0_>
	: _M_ptr(__p), _M_refcount(__p, typename is_array<_Tp>::type())
   d94c8:	4628      	mov	r0, r5
	: __shared_count(__p)
   d94ca:	4621      	mov	r1, r4
	: _M_ptr(__p), _M_refcount(__p, typename is_array<_Tp>::type())
   d94cc:	f840 4b04 	str.w	r4, [r0], #4
	: __shared_count(__p)
   d94d0:	f7ff ff32 	bl	d9338 <_ZNSt14__shared_countILN9__gnu_cxx12_Lock_policyE0EEC1IPN8particle6detail10FutureImplIbNS5_13FutureContextEEEEET_>
            p_(new detail::FutureImpl<ResultT, ContextT>(std::move(error))) {
   d94d4:	4630      	mov	r0, r6
   d94d6:	f7ff feb4 	bl	d9242 <_ZN8particle5ErrorD1Ev>
    }

    explicit FutureBase(Error::Type error) :
            FutureBase(Error(error)) {
   d94da:	a805      	add	r0, sp, #20
   d94dc:	f7ff feb1 	bl	d9242 <_ZN8particle5ErrorD1Ev>
        p.setError(Error::UNKNOWN);
        p.fromDataPtr(d.handler_data); // Free wrapper object
    }

    return p.future();
}
   d94e0:	4628      	mov	r0, r5
   d94e2:	b00a      	add	sp, #40	; 0x28
   d94e4:	e8bd 87f0 	ldmia.w	sp!, {r4, r5, r6, r7, r8, r9, sl, pc}
    spark_send_event_data d = { sizeof(spark_send_event_data) };
   d94e8:	230c      	movs	r3, #12
   d94ea:	f04f 0a00 	mov.w	sl, #0
            p_(new detail::FutureImpl<ResultT, ContextT>(State::RUNNING)) {
   d94ee:	2014      	movs	r0, #20
   d94f0:	e9cd aa08 	strd	sl, sl, [sp, #32]
   d94f4:	9307      	str	r3, [sp, #28]
   d94f6:	f7fa fdce 	bl	d4096 <_Znwj>
   d94fa:	4601      	mov	r1, r0
   d94fc:	b128      	cbz	r0, d950a <_ZN10CloudClass13publish_eventEPKcS1_iN8particle5FlagsI15PublishFlagTypehEE+0x8e>
      constexpr __atomic_base(__pointer_type __p) noexcept : _M_p (__p) { }
   d94fe:	e9c0 aa01 	strd	sl, sl, [r0, #4]
   d9502:	f880 a000 	strb.w	sl, [r0]
      constexpr __atomic_base(__int_type __i) noexcept : _M_i (__i) { }
   d9506:	f880 a001 	strb.w	sl, [r0, #1]
   d950a:	a804      	add	r0, sp, #16
	: _M_ptr(__p), _M_refcount(__p, typename is_array<_Tp>::type())
   d950c:	9103      	str	r1, [sp, #12]
	: __shared_count(__p)
   d950e:	f7ff ff13 	bl	d9338 <_ZNSt14__shared_countILN9__gnu_cxx12_Lock_policyE0EEC1IPN8particle6detail10FutureImplIbNS5_13FutureContextEEEEET_>
    d.handler_callback = publishCompletionCallback;
   d9512:	4b22      	ldr	r3, [pc, #136]	; (d959c <_ZN10CloudClass13publish_eventEPKcS1_iN8particle5FlagsI15PublishFlagTypehEE+0x120>)
   d9514:	9308      	str	r3, [sp, #32]
        return new detail::FutureImplPtr<ResultT, ContextT>(p_);
   d9516:	2008      	movs	r0, #8
   d9518:	f7fa fdbd 	bl	d4096 <_Znwj>
   d951c:	4682      	mov	sl, r0
   d951e:	b128      	cbz	r0, d952c <_ZN10CloudClass13publish_eventEPKcS1_iN8particle5FlagsI15PublishFlagTypehEE+0xb0>
      __shared_ptr(const __shared_ptr&) noexcept = default;
   d9520:	9b03      	ldr	r3, [sp, #12]
   d9522:	f840 3b04 	str.w	r3, [r0], #4
   d9526:	a904      	add	r1, sp, #16
   d9528:	f7ff fd21 	bl	d8f6e <_ZNSt14__shared_countILN9__gnu_cxx12_Lock_policyE0EEC1ERKS2_>
    if (!spark_send_event(eventName, eventData, ttl, flags.value(), &d) && !p.isDone()) {
   d952c:	9600      	str	r6, [sp, #0]
   d952e:	fa5f f389 	uxtb.w	r3, r9
   d9532:	4642      	mov	r2, r8
   d9534:	4639      	mov	r1, r7
   d9536:	4620      	mov	r0, r4
    d.handler_data = p.dataPtr();
   d9538:	f8cd a024 	str.w	sl, [sp, #36]	; 0x24
    if (!spark_send_event(eventName, eventData, ttl, flags.value(), &d) && !p.isDone()) {
   d953c:	f7ff fc10 	bl	d8d60 <spark_send_event>
   d9540:	b9b8      	cbnz	r0, d9572 <_ZN10CloudClass13publish_eventEPKcS1_iN8particle5FlagsI15PublishFlagTypehEE+0xf6>
	return __atomic_load_n(&_M_i, int(__m));
   d9542:	9b03      	ldr	r3, [sp, #12]
   d9544:	785b      	ldrb	r3, [r3, #1]
   d9546:	f003 02ff 	and.w	r2, r3, #255	; 0xff
   d954a:	b993      	cbnz	r3, d9572 <_ZN10CloudClass13publish_eventEPKcS1_iN8particle5FlagsI15PublishFlagTypehEE+0xf6>
   d954c:	f64f 739c 	movw	r3, #65436	; 0xff9c
        p.setError(Error::UNKNOWN);
   d9550:	a905      	add	r1, sp, #20
   d9552:	a803      	add	r0, sp, #12
   d9554:	9205      	str	r2, [sp, #20]
   d9556:	f8ad 3018 	strh.w	r3, [sp, #24]
   d955a:	f7ff ff11 	bl	d9380 <_ZN8particle11PromiseBaseIbNS_6detail13FutureContextEE8setErrorENS_5ErrorE>
   d955e:	a805      	add	r0, sp, #20
   d9560:	f7ff fe6f 	bl	d9242 <_ZN8particle5ErrorD1Ev>
        p.fromDataPtr(d.handler_data); // Free wrapper object
   d9564:	a805      	add	r0, sp, #20
   d9566:	9909      	ldr	r1, [sp, #36]	; 0x24
   d9568:	f7ff fe95 	bl	d9296 <_ZN8particle11PromiseBaseIbNS_6detail13FutureContextEE11fromDataPtrEPv>
      ~__shared_ptr() = default;
   d956c:	a806      	add	r0, sp, #24
   d956e:	f7fb fadf 	bl	d4b30 <_ZNSt14__shared_countILN9__gnu_cxx12_Lock_policyE0EED1Ev>
      __shared_ptr(const __shared_ptr&) noexcept = default;
   d9572:	9b03      	ldr	r3, [sp, #12]
   d9574:	9305      	str	r3, [sp, #20]
   d9576:	a904      	add	r1, sp, #16
   d9578:	a806      	add	r0, sp, #24
   d957a:	f7ff fcf8 	bl	d8f6e <_ZNSt14__shared_countILN9__gnu_cxx12_Lock_policyE0EEC1ERKS2_>
      : _M_ptr(__r._M_ptr), _M_refcount()
   d957e:	9b05      	ldr	r3, [sp, #20]
	_Sp_counted_base<_Lp>* __tmp = __r._M_pi;
   d9580:	9a06      	ldr	r2, [sp, #24]
      : _M_ptr(__r._M_ptr), _M_refcount()
   d9582:	602b      	str	r3, [r5, #0]
	_M_pi = __tmp;
   d9584:	606a      	str	r2, [r5, #4]
	__r._M_pi = _M_pi;
   d9586:	2300      	movs	r3, #0
      ~__shared_ptr() = default;
   d9588:	a806      	add	r0, sp, #24
	__r._M_pi = _M_pi;
   d958a:	9306      	str	r3, [sp, #24]
	__r._M_ptr = 0;
   d958c:	9305      	str	r3, [sp, #20]
      ~__shared_ptr() = default;
   d958e:	f7fb facf 	bl	d4b30 <_ZNSt14__shared_countILN9__gnu_cxx12_Lock_policyE0EED1Ev>
   d9592:	a804      	add	r0, sp, #16
   d9594:	f7fb facc 	bl	d4b30 <_ZNSt14__shared_countILN9__gnu_cxx12_Lock_policyE0EED1Ev>
class Promise: public PromiseBase<ResultT, ContextT> {
   d9598:	e7a2      	b.n	d94e0 <_ZN10CloudClass13publish_eventEPKcS1_iN8particle5FlagsI15PublishFlagTypehEE+0x64>
   d959a:	bf00      	nop
   d959c:	000d9665 	.word	0x000d9665

000d95a0 <_ZNSt14_Function_base13_Base_managerISt5_BindIFSt8functionIFvRKN8particle5ErrorEEES4_EEE10_M_managerERSt9_Any_dataRKSC_St18_Manager_operation>:
	  switch (__op)
   d95a0:	2a02      	cmp	r2, #2
	_M_manager(_Any_data& __dest, const _Any_data& __source,
   d95a2:	b5f8      	push	{r3, r4, r5, r6, r7, lr}
   d95a4:	4605      	mov	r5, r0
	  switch (__op)
   d95a6:	d007      	beq.n	d95b8 <_ZNSt14_Function_base13_Base_managerISt5_BindIFSt8functionIFvRKN8particle5ErrorEEES4_EEE10_M_managerERSt9_Any_dataRKSC_St18_Manager_operation+0x18>
   d95a8:	2a03      	cmp	r2, #3
   d95aa:	d018      	beq.n	d95de <_ZNSt14_Function_base13_Base_managerISt5_BindIFSt8functionIFvRKN8particle5ErrorEEES4_EEE10_M_managerERSt9_Any_dataRKSC_St18_Manager_operation+0x3e>
   d95ac:	2a01      	cmp	r2, #1
   d95ae:	d101      	bne.n	d95b4 <_ZNSt14_Function_base13_Base_managerISt5_BindIFSt8functionIFvRKN8particle5ErrorEEES4_EEE10_M_managerERSt9_Any_dataRKSC_St18_Manager_operation+0x14>
	    return __source._M_access<_Functor*>();
   d95b0:	680b      	ldr	r3, [r1, #0]
	      __dest._M_access<_Functor*>() = _M_get_pointer(__source);
   d95b2:	6003      	str	r3, [r0, #0]
	}
   d95b4:	2000      	movs	r0, #0
   d95b6:	bdf8      	pop	{r3, r4, r5, r6, r7, pc}
	    new _Functor(*__source._M_access<const _Functor*>());
   d95b8:	2018      	movs	r0, #24
	  __dest._M_access<_Functor*>() =
   d95ba:	680e      	ldr	r6, [r1, #0]
	    new _Functor(*__source._M_access<const _Functor*>());
   d95bc:	f7fa fd6b 	bl	d4096 <_Znwj>
   d95c0:	4604      	mov	r4, r0
   d95c2:	b150      	cbz	r0, d95da <_ZNSt14_Function_base13_Base_managerISt5_BindIFSt8functionIFvRKN8particle5ErrorEEES4_EEE10_M_managerERSt9_Any_dataRKSC_St18_Manager_operation+0x3a>
      template<typename... _Args>
	explicit _Bind(_Functor&& __f, _Args&&... __args)
	: _M_f(std::move(__f)), _M_bound_args(std::forward<_Args>(__args)...)
	{ }

      _Bind(const _Bind&) = default;
   d95c4:	4631      	mov	r1, r6
   d95c6:	f7ff fecb 	bl	d9360 <_ZNSt8functionIFvRKN8particle5ErrorEEEC1ERKS5_>
        Error(error.type_, error.msg_) {
   d95ca:	6930      	ldr	r0, [r6, #16]
   d95cc:	f9b6 7014 	ldrsh.w	r7, [r6, #20]
        msg_(msg ? (const char*)strdup(msg) : nullptr),
   d95d0:	b108      	cbz	r0, d95d6 <_ZNSt14_Function_base13_Base_managerISt5_BindIFSt8functionIFvRKN8particle5ErrorEEES4_EEE10_M_managerERSt9_Any_dataRKSC_St18_Manager_operation+0x36>
   d95d2:	f003 fa11 	bl	dc9f8 <strdup>
        type_(type) {
   d95d6:	6120      	str	r0, [r4, #16]
   d95d8:	82a7      	strh	r7, [r4, #20]
	  __dest._M_access<_Functor*>() =
   d95da:	602c      	str	r4, [r5, #0]
	}
   d95dc:	e7ea      	b.n	d95b4 <_ZNSt14_Function_base13_Base_managerISt5_BindIFSt8functionIFvRKN8particle5ErrorEEES4_EEE10_M_managerERSt9_Any_dataRKSC_St18_Manager_operation+0x14>
	  delete __victim._M_access<_Functor*>();
   d95de:	6804      	ldr	r4, [r0, #0]
   d95e0:	2c00      	cmp	r4, #0
   d95e2:	d0e7      	beq.n	d95b4 <_ZNSt14_Function_base13_Base_managerISt5_BindIFSt8functionIFvRKN8particle5ErrorEEES4_EEE10_M_managerERSt9_Any_dataRKSC_St18_Manager_operation+0x14>
   d95e4:	f104 0010 	add.w	r0, r4, #16
   d95e8:	f7ff fe2b 	bl	d9242 <_ZN8particle5ErrorD1Ev>
    class function<_Res(_ArgTypes...)>
   d95ec:	4620      	mov	r0, r4
   d95ee:	f7ff fe12 	bl	d9216 <_ZNSt14_Function_baseD1Ev>
	  delete __victim._M_access<_Functor*>();
   d95f2:	2118      	movs	r1, #24
   d95f4:	4620      	mov	r0, r4
   d95f6:	f002 fcc1 	bl	dbf7c <_ZdlPvj>
   d95fa:	e7db      	b.n	d95b4 <_ZNSt14_Function_base13_Base_managerISt5_BindIFSt8functionIFvRKN8particle5ErrorEEES4_EEE10_M_managerERSt9_Any_dataRKSC_St18_Manager_operation+0x14>

000d95fc <_ZNSt8functionIFvRKbEEC1ERKS3_>:
    function<_Res(_ArgTypes...)>::
   d95fc:	b538      	push	{r3, r4, r5, lr}
    _Function_base() : _M_manager(nullptr) { }
   d95fe:	2300      	movs	r3, #0
   d9600:	6083      	str	r3, [r0, #8]
      { return !_M_empty(); }
   d9602:	688b      	ldr	r3, [r1, #8]
    function<_Res(_ArgTypes...)>::
   d9604:	4604      	mov	r4, r0
   d9606:	460d      	mov	r5, r1
      if (static_cast<bool>(__x))
   d9608:	b12b      	cbz	r3, d9616 <_ZNSt8functionIFvRKbEEC1ERKS3_+0x1a>
	  __x._M_manager(_M_functor, __x._M_functor, __clone_functor);
   d960a:	2202      	movs	r2, #2
   d960c:	4798      	blx	r3
	  _M_invoker = __x._M_invoker;
   d960e:	68eb      	ldr	r3, [r5, #12]
   d9610:	60e3      	str	r3, [r4, #12]
	  _M_manager = __x._M_manager;
   d9612:	68ab      	ldr	r3, [r5, #8]
   d9614:	60a3      	str	r3, [r4, #8]
    }
   d9616:	4620      	mov	r0, r4
   d9618:	bd38      	pop	{r3, r4, r5, pc}

000d961a <_ZNSt14_Function_base13_Base_managerISt5_BindIFSt8functionIFvRKbEEbEEE10_M_managerERSt9_Any_dataRKSA_St18_Manager_operation>:
	  switch (__op)
   d961a:	2a02      	cmp	r2, #2
	_M_manager(_Any_data& __dest, const _Any_data& __source,
   d961c:	b570      	push	{r4, r5, r6, lr}
   d961e:	4604      	mov	r4, r0
	  switch (__op)
   d9620:	d007      	beq.n	d9632 <_ZNSt14_Function_base13_Base_managerISt5_BindIFSt8functionIFvRKbEEbEEE10_M_managerERSt9_Any_dataRKSA_St18_Manager_operation+0x18>
   d9622:	2a03      	cmp	r2, #3
   d9624:	d012      	beq.n	d964c <_ZNSt14_Function_base13_Base_managerISt5_BindIFSt8functionIFvRKbEEbEEE10_M_managerERSt9_Any_dataRKSA_St18_Manager_operation+0x32>
   d9626:	2a01      	cmp	r2, #1
   d9628:	d101      	bne.n	d962e <_ZNSt14_Function_base13_Base_managerISt5_BindIFSt8functionIFvRKbEEbEEE10_M_managerERSt9_Any_dataRKSA_St18_Manager_operation+0x14>
	    return __source._M_access<_Functor*>();
   d962a:	680b      	ldr	r3, [r1, #0]
	      __dest._M_access<_Functor*>() = _M_get_pointer(__source);
   d962c:	6003      	str	r3, [r0, #0]
	}
   d962e:	2000      	movs	r0, #0
   d9630:	bd70      	pop	{r4, r5, r6, pc}
	    new _Functor(*__source._M_access<const _Functor*>());
   d9632:	2014      	movs	r0, #20
	  __dest._M_access<_Functor*>() =
   d9634:	680e      	ldr	r6, [r1, #0]
	    new _Functor(*__source._M_access<const _Functor*>());
   d9636:	f7fa fd2e 	bl	d4096 <_Znwj>
   d963a:	4605      	mov	r5, r0
   d963c:	b120      	cbz	r0, d9648 <_ZNSt14_Function_base13_Base_managerISt5_BindIFSt8functionIFvRKbEEbEEE10_M_managerERSt9_Any_dataRKSA_St18_Manager_operation+0x2e>
   d963e:	4631      	mov	r1, r6
   d9640:	f7ff ffdc 	bl	d95fc <_ZNSt8functionIFvRKbEEC1ERKS3_>
   d9644:	7c33      	ldrb	r3, [r6, #16]
   d9646:	742b      	strb	r3, [r5, #16]
	  __dest._M_access<_Functor*>() =
   d9648:	6025      	str	r5, [r4, #0]
	}
   d964a:	e7f0      	b.n	d962e <_ZNSt14_Function_base13_Base_managerISt5_BindIFSt8functionIFvRKbEEbEEE10_M_managerERSt9_Any_dataRKSA_St18_Manager_operation+0x14>
	  delete __victim._M_access<_Functor*>();
   d964c:	6804      	ldr	r4, [r0, #0]
   d964e:	2c00      	cmp	r4, #0
   d9650:	d0ed      	beq.n	d962e <_ZNSt14_Function_base13_Base_managerISt5_BindIFSt8functionIFvRKbEEbEEE10_M_managerERSt9_Any_dataRKSA_St18_Manager_operation+0x14>
    class function<_Res(_ArgTypes...)>
   d9652:	4620      	mov	r0, r4
   d9654:	f7ff fddf 	bl	d9216 <_ZNSt14_Function_baseD1Ev>
	  delete __victim._M_access<_Functor*>();
   d9658:	2114      	movs	r1, #20
   d965a:	4620      	mov	r0, r4
   d965c:	f002 fc8e 	bl	dbf7c <_ZdlPvj>
   d9660:	e7e5      	b.n	d962e <_ZNSt14_Function_base13_Base_managerISt5_BindIFSt8functionIFvRKbEEbEEE10_M_managerERSt9_Any_dataRKSA_St18_Manager_operation+0x14>
	...

000d9664 <_ZN12_GLOBAL__N_125publishCompletionCallbackEiPKvPvS2_>:
void publishCompletionCallback(int error, const void* data, void* callbackData, void* reserved) {
   d9664:	b5f0      	push	{r4, r5, r6, r7, lr}
   d9666:	b089      	sub	sp, #36	; 0x24
   d9668:	4604      	mov	r4, r0
   d966a:	460d      	mov	r5, r1
    auto p = Promise<bool>::fromDataPtr(callbackData);
   d966c:	a801      	add	r0, sp, #4
   d966e:	4611      	mov	r1, r2
   d9670:	f7ff fe11 	bl	d9296 <_ZN8particle11PromiseBaseIbNS_6detail13FutureContextEE11fromDataPtrEPv>
    if (error != Error::NONE) {
   d9674:	b1a4      	cbz	r4, d96a0 <_ZN12_GLOBAL__N_125publishCompletionCallbackEiPKvPvS2_+0x3c>
        p.setError(Error((Error::Type)error, (const char*)data));
   d9676:	b224      	sxth	r4, r4
        msg_(msg ? (const char*)strdup(msg) : nullptr),
   d9678:	b11d      	cbz	r5, d9682 <_ZN12_GLOBAL__N_125publishCompletionCallbackEiPKvPvS2_+0x1e>
   d967a:	4628      	mov	r0, r5
   d967c:	f003 f9bc 	bl	dc9f8 <strdup>
   d9680:	4605      	mov	r5, r0
   d9682:	a801      	add	r0, sp, #4
   d9684:	a903      	add	r1, sp, #12
        type_(type) {
   d9686:	9503      	str	r5, [sp, #12]
   d9688:	f8ad 4010 	strh.w	r4, [sp, #16]
   d968c:	f7ff fe78 	bl	d9380 <_ZN8particle11PromiseBaseIbNS_6detail13FutureContextEE8setErrorENS_5ErrorE>
   d9690:	a803      	add	r0, sp, #12
   d9692:	f7ff fdd6 	bl	d9242 <_ZN8particle5ErrorD1Ev>
   d9696:	a802      	add	r0, sp, #8
   d9698:	f7fb fa4a 	bl	d4b30 <_ZNSt14__shared_countILN9__gnu_cxx12_Lock_policyE0EED1Ev>
}
   d969c:	b009      	add	sp, #36	; 0x24
   d969e:	bdf0      	pop	{r4, r5, r6, r7, pc}
      { return static_cast<const __shared_ptr<_Tp, _Lp>*>(this)->get(); }
   d96a0:	9d01      	ldr	r5, [sp, #4]
	return __atomic_compare_exchange(std::__addressof(_M_i),
   d96a2:	2301      	movs	r3, #1
   d96a4:	e8d5 2f4f 	ldrexb	r2, [r5]
   d96a8:	2a00      	cmp	r2, #0
   d96aa:	d103      	bne.n	d96b4 <_ZN12_GLOBAL__N_125publishCompletionCallbackEiPKvPvS2_+0x50>
   d96ac:	e8c5 3f41 	strexb	r1, r3, [r5]
   d96b0:	2900      	cmp	r1, #0
   d96b2:	d1f7      	bne.n	d96a4 <_ZN12_GLOBAL__N_125publishCompletionCallbackEiPKvPvS2_+0x40>
        if (this->changeState(State::SUCCEEDED)) {
   d96b4:	d1ef      	bne.n	d9696 <_ZN12_GLOBAL__N_125publishCompletionCallbackEiPKvPvS2_+0x32>
            new(&result_) ResultT(std::move(result));
   d96b6:	732b      	strb	r3, [r5, #12]
	__atomic_store_n(&_M_i, __i, int(__m));
   d96b8:	f3bf 8f5b 	dmb	ish
   d96bc:	706b      	strb	r3, [r5, #1]
	return __atomic_exchange_n(&_M_p, __p, int(__m));
   d96be:	1d2b      	adds	r3, r5, #4
   d96c0:	f3bf 8f5b 	dmb	ish
   d96c4:	e853 6f00 	ldrex	r6, [r3]
   d96c8:	e843 4200 	strex	r2, r4, [r3]
   d96cc:	2a00      	cmp	r2, #0
   d96ce:	d1f9      	bne.n	d96c4 <_ZN12_GLOBAL__N_125publishCompletionCallbackEiPKvPvS2_+0x60>
   d96d0:	f3bf 8f5b 	dmb	ish
        if (callbackPtr) {
   d96d4:	2e00      	cmp	r6, #0
   d96d6:	d0de      	beq.n	d9696 <_ZN12_GLOBAL__N_125publishCompletionCallbackEiPKvPvS2_+0x32>
        return (application_thread_current(nullptr) != 0);
   d96d8:	4620      	mov	r0, r4
   d96da:	f7ff fae9 	bl	d8cb0 <application_thread_current>
        if (ContextT::isApplicationThreadCurrent()) {
   d96de:	4607      	mov	r7, r0
   d96e0:	b160      	cbz	r0, d96fc <_ZN12_GLOBAL__N_125publishCompletionCallbackEiPKvPvS2_+0x98>
            callback(std::forward<ArgsT>(args)...); // Synchronous call
   d96e2:	f105 010c 	add.w	r1, r5, #12
   d96e6:	4630      	mov	r0, r6
   d96e8:	f7ff fe16 	bl	d9318 <_ZNKSt8functionIFvRKbEEclES1_>
    class function<_Res(_ArgTypes...)>
   d96ec:	4630      	mov	r0, r6
   d96ee:	f7ff fd92 	bl	d9216 <_ZNSt14_Function_baseD1Ev>
            delete callbackPtr;
   d96f2:	2110      	movs	r1, #16
   d96f4:	4630      	mov	r0, r6
   d96f6:	f002 fc41 	bl	dbf7c <_ZdlPvj>
   d96fa:	e7cc      	b.n	d9696 <_ZN12_GLOBAL__N_125publishCompletionCallbackEiPKvPvS2_+0x32>
	: _M_f(__f), _M_bound_args(std::forward<_Args>(__args)...)
   d96fc:	4631      	mov	r1, r6
   d96fe:	a803      	add	r0, sp, #12
   d9700:	f7ff ff7c 	bl	d95fc <_ZNSt8functionIFvRKbEEC1ERKS3_>
	: _M_head_impl(std::forward<_UHead>(__h)) { }
   d9704:	7b2b      	ldrb	r3, [r5, #12]
   d9706:	f88d 301c 	strb.w	r3, [sp, #28]
            auto callbackPtr = new std::function<void()>(std::bind(callback, std::forward<ArgsT>(args)...));
   d970a:	2010      	movs	r0, #16
   d970c:	f7fa fcc3 	bl	d4096 <_Znwj>
   d9710:	4605      	mov	r5, r0
   d9712:	b1d0      	cbz	r0, d974a <_ZN12_GLOBAL__N_125publishCompletionCallbackEiPKvPvS2_+0xe6>
    _Function_base() : _M_manager(nullptr) { }
   d9714:	6087      	str	r7, [r0, #8]
	{ __functor._M_access<_Functor*>() = new _Functor(std::move(__f)); }
   d9716:	2014      	movs	r0, #20
   d9718:	f7fa fcbd 	bl	d4096 <_Znwj>
   d971c:	4604      	mov	r4, r0
   d971e:	b178      	cbz	r0, d9740 <_ZN12_GLOBAL__N_125publishCompletionCallbackEiPKvPvS2_+0xdc>
    _Function_base() : _M_manager(nullptr) { }
   d9720:	6087      	str	r7, [r0, #8]
	std::swap(_M_functor, __x._M_functor);
   d9722:	4601      	mov	r1, r0
   d9724:	a803      	add	r0, sp, #12
   d9726:	f7ff fdd5 	bl	d92d4 <_ZSt4swapISt9_Any_dataENSt9enable_ifIXsrSt6__and_IJSt6__not_ISt15__is_tuple_likeIT_EESt21is_move_constructibleIS5_ESt18is_move_assignableIS5_EEE5valueEvE4typeERS5_SF_>
      _Tp __tmp = _GLIBCXX_MOVE(__a);
   d972a:	9b05      	ldr	r3, [sp, #20]
      __a = _GLIBCXX_MOVE(__b);
   d972c:	68a2      	ldr	r2, [r4, #8]
      __b = _GLIBCXX_MOVE(__tmp);
   d972e:	60a3      	str	r3, [r4, #8]
      _Tp __tmp = _GLIBCXX_MOVE(__a);
   d9730:	9b06      	ldr	r3, [sp, #24]
      __a = _GLIBCXX_MOVE(__b);
   d9732:	9205      	str	r2, [sp, #20]
   d9734:	68e2      	ldr	r2, [r4, #12]
      __b = _GLIBCXX_MOVE(__tmp);
   d9736:	60e3      	str	r3, [r4, #12]
   d9738:	f89d 301c 	ldrb.w	r3, [sp, #28]
      __a = _GLIBCXX_MOVE(__b);
   d973c:	9206      	str	r2, [sp, #24]
   d973e:	7423      	strb	r3, [r4, #16]
	    _M_invoker = &_My_handler::_M_invoke;
   d9740:	4b06      	ldr	r3, [pc, #24]	; (d975c <_ZN12_GLOBAL__N_125publishCompletionCallbackEiPKvPvS2_+0xf8>)
   d9742:	60eb      	str	r3, [r5, #12]
	    _M_manager = &_My_handler::_M_manager;
   d9744:	4b06      	ldr	r3, [pc, #24]	; (d9760 <_ZN12_GLOBAL__N_125publishCompletionCallbackEiPKvPvS2_+0xfc>)
	{ __functor._M_access<_Functor*>() = new _Functor(std::move(__f)); }
   d9746:	602c      	str	r4, [r5, #0]
	    _M_manager = &_My_handler::_M_manager;
   d9748:	60ab      	str	r3, [r5, #8]
    class function<_Res(_ArgTypes...)>
   d974a:	a803      	add	r0, sp, #12
   d974c:	f7ff fd63 	bl	d9216 <_ZNSt14_Function_baseD1Ev>
        return (application_thread_invoke(callback, data, nullptr) == 0);
   d9750:	2200      	movs	r2, #0
   d9752:	4629      	mov	r1, r5
   d9754:	4803      	ldr	r0, [pc, #12]	; (d9764 <_ZN12_GLOBAL__N_125publishCompletionCallbackEiPKvPvS2_+0x100>)
   d9756:	f7ff fab3 	bl	d8cc0 <application_thread_invoke>
   d975a:	e7c7      	b.n	d96ec <_ZN12_GLOBAL__N_125publishCompletionCallbackEiPKvPvS2_+0x88>
   d975c:	000d932b 	.word	0x000d932b
   d9760:	000d961b 	.word	0x000d961b
   d9764:	000d8f47 	.word	0x000d8f47

000d9768 <_ZN5spark13EthernetClass9listeningEv>:
    uint16_t getListenTimeout(void) {
        return network_get_listen_timeout(*this, 0, NULL);
    }

    bool listening(void) {
        return network_listening(*this, 0, NULL);
   d9768:	2200      	movs	r2, #0
   d976a:	6840      	ldr	r0, [r0, #4]
   d976c:	4611      	mov	r1, r2
   d976e:	f7ff bb4f 	b.w	d8e10 <network_listening>

000d9772 <_ZN5spark13EthernetClass16getListenTimeoutEv>:
        return network_get_listen_timeout(*this, 0, NULL);
   d9772:	2200      	movs	r2, #0
   d9774:	6840      	ldr	r0, [r0, #4]
   d9776:	4611      	mov	r1, r2
   d9778:	f7ff bb5a 	b.w	d8e30 <network_get_listen_timeout>

000d977c <_ZN5spark13EthernetClass16setListenTimeoutEt>:
        network_set_listen_timeout(*this, timeout, NULL);
   d977c:	6840      	ldr	r0, [r0, #4]
   d977e:	2200      	movs	r2, #0
   d9780:	f7ff bb4e 	b.w	d8e20 <network_set_listen_timeout>

000d9784 <_ZN5spark13EthernetClass6listenEb>:
        network_listen(*this, begin ? 0 : 1, NULL);
   d9784:	6840      	ldr	r0, [r0, #4]
   d9786:	2200      	movs	r2, #0
   d9788:	f081 0101 	eor.w	r1, r1, #1
   d978c:	f7ff bb38 	b.w	d8e00 <network_listen>

000d9790 <_ZN5spark13EthernetClass3offEv>:
        network_off(*this, 0, 0, NULL);
   d9790:	2300      	movs	r3, #0
   d9792:	6840      	ldr	r0, [r0, #4]
   d9794:	461a      	mov	r2, r3
   d9796:	4619      	mov	r1, r3
   d9798:	f7ff bb2a 	b.w	d8df0 <network_off>

000d979c <_ZN5spark13EthernetClass2onEv>:
        network_on(*this, 0, 0, NULL);
   d979c:	2300      	movs	r3, #0
   d979e:	6840      	ldr	r0, [r0, #4]
   d97a0:	461a      	mov	r2, r3
   d97a2:	4619      	mov	r1, r3
   d97a4:	f7ff bb1c 	b.w	d8de0 <network_on>

000d97a8 <_ZN5spark13EthernetClass5readyEv>:
    }

    bool ready() {
        return network_ready(*this, 0,  NULL);
   d97a8:	2200      	movs	r2, #0
   d97aa:	6840      	ldr	r0, [r0, #4]
   d97ac:	4611      	mov	r1, r2
   d97ae:	f7ff bb0f 	b.w	d8dd0 <network_ready>

000d97b2 <_ZN5spark13EthernetClass10connectingEv>:
        return network_connecting(*this, 0, NULL);
   d97b2:	2200      	movs	r2, #0
   d97b4:	6840      	ldr	r0, [r0, #4]
   d97b6:	4611      	mov	r1, r2
   d97b8:	f7ff bafa 	b.w	d8db0 <network_connecting>

000d97bc <_ZN5spark13EthernetClass10disconnectEv>:
        network_disconnect(*this, NETWORK_DISCONNECT_REASON_USER, NULL);
   d97bc:	6840      	ldr	r0, [r0, #4]
   d97be:	2200      	movs	r2, #0
   d97c0:	2102      	movs	r1, #2
   d97c2:	f7ff bafd 	b.w	d8dc0 <network_disconnect>

000d97c6 <_ZN5spark13EthernetClass7connectEj>:
        network_connect(*this, flags, 0, NULL);
   d97c6:	2300      	movs	r3, #0
   d97c8:	6840      	ldr	r0, [r0, #4]
   d97ca:	461a      	mov	r2, r3
   d97cc:	f7ff bae8 	b.w	d8da0 <network_connect>

000d97d0 <_GLOBAL__sub_I__ZN5spark8EthernetE>:
   d97d0:	4b02      	ldr	r3, [pc, #8]	; (d97dc <_GLOBAL__sub_I__ZN5spark8EthernetE+0xc>)
   d97d2:	2203      	movs	r2, #3
   d97d4:	605a      	str	r2, [r3, #4]
            NetworkClass(NETWORK_INTERFACE_ETHERNET) {
   d97d6:	4a02      	ldr	r2, [pc, #8]	; (d97e0 <_GLOBAL__sub_I__ZN5spark8EthernetE+0x10>)
   d97d8:	601a      	str	r2, [r3, #0]

namespace spark {

EthernetClass Ethernet;

} // spark
   d97da:	4770      	bx	lr
   d97dc:	2003e55c 	.word	0x2003e55c
   d97e0:	000dd868 	.word	0x000dd868

000d97e4 <_ZN9FuelGauge4lockEv>:
    CHECK_TRUE(i2c_.endTransmission(true) == 0, SYSTEM_ERROR_TIMEOUT);
    return SYSTEM_ERROR_NONE;
}

bool FuelGauge::lock() {
    return i2c_.lock();
   d97e4:	6800      	ldr	r0, [r0, #0]
   d97e6:	f000 b951 	b.w	d9a8c <_ZN7TwoWire4lockEv>

000d97ea <_ZN9FuelGaugeC1ER7TwoWireb>:
FuelGauge::FuelGauge(TwoWire& i2c, bool _lock)
   d97ea:	b510      	push	{r4, lr}
   d97ec:	4604      	mov	r4, r0
      lock_(_lock) {
   d97ee:	6001      	str	r1, [r0, #0]
   d97f0:	7102      	strb	r2, [r0, #4]
    if (lock_) {
   d97f2:	b10a      	cbz	r2, d97f8 <_ZN9FuelGaugeC1ER7TwoWireb+0xe>
        lock();
   d97f4:	f7ff fff6 	bl	d97e4 <_ZN9FuelGauge4lockEv>
}
   d97f8:	4620      	mov	r0, r4
   d97fa:	bd10      	pop	{r4, pc}

000d97fc <_ZN9FuelGaugeC1Eb>:
FuelGauge::FuelGauge(bool _lock)
   d97fc:	b513      	push	{r0, r1, r4, lr}
   d97fe:	4604      	mov	r4, r0
   d9800:	9101      	str	r1, [sp, #4]
            return &Wire1;
   d9802:	f002 fb97 	bl	dbf34 <_Z20__fetch_global_Wire1v>
        : FuelGauge(*fuelWireInstance(), _lock)
   d9806:	9a01      	ldr	r2, [sp, #4]
            return &Wire1;
   d9808:	4601      	mov	r1, r0
        : FuelGauge(*fuelWireInstance(), _lock)
   d980a:	4620      	mov	r0, r4
   d980c:	f7ff ffed 	bl	d97ea <_ZN9FuelGaugeC1ER7TwoWireb>
}
   d9810:	4620      	mov	r0, r4
   d9812:	b002      	add	sp, #8
   d9814:	bd10      	pop	{r4, pc}

000d9816 <_ZN9FuelGauge6unlockEv>:
}

bool FuelGauge::unlock() {
    return i2c_.unlock();
   d9816:	6800      	ldr	r0, [r0, #0]
   d9818:	f000 b941 	b.w	d9a9e <_ZN7TwoWire6unlockEv>

000d981c <_ZN9FuelGauge12readRegisterEhRhS0_>:
int FuelGauge::readRegister(byte startAddress, byte &MSB, byte &LSB) {
   d981c:	e92d 41ff 	stmdb	sp!, {r0, r1, r2, r3, r4, r5, r6, r7, r8, lr}
   d9820:	4604      	mov	r4, r0
   d9822:	460d      	mov	r5, r1
   d9824:	4617      	mov	r7, r2
   d9826:	461e      	mov	r6, r3
   d9828:	f7ff ffdc 	bl	d97e4 <_ZN9FuelGauge4lockEv>
public:
  WireTransmission(uint8_t address)
      : address_{address},
        size_{0},
        stop_{true},
        timeout_{HAL_I2C_DEFAULT_TIMEOUT_MS} {
   d982c:	2336      	movs	r3, #54	; 0x36
   d982e:	f88d 3000 	strb.w	r3, [sp]
   d9832:	2300      	movs	r3, #0
    i2c_.beginTransmission(config);
   d9834:	6820      	ldr	r0, [r4, #0]
   d9836:	9301      	str	r3, [sp, #4]
   d9838:	f04f 0801 	mov.w	r8, #1
    size_ = size;
    return *this;
  }

  WireTransmission& timeout(system_tick_t ms) {
    timeout_ = ms;
   d983c:	230a      	movs	r3, #10
   d983e:	4669      	mov	r1, sp
   d9840:	9303      	str	r3, [sp, #12]
        timeout_{HAL_I2C_DEFAULT_TIMEOUT_MS} {
   d9842:	f88d 8008 	strb.w	r8, [sp, #8]
   d9846:	f000 f905 	bl	d9a54 <_ZN7TwoWire17beginTransmissionERK16WireTransmission>
    i2c_.write(startAddress);
   d984a:	6820      	ldr	r0, [r4, #0]
   d984c:	6803      	ldr	r3, [r0, #0]
   d984e:	4629      	mov	r1, r5
   d9850:	689b      	ldr	r3, [r3, #8]
   d9852:	4798      	blx	r3
    CHECK_TRUE(i2c_.endTransmission(true) == 0, SYSTEM_ERROR_TIMEOUT);
   d9854:	6820      	ldr	r0, [r4, #0]
   d9856:	4641      	mov	r1, r8
   d9858:	f000 f914 	bl	d9a84 <_ZN7TwoWire15endTransmissionEh>
   d985c:	4605      	mov	r5, r0
   d985e:	b140      	cbz	r0, d9872 <_ZN9FuelGauge12readRegisterEhRhS0_+0x56>
   d9860:	f06f 059f 	mvn.w	r5, #159	; 0x9f
      { _M_device.unlock(); }
   d9864:	4620      	mov	r0, r4
   d9866:	f7ff ffd6 	bl	d9816 <_ZN9FuelGauge6unlockEv>
}
   d986a:	4628      	mov	r0, r5
   d986c:	b004      	add	sp, #16
   d986e:	e8bd 81f0 	ldmia.w	sp!, {r4, r5, r6, r7, r8, pc}
    size_ = size;
   d9872:	2302      	movs	r3, #2
    CHECK_TRUE(i2c_.requestFrom(config) == 2, SYSTEM_ERROR_TIMEOUT);
   d9874:	6820      	ldr	r0, [r4, #0]
   d9876:	9301      	str	r3, [sp, #4]
   d9878:	4669      	mov	r1, sp
   d987a:	f000 f8bb 	bl	d99f4 <_ZN7TwoWire11requestFromERK16WireTransmission>
   d987e:	2802      	cmp	r0, #2
   d9880:	d1ee      	bne.n	d9860 <_ZN9FuelGauge12readRegisterEhRhS0_+0x44>
    MSB = i2c_.read();
   d9882:	6820      	ldr	r0, [r4, #0]
   d9884:	6803      	ldr	r3, [r0, #0]
   d9886:	695b      	ldr	r3, [r3, #20]
   d9888:	4798      	blx	r3
   d988a:	7038      	strb	r0, [r7, #0]
    LSB = i2c_.read();
   d988c:	6820      	ldr	r0, [r4, #0]
   d988e:	6803      	ldr	r3, [r0, #0]
   d9890:	695b      	ldr	r3, [r3, #20]
   d9892:	4798      	blx	r3
   d9894:	7030      	strb	r0, [r6, #0]
    return SYSTEM_ERROR_NONE;
   d9896:	e7e5      	b.n	d9864 <_ZN9FuelGauge12readRegisterEhRhS0_+0x48>

000d9898 <_ZN9FuelGauge6getSoCEv>:
float FuelGauge::getSoC() {
   d9898:	b507      	push	{r0, r1, r2, lr}
    byte MSB = 0;
   d989a:	2300      	movs	r3, #0
   d989c:	f88d 3006 	strb.w	r3, [sp, #6]
    byte LSB = 0;
   d98a0:	f88d 3007 	strb.w	r3, [sp, #7]
    if(readRegister(SOC_REGISTER, MSB, LSB) != SYSTEM_ERROR_NONE) {
   d98a4:	f10d 0206 	add.w	r2, sp, #6
   d98a8:	f10d 0307 	add.w	r3, sp, #7
   d98ac:	2104      	movs	r1, #4
   d98ae:	f7ff ffb5 	bl	d981c <_ZN9FuelGauge12readRegisterEhRhS0_>
   d98b2:	b9b0      	cbnz	r0, d98e2 <_ZN9FuelGauge6getSoCEv+0x4a>
        float decimal = LSB / 256.0;
   d98b4:	f89d 0007 	ldrb.w	r0, [sp, #7]
   d98b8:	f002 fcc2 	bl	dc240 <__aeabi_i2d>
   d98bc:	4b0a      	ldr	r3, [pc, #40]	; (d98e8 <_ZN9FuelGauge6getSoCEv+0x50>)
   d98be:	2200      	movs	r2, #0
   d98c0:	f002 fd28 	bl	dc314 <__aeabi_dmul>
   d98c4:	f002 ff58 	bl	dc778 <__aeabi_d2f>
        return MSB + decimal;
   d98c8:	f89d 3006 	ldrb.w	r3, [sp, #6]
   d98cc:	ee00 3a10 	vmov	s0, r3
   d98d0:	ee07 0a90 	vmov	s15, r0
   d98d4:	eeb8 0ac0 	vcvt.f32.s32	s0, s0
   d98d8:	ee37 0a80 	vadd.f32	s0, s15, s0
}
   d98dc:	b003      	add	sp, #12
   d98de:	f85d fb04 	ldr.w	pc, [sp], #4
        return -1.0f;
   d98e2:	eebf 0a00 	vmov.f32	s0, #240	; 0xbf800000 -1.0
   d98e6:	e7f9      	b.n	d98dc <_ZN9FuelGauge6getSoCEv+0x44>
   d98e8:	3f700000 	.word	0x3f700000

000d98ec <_ZN9FuelGauge13writeRegisterEhhh>:
int FuelGauge::writeRegister(byte address, byte MSB, byte LSB) {
   d98ec:	e92d 41ff 	stmdb	sp!, {r0, r1, r2, r3, r4, r5, r6, r7, r8, lr}
   d98f0:	4616      	mov	r6, r2
   d98f2:	4604      	mov	r4, r0
   d98f4:	461d      	mov	r5, r3
   d98f6:	460f      	mov	r7, r1
      { _M_device.lock(); }
   d98f8:	f7ff ff74 	bl	d97e4 <_ZN9FuelGauge4lockEv>
        timeout_{HAL_I2C_DEFAULT_TIMEOUT_MS} {
   d98fc:	2336      	movs	r3, #54	; 0x36
   d98fe:	f88d 3000 	strb.w	r3, [sp]
   d9902:	2300      	movs	r3, #0
    i2c_.beginTransmission(config);
   d9904:	6820      	ldr	r0, [r4, #0]
   d9906:	9301      	str	r3, [sp, #4]
   d9908:	f04f 0801 	mov.w	r8, #1
    timeout_ = ms;
   d990c:	230a      	movs	r3, #10
   d990e:	4669      	mov	r1, sp
   d9910:	9303      	str	r3, [sp, #12]
        timeout_{HAL_I2C_DEFAULT_TIMEOUT_MS} {
   d9912:	f88d 8008 	strb.w	r8, [sp, #8]
   d9916:	f000 f89d 	bl	d9a54 <_ZN7TwoWire17beginTransmissionERK16WireTransmission>
    i2c_.write(address);
   d991a:	6820      	ldr	r0, [r4, #0]
   d991c:	6803      	ldr	r3, [r0, #0]
   d991e:	4639      	mov	r1, r7
   d9920:	689b      	ldr	r3, [r3, #8]
   d9922:	4798      	blx	r3
    i2c_.write(MSB);
   d9924:	6820      	ldr	r0, [r4, #0]
   d9926:	6803      	ldr	r3, [r0, #0]
   d9928:	4631      	mov	r1, r6
   d992a:	689b      	ldr	r3, [r3, #8]
   d992c:	4798      	blx	r3
    i2c_.write(LSB);
   d992e:	6820      	ldr	r0, [r4, #0]
   d9930:	6803      	ldr	r3, [r0, #0]
   d9932:	4629      	mov	r1, r5
   d9934:	689b      	ldr	r3, [r3, #8]
   d9936:	4798      	blx	r3
    CHECK_TRUE(i2c_.endTransmission(true) == 0, SYSTEM_ERROR_TIMEOUT);
   d9938:	4641      	mov	r1, r8
   d993a:	6820      	ldr	r0, [r4, #0]
   d993c:	f000 f8a2 	bl	d9a84 <_ZN7TwoWire15endTransmissionEh>
   d9940:	2800      	cmp	r0, #0
      { _M_device.unlock(); }
   d9942:	4620      	mov	r0, r4
   d9944:	bf0c      	ite	eq
   d9946:	2500      	moveq	r5, #0
   d9948:	f06f 059f 	mvnne.w	r5, #159	; 0x9f
   d994c:	f7ff ff63 	bl	d9816 <_ZN9FuelGauge6unlockEv>
}
   d9950:	4628      	mov	r0, r5
   d9952:	b004      	add	sp, #16
   d9954:	e8bd 81f0 	ldmia.w	sp!, {r4, r5, r6, r7, r8, pc}

000d9958 <_ZN9FuelGauge10quickStartEv>:
int FuelGauge::quickStart() {
   d9958:	b508      	push	{r3, lr}
    CHECK(writeRegister(MODE_REGISTER, 0x40, 0x00));
   d995a:	2240      	movs	r2, #64	; 0x40
   d995c:	2300      	movs	r3, #0
   d995e:	2106      	movs	r1, #6
   d9960:	f7ff ffc4 	bl	d98ec <_ZN9FuelGauge13writeRegisterEhhh>
}
   d9964:	ea00 70e0 	and.w	r0, r0, r0, asr #31
   d9968:	bd08      	pop	{r3, pc}

000d996a <_ZN7TwoWireD1Ev>:
private:
  hal_i2c_interface_t _i2c;

public:
  TwoWire(hal_i2c_interface_t i2c, const hal_i2c_config_t& config);
  virtual ~TwoWire() {};
   d996a:	4770      	bx	lr

000d996c <_ZN7TwoWire5writeEPKhj>:

// must be called in:
// slave tx event callback
// or after beginTransmission(address)
size_t TwoWire::write(const uint8_t *data, size_t quantity)
{
   d996c:	b5f8      	push	{r3, r4, r5, r6, r7, lr}
   d996e:	4606      	mov	r6, r0
   d9970:	4615      	mov	r5, r2
   d9972:	460c      	mov	r4, r1
   d9974:	188f      	adds	r7, r1, r2
  // in master/slave transmitter mode
  for(size_t i = 0; i < quantity; ++i)
   d9976:	42bc      	cmp	r4, r7
   d9978:	d006      	beq.n	d9988 <_ZN7TwoWire5writeEPKhj+0x1c>
  {
    write(data[i]);
   d997a:	6833      	ldr	r3, [r6, #0]
   d997c:	f814 1b01 	ldrb.w	r1, [r4], #1
   d9980:	689b      	ldr	r3, [r3, #8]
   d9982:	4630      	mov	r0, r6
   d9984:	4798      	blx	r3
  for(size_t i = 0; i < quantity; ++i)
   d9986:	e7f6      	b.n	d9976 <_ZN7TwoWire5writeEPKhj+0xa>
  }

  return quantity;
}
   d9988:	4628      	mov	r0, r5
   d998a:	bdf8      	pop	{r3, r4, r5, r6, r7, pc}

000d998c <_ZN7TwoWire5writeEh>:
  return hal_i2c_write(_i2c, data, NULL);
   d998c:	7c00      	ldrb	r0, [r0, #16]
   d998e:	2200      	movs	r2, #0
   d9990:	f7fe bff4 	b.w	d897c <hal_i2c_write>

000d9994 <_ZN7TwoWire9availableEv>:
// must be called in:
// slave rx event callback
// or after requestFrom(address, numBytes)
int TwoWire::available(void)
{
  return hal_i2c_available(_i2c, NULL);
   d9994:	7c00      	ldrb	r0, [r0, #16]
   d9996:	2100      	movs	r1, #0
   d9998:	f7fe bff8 	b.w	d898c <hal_i2c_available>

000d999c <_ZN7TwoWire4readEv>:
// must be called in:
// slave rx event callback
// or after requestFrom(address, numBytes)
int TwoWire::read(void)
{
  return hal_i2c_read(_i2c, NULL);
   d999c:	7c00      	ldrb	r0, [r0, #16]
   d999e:	2100      	movs	r1, #0
   d99a0:	f7fe bffc 	b.w	d899c <hal_i2c_read>

000d99a4 <_ZN7TwoWire4peekEv>:
// must be called in:
// slave rx event callback
// or after requestFrom(address, numBytes)
int TwoWire::peek(void)
{
  return hal_i2c_peek(_i2c, NULL);
   d99a4:	7c00      	ldrb	r0, [r0, #16]
   d99a6:	2100      	movs	r1, #0
   d99a8:	f7ff b800 	b.w	d89ac <hal_i2c_peek>

000d99ac <_ZN7TwoWire5flushEv>:
}

void TwoWire::flush(void)
{
  hal_i2c_flush(_i2c, NULL);
   d99ac:	7c00      	ldrb	r0, [r0, #16]
   d99ae:	2100      	movs	r1, #0
   d99b0:	f7ff b804 	b.w	d89bc <hal_i2c_flush>

000d99b4 <_ZN7TwoWireD0Ev>:
   d99b4:	b510      	push	{r4, lr}
   d99b6:	2114      	movs	r1, #20
   d99b8:	4604      	mov	r4, r0
   d99ba:	f002 fadf 	bl	dbf7c <_ZdlPvj>
   d99be:	4620      	mov	r0, r4
   d99c0:	bd10      	pop	{r4, pc}
	...

000d99c4 <_ZN7TwoWireC1E19hal_i2c_interface_tRK16hal_i2c_config_t>:
TwoWire::TwoWire(hal_i2c_interface_t i2c, const hal_i2c_config_t& conf)
   d99c4:	b510      	push	{r4, lr}
    virtual int available() = 0;
    virtual int read() = 0;
    virtual int peek() = 0;
    virtual void flush() = 0;

    Stream() {_timeout=1000;}
   d99c6:	f44f 737a 	mov.w	r3, #1000	; 0x3e8
   d99ca:	4604      	mov	r4, r0
   d99cc:	4608      	mov	r0, r1
   d99ce:	2100      	movs	r1, #0
   d99d0:	e9c4 1301 	strd	r1, r3, [r4, #4]
   d99d4:	4b03      	ldr	r3, [pc, #12]	; (d99e4 <_ZN7TwoWireC1E19hal_i2c_interface_tRK16hal_i2c_config_t+0x20>)
   d99d6:	6023      	str	r3, [r4, #0]
  _i2c = i2c;
   d99d8:	7420      	strb	r0, [r4, #16]
  hal_i2c_init(_i2c, &conf);
   d99da:	4611      	mov	r1, r2
   d99dc:	f7fe fffe 	bl	d89dc <hal_i2c_init>
}
   d99e0:	4620      	mov	r0, r4
   d99e2:	bd10      	pop	{r4, pc}
   d99e4:	000dd8a4 	.word	0x000dd8a4

000d99e8 <_ZN7TwoWire5beginEv>:
	hal_i2c_begin(_i2c, I2C_MODE_MASTER, 0x00, NULL);
   d99e8:	2300      	movs	r3, #0
   d99ea:	7c00      	ldrb	r0, [r0, #16]
   d99ec:	461a      	mov	r2, r3
   d99ee:	4619      	mov	r1, r3
   d99f0:	f7fe bfac 	b.w	d894c <hal_i2c_begin>

000d99f4 <_ZN7TwoWire11requestFromERK16WireTransmission>:
size_t TwoWire::requestFrom(const WireTransmission& transfer) {
   d99f4:	b57f      	push	{r0, r1, r2, r3, r4, r5, r6, lr}
    hal_i2c_transmission_config_t conf = {
   d99f6:	2200      	movs	r2, #0
   d99f8:	2314      	movs	r3, #20
   d99fa:	e9cd 2201 	strd	r2, r2, [sp, #4]
   d99fe:	f8ad 3004 	strh.w	r3, [sp, #4]
    };
   d9a02:	780b      	ldrb	r3, [r1, #0]
   d9a04:	f88d 3008 	strb.w	r3, [sp, #8]
   d9a08:	684b      	ldr	r3, [r1, #4]
   d9a0a:	9303      	str	r3, [sp, #12]
   d9a0c:	68cb      	ldr	r3, [r1, #12]
   d9a0e:	9304      	str	r3, [sp, #16]
  return hal_i2c_request_ex(_i2c, &conf, nullptr);
   d9a10:	7c00      	ldrb	r0, [r0, #16]
      .flags = (uint32_t)(stop_ ? HAL_I2C_TRANSMISSION_FLAG_STOP : 0)
   d9a12:	7a0b      	ldrb	r3, [r1, #8]
   d9a14:	9305      	str	r3, [sp, #20]
   d9a16:	a901      	add	r1, sp, #4
   d9a18:	f7fe fff8 	bl	d8a0c <hal_i2c_request_ex>
}
   d9a1c:	b007      	add	sp, #28
   d9a1e:	f85d fb04 	ldr.w	pc, [sp], #4

000d9a22 <_ZN7TwoWire11requestFromEhjh>:
{
   d9a22:	b51f      	push	{r0, r1, r2, r3, r4, lr}
  return requestFrom(WireTransmission(address).quantity(quantity).stop(sendStop));
   d9a24:	3b00      	subs	r3, #0
        timeout_{HAL_I2C_DEFAULT_TIMEOUT_MS} {
   d9a26:	f88d 1000 	strb.w	r1, [sp]
   d9a2a:	f04f 0164 	mov.w	r1, #100	; 0x64
   d9a2e:	9103      	str	r1, [sp, #12]
   d9a30:	bf18      	it	ne
   d9a32:	2301      	movne	r3, #1
   d9a34:	4669      	mov	r1, sp
    size_ = size;
   d9a36:	9201      	str	r2, [sp, #4]
   d9a38:	f88d 3008 	strb.w	r3, [sp, #8]
   d9a3c:	f7ff ffda 	bl	d99f4 <_ZN7TwoWire11requestFromERK16WireTransmission>
}
   d9a40:	b005      	add	sp, #20
   d9a42:	f85d fb04 	ldr.w	pc, [sp], #4

000d9a46 <_ZN7TwoWire17beginTransmissionEh>:
	hal_i2c_begin_transmission(_i2c, address, NULL);
   d9a46:	7c00      	ldrb	r0, [r0, #16]
   d9a48:	2200      	movs	r2, #0
   d9a4a:	f7fe bf87 	b.w	d895c <hal_i2c_begin_transmission>

000d9a4e <_ZN7TwoWire17beginTransmissionEi>:
  beginTransmission((uint8_t)address);
   d9a4e:	b2c9      	uxtb	r1, r1
   d9a50:	f7ff bff9 	b.w	d9a46 <_ZN7TwoWire17beginTransmissionEh>

000d9a54 <_ZN7TwoWire17beginTransmissionERK16WireTransmission>:
void TwoWire::beginTransmission(const WireTransmission& transfer) {
   d9a54:	b57f      	push	{r0, r1, r2, r3, r4, r5, r6, lr}
    hal_i2c_transmission_config_t conf = {
   d9a56:	2300      	movs	r3, #0
   d9a58:	e9cd 3301 	strd	r3, r3, [sp, #4]
    };
   d9a5c:	684a      	ldr	r2, [r1, #4]
   d9a5e:	9203      	str	r2, [sp, #12]
    hal_i2c_transmission_config_t conf = {
   d9a60:	2314      	movs	r3, #20
    };
   d9a62:	68ca      	ldr	r2, [r1, #12]
    hal_i2c_transmission_config_t conf = {
   d9a64:	f8ad 3004 	strh.w	r3, [sp, #4]
      .address = address_,
   d9a68:	780b      	ldrb	r3, [r1, #0]
    };
   d9a6a:	9204      	str	r2, [sp, #16]
      .flags = (uint32_t)(stop_ ? HAL_I2C_TRANSMISSION_FLAG_STOP : 0)
   d9a6c:	7a0a      	ldrb	r2, [r1, #8]
   d9a6e:	9205      	str	r2, [sp, #20]
  hal_i2c_begin_transmission(_i2c, conf.address, &conf);
   d9a70:	7c00      	ldrb	r0, [r0, #16]
    };
   d9a72:	f88d 3008 	strb.w	r3, [sp, #8]
   d9a76:	aa01      	add	r2, sp, #4
   d9a78:	4619      	mov	r1, r3
   d9a7a:	f7fe ff6f 	bl	d895c <hal_i2c_begin_transmission>
}
   d9a7e:	b007      	add	sp, #28
   d9a80:	f85d fb04 	ldr.w	pc, [sp], #4

000d9a84 <_ZN7TwoWire15endTransmissionEh>:
	return hal_i2c_end_transmission(_i2c, sendStop, NULL);
   d9a84:	7c00      	ldrb	r0, [r0, #16]
   d9a86:	2200      	movs	r2, #0
   d9a88:	f7fe bf70 	b.w	d896c <hal_i2c_end_transmission>

000d9a8c <_ZN7TwoWire4lockEv>:
{
  hal_i2c_reset(_i2c, 0, NULL);
}

bool TwoWire::lock()
{
   d9a8c:	b508      	push	{r3, lr}
  return hal_i2c_lock(_i2c, NULL) == 0;
   d9a8e:	2100      	movs	r1, #0
   d9a90:	7c00      	ldrb	r0, [r0, #16]
   d9a92:	f7fe ffab 	bl	d89ec <hal_i2c_lock>
}
   d9a96:	fab0 f080 	clz	r0, r0
   d9a9a:	0940      	lsrs	r0, r0, #5
   d9a9c:	bd08      	pop	{r3, pc}

000d9a9e <_ZN7TwoWire6unlockEv>:

bool TwoWire::unlock()
{
   d9a9e:	b508      	push	{r3, lr}
  return hal_i2c_unlock(_i2c, NULL) == 0;
   d9aa0:	2100      	movs	r1, #0
   d9aa2:	7c00      	ldrb	r0, [r0, #16]
   d9aa4:	f7fe ffaa 	bl	d89fc <hal_i2c_unlock>
}
   d9aa8:	fab0 f080 	clz	r0, r0
   d9aac:	0940      	lsrs	r0, r0, #5
   d9aae:	bd08      	pop	{r3, pc}

000d9ab0 <_Z26call_raw_interrupt_handlerPv>:
}

void call_raw_interrupt_handler(void* data)
{
    raw_interrupt_handler_t handler = raw_interrupt_handler_t(data);
    handler();
   d9ab0:	4700      	bx	r0
	...

000d9ab4 <_Z15attachInterrupttPFvvE13InterruptModeah>:
    }
    return handler!=NULL;
}

bool attachInterrupt(uint16_t pin, raw_interrupt_handler_t handler, InterruptMode mode, int8_t priority, uint8_t subpriority)
{
   d9ab4:	e92d 41ff 	stmdb	sp!, {r0, r1, r2, r3, r4, r5, r6, r7, r8, lr}
    HAL_Interrupts_Detach(pin);
    HAL_InterruptExtraConfiguration extra = {0};
   d9ab8:	2400      	movs	r4, #0
{
   d9aba:	461d      	mov	r5, r3
   d9abc:	460f      	mov	r7, r1
   d9abe:	4690      	mov	r8, r2
   d9ac0:	4606      	mov	r6, r0
    HAL_Interrupts_Detach(pin);
   d9ac2:	f7fe ff33 	bl	d892c <HAL_Interrupts_Detach>
  if (priority >= 0) {
   d9ac6:	42a5      	cmp	r5, r4
  extra.version = HAL_INTERRUPT_EXTRA_CONFIGURATION_VERSION_1;
   d9ac8:	f04f 0304 	mov.w	r3, #4
    HAL_InterruptExtraConfiguration extra = {0};
   d9acc:	f8ad 400d 	strh.w	r4, [sp, #13]
  extra.version = HAL_INTERRUPT_EXTRA_CONFIGURATION_VERSION_1;
   d9ad0:	f88d 300c 	strb.w	r3, [sp, #12]
    HAL_InterruptExtraConfiguration extra = {0};
   d9ad4:	f88d 400f 	strb.w	r4, [sp, #15]
    extra.IRQChannelSubPriority = subpriority;
   d9ad8:	bfa2      	ittt	ge
   d9ada:	f89d 3028 	ldrbge.w	r3, [sp, #40]	; 0x28
   d9ade:	f88d 300e 	strbge.w	r3, [sp, #14]
    return &extra;
   d9ae2:	ac03      	addge	r4, sp, #12
    if (SYSTEM_ERROR_NONE != HAL_Interrupts_Attach(pin, call_raw_interrupt_handler, (void*)handler, mode, configure_interrupt(extra, priority, subpriority))) {
   d9ae4:	4907      	ldr	r1, [pc, #28]	; (d9b04 <_Z15attachInterrupttPFvvE13InterruptModeah+0x50>)
   d9ae6:	9400      	str	r4, [sp, #0]
   d9ae8:	4643      	mov	r3, r8
   d9aea:	463a      	mov	r2, r7
   d9aec:	4630      	mov	r0, r6
    extra.IRQChannelPreemptionPriority = (uint8_t)priority;
   d9aee:	bfa8      	it	ge
   d9af0:	f88d 500d 	strbge.w	r5, [sp, #13]
    if (SYSTEM_ERROR_NONE != HAL_Interrupts_Attach(pin, call_raw_interrupt_handler, (void*)handler, mode, configure_interrupt(extra, priority, subpriority))) {
   d9af4:	f7fe ff12 	bl	d891c <HAL_Interrupts_Attach>
        return false;
    }
    return true;
}
   d9af8:	fab0 f080 	clz	r0, r0
   d9afc:	0940      	lsrs	r0, r0, #5
   d9afe:	b004      	add	sp, #16
   d9b00:	e8bd 81f0 	ldmia.w	sp!, {r4, r5, r6, r7, r8, pc}
   d9b04:	000d9ab1 	.word	0x000d9ab1

000d9b08 <_ZN9IPAddressD1Ev>:
    IPAddress(uint8_t first_octet, uint8_t second_octet, uint8_t third_octet, uint8_t fourth_octet);
    IPAddress(uint32_t address);
    IPAddress(const uint8_t* address);
    IPAddress(const HAL_IPAddress& address);

    virtual ~IPAddress() {}
   d9b08:	4770      	bx	lr

000d9b0a <_ZN9IPAddressD0Ev>:
   d9b0a:	b510      	push	{r4, lr}
   d9b0c:	2118      	movs	r1, #24
   d9b0e:	4604      	mov	r4, r0
   d9b10:	f002 fa34 	bl	dbf7c <_ZdlPvj>
   d9b14:	4620      	mov	r0, r4
   d9b16:	bd10      	pop	{r4, pc}

000d9b18 <_ZNK9IPAddress7printToER5Print>:
#endif // Wiring_IPv6
	return address.ipv4==that.address.ipv4;
}

size_t IPAddress::printTo(Print& p) const
{
   d9b18:	b5f0      	push	{r4, r5, r6, r7, lr}
#if Wiring_IPv6
#if HAL_USE_INET_HAL_POSIX
	if (address.v==6) {
   d9b1a:	7d03      	ldrb	r3, [r0, #20]
   d9b1c:	2b06      	cmp	r3, #6
{
   d9b1e:	b08d      	sub	sp, #52	; 0x34
   d9b20:	460e      	mov	r6, r1
   d9b22:	f100 0704 	add.w	r7, r0, #4
   d9b26:	f04f 0400 	mov.w	r4, #0
	if (address.v==6) {
   d9b2a:	d012      	beq.n	d9b52 <_ZNK9IPAddress7printToER5Print+0x3a>
   d9b2c:	f100 0508 	add.w	r5, r0, #8
        return printNumber(val, base) + t;
   d9b30:	f815 1d01 	ldrb.w	r1, [r5, #-1]!
   d9b34:	220a      	movs	r2, #10
   d9b36:	4630      	mov	r0, r6
   d9b38:	f001 fb52 	bl	db1e0 <_ZN5Print11printNumberEmh>
#else
#pragma message "HAL_USE_INET_HAL_POSIX is required for IPv6 support in IPAddress::printTo()"
#endif // HAL_USE_INET_HAL_POSIX
#endif // Wiring_IPv6
    size_t n = 0;
    for (int i = 0; i < 4; i++)
   d9b3c:	42af      	cmp	r7, r5
    {
        if (n)
            n += p.print('.');
        n += p.print((*this)[i], DEC);
   d9b3e:	4404      	add	r4, r0
    for (int i = 0; i < 4; i++)
   d9b40:	d019      	beq.n	d9b76 <_ZNK9IPAddress7printToER5Print+0x5e>
        if (n)
   d9b42:	2c00      	cmp	r4, #0
   d9b44:	d0f4      	beq.n	d9b30 <_ZNK9IPAddress7printToER5Print+0x18>
            n += p.print('.');
   d9b46:	212e      	movs	r1, #46	; 0x2e
   d9b48:	4630      	mov	r0, r6
   d9b4a:	f001 fb3a 	bl	db1c2 <_ZN5Print5printEc>
   d9b4e:	4404      	add	r4, r0
   d9b50:	e7ee      	b.n	d9b30 <_ZNK9IPAddress7printToER5Print+0x18>
		inet_inet_ntop(AF_INET6, address.ipv6, buf, sizeof(buf));
   d9b52:	232f      	movs	r3, #47	; 0x2f
   d9b54:	466a      	mov	r2, sp
   d9b56:	4639      	mov	r1, r7
   d9b58:	200a      	movs	r0, #10
		buf[0] = 0;
   d9b5a:	f88d 4000 	strb.w	r4, [sp]
		inet_inet_ntop(AF_INET6, address.ipv6, buf, sizeof(buf));
   d9b5e:	f7fe ff5d 	bl	d8a1c <inet_inet_ntop>
      return write((const uint8_t *)str, strlen(str));
   d9b62:	4668      	mov	r0, sp
   d9b64:	f002 ff65 	bl	dca32 <strlen>
   d9b68:	6833      	ldr	r3, [r6, #0]
   d9b6a:	4602      	mov	r2, r0
   d9b6c:	68db      	ldr	r3, [r3, #12]
   d9b6e:	4669      	mov	r1, sp
   d9b70:	4630      	mov	r0, r6
   d9b72:	4798      	blx	r3
   d9b74:	4604      	mov	r4, r0
    }
    return n;
}
   d9b76:	4620      	mov	r0, r4
   d9b78:	b00d      	add	sp, #52	; 0x34
   d9b7a:	bdf0      	pop	{r4, r5, r6, r7, pc}

000d9b7c <_ZN9IPAddressC1Ev>:
IPAddress::IPAddress()
   d9b7c:	b510      	push	{r4, lr}
   d9b7e:	4b05      	ldr	r3, [pc, #20]	; (d9b94 <_ZN9IPAddressC1Ev+0x18>)
   d9b80:	4604      	mov	r4, r0
        return address;
    }

    virtual size_t printTo(Print& p) const;

    void clear() { memset(&address, 0, sizeof (address)); }
   d9b82:	2211      	movs	r2, #17
   d9b84:	f840 3b04 	str.w	r3, [r0], #4
   d9b88:	2100      	movs	r1, #0
   d9b8a:	f002 feab 	bl	dc8e4 <memset>
}
   d9b8e:	4620      	mov	r0, r4
   d9b90:	bd10      	pop	{r4, pc}
   d9b92:	bf00      	nop
   d9b94:	000dd8cc 	.word	0x000dd8cc

000d9b98 <_ZN9IPAddressC1ERK16_HAL_IPAddress_t>:
IPAddress::IPAddress(const HAL_IPAddress& address)
   d9b98:	4603      	mov	r3, r0
   d9b9a:	4a07      	ldr	r2, [pc, #28]	; (d9bb8 <_ZN9IPAddressC1ERK16_HAL_IPAddress_t+0x20>)
   d9b9c:	b510      	push	{r4, lr}
   d9b9e:	f843 2b04 	str.w	r2, [r3], #4
    memcpy(&this->address, &address, sizeof(address));
   d9ba2:	f101 0210 	add.w	r2, r1, #16
   d9ba6:	f851 4b04 	ldr.w	r4, [r1], #4
   d9baa:	f843 4b04 	str.w	r4, [r3], #4
   d9bae:	4291      	cmp	r1, r2
   d9bb0:	d1f9      	bne.n	d9ba6 <_ZN9IPAddressC1ERK16_HAL_IPAddress_t+0xe>
   d9bb2:	780a      	ldrb	r2, [r1, #0]
   d9bb4:	701a      	strb	r2, [r3, #0]
}
   d9bb6:	bd10      	pop	{r4, pc}
   d9bb8:	000dd8cc 	.word	0x000dd8cc

000d9bbc <_ZN9IPAddress8set_ipv4Ehhhh>:
{
   d9bbc:	b510      	push	{r4, lr}
    address.ipv4 = b0<<24 | b1 << 16 | b2 << 8 | b3;
   d9bbe:	f89d 4008 	ldrb.w	r4, [sp, #8]
   d9bc2:	ea44 2303 	orr.w	r3, r4, r3, lsl #8
   d9bc6:	ea43 4202 	orr.w	r2, r3, r2, lsl #16
   d9bca:	ea42 6101 	orr.w	r1, r2, r1, lsl #24
        address.v = version;
   d9bce:	2304      	movs	r3, #4
   d9bd0:	6041      	str	r1, [r0, #4]
   d9bd2:	7503      	strb	r3, [r0, #20]
}
   d9bd4:	bd10      	pop	{r4, pc}

000d9bd6 <_ZN9IPAddressaSEPKh>:
{
   d9bd6:	b513      	push	{r0, r1, r4, lr}
    set_ipv4(address[0], address[1], address[2], address[3]);
   d9bd8:	78cb      	ldrb	r3, [r1, #3]
   d9bda:	9300      	str	r3, [sp, #0]
   d9bdc:	788b      	ldrb	r3, [r1, #2]
   d9bde:	784a      	ldrb	r2, [r1, #1]
   d9be0:	7809      	ldrb	r1, [r1, #0]
   d9be2:	f7ff ffeb 	bl	d9bbc <_ZN9IPAddress8set_ipv4Ehhhh>
}
   d9be6:	b002      	add	sp, #8
   d9be8:	bd10      	pop	{r4, pc}

000d9bea <_ZN12_GLOBAL__N_19skipTokenEPK9jsmntok_t>:

namespace {

// Skips token and all its children tokens if any
const jsmntok_t* skipToken(const jsmntok_t *t) {
    size_t n = 1;
   d9bea:	f100 0310 	add.w	r3, r0, #16
   d9bee:	2201      	movs	r2, #1
    do {
        if (t->type == JSMN_OBJECT) {
   d9bf0:	f813 1c10 	ldrb.w	r1, [r3, #-16]
   d9bf4:	2901      	cmp	r1, #1
   d9bf6:	4618      	mov	r0, r3
   d9bf8:	d108      	bne.n	d9c0c <_ZN12_GLOBAL__N_19skipTokenEPK9jsmntok_t+0x22>
            n += t->size * 2; // Number of name and value tokens
   d9bfa:	f853 1c04 	ldr.w	r1, [r3, #-4]
   d9bfe:	eb02 0241 	add.w	r2, r2, r1, lsl #1
        } else if (t->type == JSMN_ARRAY) {
            n += t->size; // Number of value tokens
        }
        ++t;
        --n;
    } while (n);
   d9c02:	3a01      	subs	r2, #1
   d9c04:	f103 0310 	add.w	r3, r3, #16
   d9c08:	d1f2      	bne.n	d9bf0 <_ZN12_GLOBAL__N_19skipTokenEPK9jsmntok_t+0x6>
    return t;
}
   d9c0a:	4770      	bx	lr
        } else if (t->type == JSMN_ARRAY) {
   d9c0c:	2902      	cmp	r1, #2
            n += t->size; // Number of value tokens
   d9c0e:	bf04      	itt	eq
   d9c10:	f853 1c04 	ldreq.w	r1, [r3, #-4]
   d9c14:	1852      	addeq	r2, r2, r1
   d9c16:	e7f4      	b.n	d9c02 <_ZN12_GLOBAL__N_19skipTokenEPK9jsmntok_t+0x18>

000d9c18 <_ZN5spark10JSONWriter6printfEPKcz>:
    write("null", 4);
    state_ = NEXT;
    return *this;
}

void spark::JSONWriter::printf(const char *fmt, ...) {
   d9c18:	b40e      	push	{r1, r2, r3}
   d9c1a:	b5f0      	push	{r4, r5, r6, r7, lr}
   d9c1c:	b088      	sub	sp, #32
   d9c1e:	af00      	add	r7, sp, #0
   d9c20:	f107 0534 	add.w	r5, r7, #52	; 0x34
    char buf[16];
    va_list args;
    va_start(args, fmt);
    int n = vsnprintf(buf, sizeof(buf), fmt, args);
   d9c24:	2110      	movs	r1, #16
void spark::JSONWriter::printf(const char *fmt, ...) {
   d9c26:	f855 2b04 	ldr.w	r2, [r5], #4
    int n = vsnprintf(buf, sizeof(buf), fmt, args);
   d9c2a:	607a      	str	r2, [r7, #4]
void spark::JSONWriter::printf(const char *fmt, ...) {
   d9c2c:	4604      	mov	r4, r0
    int n = vsnprintf(buf, sizeof(buf), fmt, args);
   d9c2e:	462b      	mov	r3, r5
   d9c30:	1878      	adds	r0, r7, r1
    va_start(args, fmt);
   d9c32:	60fd      	str	r5, [r7, #12]
    int n = vsnprintf(buf, sizeof(buf), fmt, args);
   d9c34:	f7ff f944 	bl	d8ec0 <vsnprintf>
    va_end(args);
    if ((size_t)n >= sizeof(buf)) {
   d9c38:	280f      	cmp	r0, #15
   d9c3a:	687a      	ldr	r2, [r7, #4]
   d9c3c:	d91a      	bls.n	d9c74 <_ZN5spark10JSONWriter6printfEPKcz+0x5c>
        char buf[n + 1]; // Use larger buffer
   d9c3e:	f100 0308 	add.w	r3, r0, #8
   d9c42:	f023 0307 	bic.w	r3, r3, #7
        va_start(args, fmt);
        n = vsnprintf(buf, sizeof(buf), fmt, args);
        va_end(args);
        if (n > 0) {
            write(buf, n);
        }
   d9c46:	466e      	mov	r6, sp
        char buf[n + 1]; // Use larger buffer
   d9c48:	ebad 0d03 	sub.w	sp, sp, r3
        n = vsnprintf(buf, sizeof(buf), fmt, args);
   d9c4c:	1c41      	adds	r1, r0, #1
   d9c4e:	462b      	mov	r3, r5
   d9c50:	4668      	mov	r0, sp
        va_start(args, fmt);
   d9c52:	60fd      	str	r5, [r7, #12]
        n = vsnprintf(buf, sizeof(buf), fmt, args);
   d9c54:	f7ff f934 	bl	d8ec0 <vsnprintf>
        if (n > 0) {
   d9c58:	1e02      	subs	r2, r0, #0
   d9c5a:	dd04      	ble.n	d9c66 <_ZN5spark10JSONWriter6printfEPKcz+0x4e>
            write(buf, n);
   d9c5c:	6823      	ldr	r3, [r4, #0]
   d9c5e:	4669      	mov	r1, sp
   d9c60:	689b      	ldr	r3, [r3, #8]
   d9c62:	4620      	mov	r0, r4
   d9c64:	4798      	blx	r3
   d9c66:	46b5      	mov	sp, r6
    } else if (n > 0) {
        write(buf, n);
    }
}
   d9c68:	3720      	adds	r7, #32
   d9c6a:	46bd      	mov	sp, r7
   d9c6c:	e8bd 40f0 	ldmia.w	sp!, {r4, r5, r6, r7, lr}
   d9c70:	b003      	add	sp, #12
   d9c72:	4770      	bx	lr
    } else if (n > 0) {
   d9c74:	2800      	cmp	r0, #0
   d9c76:	d0f7      	beq.n	d9c68 <_ZN5spark10JSONWriter6printfEPKcz+0x50>
        write(buf, n);
   d9c78:	6823      	ldr	r3, [r4, #0]
   d9c7a:	4602      	mov	r2, r0
   d9c7c:	689b      	ldr	r3, [r3, #8]
   d9c7e:	f107 0110 	add.w	r1, r7, #16
   d9c82:	4620      	mov	r0, r4
   d9c84:	4798      	blx	r3
}
   d9c86:	e7ef      	b.n	d9c68 <_ZN5spark10JSONWriter6printfEPKcz+0x50>

000d9c88 <_ZNSt16_Sp_counted_baseILN9__gnu_cxx12_Lock_policyE0EE10_M_releaseEv.part.0>:
    _Sp_counted_base<_S_single>::_M_release() noexcept
   d9c88:	b510      	push	{r4, lr}
          _M_dispose();
   d9c8a:	6803      	ldr	r3, [r0, #0]
    _Sp_counted_base<_S_single>::_M_release() noexcept
   d9c8c:	4604      	mov	r4, r0
          _M_dispose();
   d9c8e:	689b      	ldr	r3, [r3, #8]
   d9c90:	4798      	blx	r3
          if (--_M_weak_count == 0)
   d9c92:	68a3      	ldr	r3, [r4, #8]
   d9c94:	3b01      	subs	r3, #1
   d9c96:	60a3      	str	r3, [r4, #8]
   d9c98:	b92b      	cbnz	r3, d9ca6 <_ZNSt16_Sp_counted_baseILN9__gnu_cxx12_Lock_policyE0EE10_M_releaseEv.part.0+0x1e>
            _M_destroy();
   d9c9a:	6823      	ldr	r3, [r4, #0]
   d9c9c:	4620      	mov	r0, r4
   d9c9e:	68db      	ldr	r3, [r3, #12]
    }
   d9ca0:	e8bd 4010 	ldmia.w	sp!, {r4, lr}
            _M_destroy();
   d9ca4:	4718      	bx	r3
    }
   d9ca6:	bd10      	pop	{r4, pc}

000d9ca8 <_ZN5spark10JSONWriter5writeEc>:

inline spark::JSONWriter& spark::JSONWriter::value(const String &val) {
    return value(val.c_str(), val.length());
}

inline void spark::JSONWriter::write(char c) {
   d9ca8:	b507      	push	{r0, r1, r2, lr}
    write(&c, 1);
   d9caa:	6803      	ldr	r3, [r0, #0]
inline void spark::JSONWriter::write(char c) {
   d9cac:	f88d 1007 	strb.w	r1, [sp, #7]
    write(&c, 1);
   d9cb0:	689b      	ldr	r3, [r3, #8]
   d9cb2:	2201      	movs	r2, #1
   d9cb4:	f10d 0107 	add.w	r1, sp, #7
   d9cb8:	4798      	blx	r3
}
   d9cba:	b003      	add	sp, #12
   d9cbc:	f85d fb04 	ldr.w	pc, [sp], #4

000d9cc0 <_ZNSt12__shared_ptrIN5spark6detail8JSONDataELN9__gnu_cxx12_Lock_policyE0EEaSERKS5_>:
    class __shared_ptr
   d9cc0:	b538      	push	{r3, r4, r5, lr}
   d9cc2:	680b      	ldr	r3, [r1, #0]
   d9cc4:	6003      	str	r3, [r0, #0]
   d9cc6:	684d      	ldr	r5, [r1, #4]
	if (__tmp != _M_pi)
   d9cc8:	6843      	ldr	r3, [r0, #4]
   d9cca:	429d      	cmp	r5, r3
    class __shared_ptr
   d9ccc:	4604      	mov	r4, r0
	if (__tmp != _M_pi)
   d9cce:	d00c      	beq.n	d9cea <_ZNSt12__shared_ptrIN5spark6detail8JSONDataELN9__gnu_cxx12_Lock_policyE0EEaSERKS5_+0x2a>
	    if (__tmp != 0)
   d9cd0:	b115      	cbz	r5, d9cd8 <_ZNSt12__shared_ptrIN5spark6detail8JSONDataELN9__gnu_cxx12_Lock_policyE0EEaSERKS5_+0x18>
    { ++_M_use_count; }
   d9cd2:	686b      	ldr	r3, [r5, #4]
   d9cd4:	3301      	adds	r3, #1
   d9cd6:	606b      	str	r3, [r5, #4]
	    if (_M_pi != 0)
   d9cd8:	6860      	ldr	r0, [r4, #4]
   d9cda:	b128      	cbz	r0, d9ce8 <_ZNSt12__shared_ptrIN5spark6detail8JSONDataELN9__gnu_cxx12_Lock_policyE0EEaSERKS5_+0x28>
      if (--_M_use_count == 0)
   d9cdc:	6843      	ldr	r3, [r0, #4]
   d9cde:	3b01      	subs	r3, #1
   d9ce0:	6043      	str	r3, [r0, #4]
   d9ce2:	b90b      	cbnz	r3, d9ce8 <_ZNSt12__shared_ptrIN5spark6detail8JSONDataELN9__gnu_cxx12_Lock_policyE0EEaSERKS5_+0x28>
   d9ce4:	f7ff ffd0 	bl	d9c88 <_ZNSt16_Sp_counted_baseILN9__gnu_cxx12_Lock_policyE0EE10_M_releaseEv.part.0>
	    _M_pi = __tmp;
   d9ce8:	6065      	str	r5, [r4, #4]
    class __shared_ptr
   d9cea:	4620      	mov	r0, r4
   d9cec:	bd38      	pop	{r3, r4, r5, pc}

000d9cee <_ZN5spark9JSONValueC1EPK9jsmntok_tSt10shared_ptrINS_6detail8JSONDataEE>:
spark::JSONValue::JSONValue(const jsmntok_t *t, detail::JSONDataPtr d) :
   d9cee:	460b      	mov	r3, r1
   d9cf0:	4611      	mov	r1, r2
      : _M_ptr(0), _M_refcount()
   d9cf2:	2200      	movs	r2, #0
   d9cf4:	b510      	push	{r4, lr}
      constexpr __shared_count() noexcept : _M_pi(0)
   d9cf6:	e9c0 2200 	strd	r2, r2, [r0]
   d9cfa:	4604      	mov	r4, r0
        t_ = t;
   d9cfc:	6083      	str	r3, [r0, #8]
    if (t) {
   d9cfe:	b90b      	cbnz	r3, d9d04 <_ZN5spark9JSONValueC1EPK9jsmntok_tSt10shared_ptrINS_6detail8JSONDataEE+0x16>
}
   d9d00:	4620      	mov	r0, r4
   d9d02:	bd10      	pop	{r4, pc}
    class shared_ptr : public __shared_ptr<_Tp>
   d9d04:	f7ff ffdc 	bl	d9cc0 <_ZNSt12__shared_ptrIN5spark6detail8JSONDataELN9__gnu_cxx12_Lock_policyE0EEaSERKS5_>
   d9d08:	e7fa      	b.n	d9d00 <_ZN5spark9JSONValueC1EPK9jsmntok_tSt10shared_ptrINS_6detail8JSONDataEE+0x12>

000d9d0a <_ZNK5spark9JSONValue4typeEv>:
    if (!t_) {
   d9d0a:	6883      	ldr	r3, [r0, #8]
   d9d0c:	b1eb      	cbz	r3, d9d4a <_ZNK5spark9JSONValue4typeEv+0x40>
    switch (t_->type) {
   d9d0e:	781a      	ldrb	r2, [r3, #0]
   d9d10:	2a03      	cmp	r2, #3
   d9d12:	d81a      	bhi.n	d9d4a <_ZNK5spark9JSONValue4typeEv+0x40>
   d9d14:	e8df f002 	tbb	[pc, r2]
   d9d18:	1b021704 	.word	0x1b021704
   d9d1c:	2005      	movs	r0, #5
   d9d1e:	4770      	bx	lr
        const char c = d_->json[t_->start];
   d9d20:	6802      	ldr	r2, [r0, #0]
   d9d22:	685b      	ldr	r3, [r3, #4]
   d9d24:	6852      	ldr	r2, [r2, #4]
   d9d26:	5cd0      	ldrb	r0, [r2, r3]
        if (c == '-' || (c >= '0' && c <= '9')) {
   d9d28:	282d      	cmp	r0, #45	; 0x2d
   d9d2a:	d012      	beq.n	d9d52 <_ZNK5spark9JSONValue4typeEv+0x48>
   d9d2c:	f1a0 0330 	sub.w	r3, r0, #48	; 0x30
   d9d30:	2b09      	cmp	r3, #9
   d9d32:	d90e      	bls.n	d9d52 <_ZNK5spark9JSONValue4typeEv+0x48>
        } else if (c == 't' || c == 'f') { // Literal names are always in lower case
   d9d34:	2874      	cmp	r0, #116	; 0x74
   d9d36:	d00e      	beq.n	d9d56 <_ZNK5spark9JSONValue4typeEv+0x4c>
   d9d38:	2866      	cmp	r0, #102	; 0x66
   d9d3a:	d00c      	beq.n	d9d56 <_ZNK5spark9JSONValue4typeEv+0x4c>
        return JSON_TYPE_INVALID;
   d9d3c:	f1a0 036e 	sub.w	r3, r0, #110	; 0x6e
   d9d40:	4258      	negs	r0, r3
   d9d42:	4158      	adcs	r0, r3
   d9d44:	4770      	bx	lr
        return JSON_TYPE_OBJECT;
   d9d46:	2006      	movs	r0, #6
   d9d48:	4770      	bx	lr
        return JSON_TYPE_INVALID;
   d9d4a:	2000      	movs	r0, #0
   d9d4c:	4770      	bx	lr
        return JSON_TYPE_STRING;
   d9d4e:	2004      	movs	r0, #4
   d9d50:	4770      	bx	lr
            return JSON_TYPE_NUMBER;
   d9d52:	2003      	movs	r0, #3
   d9d54:	4770      	bx	lr
            return JSON_TYPE_BOOL;
   d9d56:	2002      	movs	r0, #2
}
   d9d58:	4770      	bx	lr

000d9d5a <_ZNK5spark9JSONValue5toIntEv>:
int spark::JSONValue::toInt() const {
   d9d5a:	b510      	push	{r4, lr}
   d9d5c:	4604      	mov	r4, r0
    switch (type()) {
   d9d5e:	f7ff ffd4 	bl	d9d0a <_ZNK5spark9JSONValue4typeEv>
   d9d62:	2802      	cmp	r0, #2
   d9d64:	d00e      	beq.n	d9d84 <_ZNK5spark9JSONValue5toIntEv+0x2a>
   d9d66:	1ec3      	subs	r3, r0, #3
   d9d68:	b2db      	uxtb	r3, r3
   d9d6a:	2b01      	cmp	r3, #1
   d9d6c:	d814      	bhi.n	d9d98 <_ZNK5spark9JSONValue5toIntEv+0x3e>
        const char* const s = d_->json + t_->start;
   d9d6e:	6822      	ldr	r2, [r4, #0]
   d9d70:	68a3      	ldr	r3, [r4, #8]
   d9d72:	6850      	ldr	r0, [r2, #4]
   d9d74:	685b      	ldr	r3, [r3, #4]
}
   d9d76:	e8bd 4010 	ldmia.w	sp!, {r4, lr}
        return strtol(s, nullptr, 10);
   d9d7a:	220a      	movs	r2, #10
   d9d7c:	2100      	movs	r1, #0
   d9d7e:	4418      	add	r0, r3
   d9d80:	f002 bf3e 	b.w	dcc00 <strtol>
        const char* const s = d_->json + t_->start;
   d9d84:	6822      	ldr	r2, [r4, #0]
   d9d86:	68a3      	ldr	r3, [r4, #8]
        return *s == 't';
   d9d88:	6852      	ldr	r2, [r2, #4]
   d9d8a:	685b      	ldr	r3, [r3, #4]
   d9d8c:	5cd0      	ldrb	r0, [r2, r3]
   d9d8e:	f1a0 0374 	sub.w	r3, r0, #116	; 0x74
   d9d92:	4258      	negs	r0, r3
   d9d94:	4158      	adcs	r0, r3
}
   d9d96:	bd10      	pop	{r4, pc}
    switch (type()) {
   d9d98:	2000      	movs	r0, #0
   d9d9a:	e7fc      	b.n	d9d96 <_ZNK5spark9JSONValue5toIntEv+0x3c>

000d9d9c <_ZN5spark10JSONStringC1EPK9jsmntok_tSt10shared_ptrINS_6detail8JSONDataEE>:
spark::JSONString::JSONString(const jsmntok_t *t, detail::JSONDataPtr d) :
   d9d9c:	b538      	push	{r3, r4, r5, lr}
      : _M_ptr(0), _M_refcount()
   d9d9e:	2300      	movs	r3, #0
      constexpr __shared_count() noexcept : _M_pi(0)
   d9da0:	e9c0 3300 	strd	r3, r3, [r0]
   d9da4:	4604      	mov	r4, r0
        n_(0) {
   d9da6:	480e      	ldr	r0, [pc, #56]	; (d9de0 <_ZN5spark10JSONStringC1EPK9jsmntok_tSt10shared_ptrINS_6detail8JSONDataEE+0x44>)
   d9da8:	e9c4 0302 	strd	r0, r3, [r4, #8]
    if (t && (t->type == JSMN_STRING || t->type == JSMN_PRIMITIVE)) {
   d9dac:	b1a9      	cbz	r1, d9dda <_ZN5spark10JSONStringC1EPK9jsmntok_tSt10shared_ptrINS_6detail8JSONDataEE+0x3e>
   d9dae:	780b      	ldrb	r3, [r1, #0]
   d9db0:	2b03      	cmp	r3, #3
   d9db2:	d006      	beq.n	d9dc2 <_ZN5spark10JSONStringC1EPK9jsmntok_tSt10shared_ptrINS_6detail8JSONDataEE+0x26>
   d9db4:	b98b      	cbnz	r3, d9dda <_ZN5spark10JSONStringC1EPK9jsmntok_tSt10shared_ptrINS_6detail8JSONDataEE+0x3e>
        if (t->type != JSMN_PRIMITIVE || d->json[t->start] != 'n') { // Nulls are treated as empty strings
   d9db6:	6813      	ldr	r3, [r2, #0]
   d9db8:	6858      	ldr	r0, [r3, #4]
   d9dba:	684b      	ldr	r3, [r1, #4]
   d9dbc:	5cc3      	ldrb	r3, [r0, r3]
   d9dbe:	2b6e      	cmp	r3, #110	; 0x6e
   d9dc0:	d007      	beq.n	d9dd2 <_ZN5spark10JSONStringC1EPK9jsmntok_tSt10shared_ptrINS_6detail8JSONDataEE+0x36>
            s_ = d->json + t->start;
   d9dc2:	6813      	ldr	r3, [r2, #0]
   d9dc4:	684d      	ldr	r5, [r1, #4]
   d9dc6:	6858      	ldr	r0, [r3, #4]
            n_ = t->end - t->start;
   d9dc8:	688b      	ldr	r3, [r1, #8]
            s_ = d->json + t->start;
   d9dca:	4428      	add	r0, r5
            n_ = t->end - t->start;
   d9dcc:	1b5b      	subs	r3, r3, r5
            s_ = d->json + t->start;
   d9dce:	60a0      	str	r0, [r4, #8]
            n_ = t->end - t->start;
   d9dd0:	60e3      	str	r3, [r4, #12]
   d9dd2:	4611      	mov	r1, r2
   d9dd4:	4620      	mov	r0, r4
   d9dd6:	f7ff ff73 	bl	d9cc0 <_ZNSt12__shared_ptrIN5spark6detail8JSONDataELN9__gnu_cxx12_Lock_policyE0EEaSERKS5_>
}
   d9dda:	4620      	mov	r0, r4
   d9ddc:	bd38      	pop	{r3, r4, r5, pc}
   d9dde:	bf00      	nop
   d9de0:	000dd935 	.word	0x000dd935

000d9de4 <_ZN5spark18JSONObjectIteratorC1EPK9jsmntok_tSt10shared_ptrINS_6detail8JSONDataEE>:
spark::JSONObjectIterator::JSONObjectIterator(const jsmntok_t *t, detail::JSONDataPtr d) :
   d9de4:	b538      	push	{r3, r4, r5, lr}
      : _M_ptr(0), _M_refcount()
   d9de6:	2500      	movs	r5, #0
   d9de8:	460b      	mov	r3, r1
      constexpr __shared_count() noexcept : _M_pi(0)
   d9dea:	e9c0 5500 	strd	r5, r5, [r0]
        n_(0) {
   d9dee:	e9c0 5502 	strd	r5, r5, [r0, #8]
   d9df2:	e9c0 5504 	strd	r5, r5, [r0, #16]
   d9df6:	4604      	mov	r4, r0
   d9df8:	4611      	mov	r1, r2
    if (t && t->type == JSMN_OBJECT) {
   d9dfa:	b14b      	cbz	r3, d9e10 <_ZN5spark18JSONObjectIteratorC1EPK9jsmntok_tSt10shared_ptrINS_6detail8JSONDataEE+0x2c>
   d9dfc:	781a      	ldrb	r2, [r3, #0]
   d9dfe:	2a01      	cmp	r2, #1
   d9e00:	d106      	bne.n	d9e10 <_ZN5spark18JSONObjectIteratorC1EPK9jsmntok_tSt10shared_ptrINS_6detail8JSONDataEE+0x2c>
        t_ = t + 1; // First property's name
   d9e02:	f103 0210 	add.w	r2, r3, #16
        n_ = t->size; // Number of properties
   d9e06:	68db      	ldr	r3, [r3, #12]
        t_ = t + 1; // First property's name
   d9e08:	6082      	str	r2, [r0, #8]
        n_ = t->size; // Number of properties
   d9e0a:	6143      	str	r3, [r0, #20]
   d9e0c:	f7ff ff58 	bl	d9cc0 <_ZNSt12__shared_ptrIN5spark6detail8JSONDataELN9__gnu_cxx12_Lock_policyE0EEaSERKS5_>
}
   d9e10:	4620      	mov	r0, r4
   d9e12:	bd38      	pop	{r3, r4, r5, pc}

000d9e14 <_ZN5spark18JSONObjectIterator4nextEv>:
bool spark::JSONObjectIterator::next() {
   d9e14:	b510      	push	{r4, lr}
    if (!n_) {
   d9e16:	6943      	ldr	r3, [r0, #20]
bool spark::JSONObjectIterator::next() {
   d9e18:	4604      	mov	r4, r0
    if (!n_) {
   d9e1a:	b163      	cbz	r3, d9e36 <_ZN5spark18JSONObjectIterator4nextEv+0x22>
    k_ = t_; // Name
   d9e1c:	6880      	ldr	r0, [r0, #8]
   d9e1e:	60e0      	str	r0, [r4, #12]
    --n_;
   d9e20:	3b01      	subs	r3, #1
    ++t_;
   d9e22:	3010      	adds	r0, #16
   d9e24:	60a0      	str	r0, [r4, #8]
    v_ = t_; // Value
   d9e26:	6120      	str	r0, [r4, #16]
    --n_;
   d9e28:	6163      	str	r3, [r4, #20]
    if (n_) {
   d9e2a:	b113      	cbz	r3, d9e32 <_ZN5spark18JSONObjectIterator4nextEv+0x1e>
        t_ = skipToken(t_);
   d9e2c:	f7ff fedd 	bl	d9bea <_ZN12_GLOBAL__N_19skipTokenEPK9jsmntok_t>
   d9e30:	60a0      	str	r0, [r4, #8]
    return true;
   d9e32:	2001      	movs	r0, #1
   d9e34:	e000      	b.n	d9e38 <_ZN5spark18JSONObjectIterator4nextEv+0x24>
        return false;
   d9e36:	4618      	mov	r0, r3
}
   d9e38:	bd10      	pop	{r4, pc}

000d9e3a <_ZN5spark10JSONWriter9endObjectEv>:
spark::JSONWriter& spark::JSONWriter::endObject() {
   d9e3a:	b510      	push	{r4, lr}
    write('}');
   d9e3c:	217d      	movs	r1, #125	; 0x7d
spark::JSONWriter& spark::JSONWriter::endObject() {
   d9e3e:	4604      	mov	r4, r0
    write('}');
   d9e40:	f7ff ff32 	bl	d9ca8 <_ZN5spark10JSONWriter5writeEc>
    state_ = NEXT;
   d9e44:	2301      	movs	r3, #1
   d9e46:	7123      	strb	r3, [r4, #4]
}
   d9e48:	4620      	mov	r0, r4
   d9e4a:	bd10      	pop	{r4, pc}

000d9e4c <_ZN5spark10JSONWriter14writeSeparatorEv>:

void spark::JSONWriter::writeSeparator() {
   d9e4c:	b508      	push	{r3, lr}
    switch (state_) {
   d9e4e:	7903      	ldrb	r3, [r0, #4]
   d9e50:	2b01      	cmp	r3, #1
   d9e52:	d002      	beq.n	d9e5a <_ZN5spark10JSONWriter14writeSeparatorEv+0xe>
   d9e54:	2b02      	cmp	r3, #2
   d9e56:	d004      	beq.n	d9e62 <_ZN5spark10JSONWriter14writeSeparatorEv+0x16>
        write(':');
        break;
    default:
        break;
    }
}
   d9e58:	bd08      	pop	{r3, pc}
        write(',');
   d9e5a:	212c      	movs	r1, #44	; 0x2c
        write(':');
   d9e5c:	f7ff ff24 	bl	d9ca8 <_ZN5spark10JSONWriter5writeEc>
}
   d9e60:	e7fa      	b.n	d9e58 <_ZN5spark10JSONWriter14writeSeparatorEv+0xc>
        write(':');
   d9e62:	213a      	movs	r1, #58	; 0x3a
   d9e64:	e7fa      	b.n	d9e5c <_ZN5spark10JSONWriter14writeSeparatorEv+0x10>

000d9e66 <_ZN5spark10JSONWriter11beginObjectEv>:
spark::JSONWriter& spark::JSONWriter::beginObject() {
   d9e66:	b510      	push	{r4, lr}
   d9e68:	4604      	mov	r4, r0
    writeSeparator();
   d9e6a:	f7ff ffef 	bl	d9e4c <_ZN5spark10JSONWriter14writeSeparatorEv>
    write('{');
   d9e6e:	4620      	mov	r0, r4
   d9e70:	217b      	movs	r1, #123	; 0x7b
   d9e72:	f7ff ff19 	bl	d9ca8 <_ZN5spark10JSONWriter5writeEc>
    state_ = BEGIN;
   d9e76:	2300      	movs	r3, #0
   d9e78:	7123      	strb	r3, [r4, #4]
}
   d9e7a:	4620      	mov	r0, r4
   d9e7c:	bd10      	pop	{r4, pc}
	...

000d9e80 <_ZN5spark10JSONWriter5valueEi>:
spark::JSONWriter& spark::JSONWriter::value(int val) {
   d9e80:	b513      	push	{r0, r1, r4, lr}
   d9e82:	4604      	mov	r4, r0
   d9e84:	9101      	str	r1, [sp, #4]
    writeSeparator();
   d9e86:	f7ff ffe1 	bl	d9e4c <_ZN5spark10JSONWriter14writeSeparatorEv>
    printf("%d", val);
   d9e8a:	6823      	ldr	r3, [r4, #0]
   d9e8c:	9a01      	ldr	r2, [sp, #4]
   d9e8e:	68db      	ldr	r3, [r3, #12]
   d9e90:	4903      	ldr	r1, [pc, #12]	; (d9ea0 <_ZN5spark10JSONWriter5valueEi+0x20>)
   d9e92:	4620      	mov	r0, r4
   d9e94:	4798      	blx	r3
    state_ = NEXT;
   d9e96:	2301      	movs	r3, #1
}
   d9e98:	4620      	mov	r0, r4
    state_ = NEXT;
   d9e9a:	7123      	strb	r3, [r4, #4]
}
   d9e9c:	b002      	add	sp, #8
   d9e9e:	bd10      	pop	{r4, pc}
   d9ea0:	000dd2eb 	.word	0x000dd2eb

000d9ea4 <_ZN5spark10JSONWriter5valueEj>:
spark::JSONWriter& spark::JSONWriter::value(unsigned val) {
   d9ea4:	b513      	push	{r0, r1, r4, lr}
   d9ea6:	4604      	mov	r4, r0
   d9ea8:	9101      	str	r1, [sp, #4]
    writeSeparator();
   d9eaa:	f7ff ffcf 	bl	d9e4c <_ZN5spark10JSONWriter14writeSeparatorEv>
    printf("%u", val);
   d9eae:	6823      	ldr	r3, [r4, #0]
   d9eb0:	9a01      	ldr	r2, [sp, #4]
   d9eb2:	68db      	ldr	r3, [r3, #12]
   d9eb4:	4903      	ldr	r1, [pc, #12]	; (d9ec4 <_ZN5spark10JSONWriter5valueEj+0x20>)
   d9eb6:	4620      	mov	r0, r4
   d9eb8:	4798      	blx	r3
    state_ = NEXT;
   d9eba:	2301      	movs	r3, #1
}
   d9ebc:	4620      	mov	r0, r4
    state_ = NEXT;
   d9ebe:	7123      	strb	r3, [r4, #4]
}
   d9ec0:	b002      	add	sp, #8
   d9ec2:	bd10      	pop	{r4, pc}
   d9ec4:	000dd51f 	.word	0x000dd51f

000d9ec8 <_ZN5spark10JSONWriter12writeEscapedEPKcj>:

void spark::JSONWriter::writeEscaped(const char *str, size_t size) {
   d9ec8:	e92d 41f0 	stmdb	sp!, {r4, r5, r6, r7, r8, lr}
   d9ecc:	460d      	mov	r5, r1
   d9ece:	4617      	mov	r7, r2
    write('"');
   d9ed0:	2122      	movs	r1, #34	; 0x22
            case 0x0d: // Carriage return
                write('r');
                break;
            default:
                // All other control characters are written in hex, e.g. "\u001f"
                printf("u%04x", (unsigned)c);
   d9ed2:	f8df 80a0 	ldr.w	r8, [pc, #160]	; d9f74 <_ZN5spark10JSONWriter12writeEscapedEPKcj+0xac>
void spark::JSONWriter::writeEscaped(const char *str, size_t size) {
   d9ed6:	4604      	mov	r4, r0
    const char* const end = str + size;
   d9ed8:	442f      	add	r7, r5
    write('"');
   d9eda:	f7ff fee5 	bl	d9ca8 <_ZN5spark10JSONWriter5writeEc>
    const char* const end = str + size;
   d9ede:	4629      	mov	r1, r5
    while (s != end) {
   d9ee0:	42bd      	cmp	r5, r7
   d9ee2:	462a      	mov	r2, r5
   d9ee4:	d038      	beq.n	d9f58 <_ZN5spark10JSONWriter12writeEscapedEPKcj+0x90>
        const char c = *s;
   d9ee6:	f815 6b01 	ldrb.w	r6, [r5], #1
        if (c == '"' || c == '\\' || (c >= 0 && c <= 0x1f)) {
   d9eea:	2e22      	cmp	r6, #34	; 0x22
   d9eec:	d003      	beq.n	d9ef6 <_ZN5spark10JSONWriter12writeEscapedEPKcj+0x2e>
   d9eee:	2e5c      	cmp	r6, #92	; 0x5c
   d9ef0:	d001      	beq.n	d9ef6 <_ZN5spark10JSONWriter12writeEscapedEPKcj+0x2e>
   d9ef2:	2e1f      	cmp	r6, #31
   d9ef4:	d8f4      	bhi.n	d9ee0 <_ZN5spark10JSONWriter12writeEscapedEPKcj+0x18>
            write(str, s - str); // Write preceeding characters
   d9ef6:	6823      	ldr	r3, [r4, #0]
   d9ef8:	1a52      	subs	r2, r2, r1
   d9efa:	689b      	ldr	r3, [r3, #8]
   d9efc:	4620      	mov	r0, r4
   d9efe:	4798      	blx	r3
            write('\\');
   d9f00:	215c      	movs	r1, #92	; 0x5c
   d9f02:	4620      	mov	r0, r4
   d9f04:	f7ff fed0 	bl	d9ca8 <_ZN5spark10JSONWriter5writeEc>
            switch (c) {
   d9f08:	2e0d      	cmp	r6, #13
   d9f0a:	d80a      	bhi.n	d9f22 <_ZN5spark10JSONWriter12writeEscapedEPKcj+0x5a>
   d9f0c:	2e07      	cmp	r6, #7
   d9f0e:	d91c      	bls.n	d9f4a <_ZN5spark10JSONWriter12writeEscapedEPKcj+0x82>
   d9f10:	f1a6 0308 	sub.w	r3, r6, #8
   d9f14:	2b05      	cmp	r3, #5
   d9f16:	d818      	bhi.n	d9f4a <_ZN5spark10JSONWriter12writeEscapedEPKcj+0x82>
   d9f18:	e8df f003 	tbb	[pc, r3]
   d9f1c:	17110f0d 	.word	0x17110f0d
   d9f20:	1513      	.short	0x1513
   d9f22:	2e22      	cmp	r6, #34	; 0x22
   d9f24:	d001      	beq.n	d9f2a <_ZN5spark10JSONWriter12writeEscapedEPKcj+0x62>
   d9f26:	2e5c      	cmp	r6, #92	; 0x5c
   d9f28:	d10f      	bne.n	d9f4a <_ZN5spark10JSONWriter12writeEscapedEPKcj+0x82>
                write(c);
   d9f2a:	4631      	mov	r1, r6
                write('b');
   d9f2c:	4620      	mov	r0, r4
   d9f2e:	f7ff febb 	bl	d9ca8 <_ZN5spark10JSONWriter5writeEc>
                break;
            }
            str = s + 1;
   d9f32:	4629      	mov	r1, r5
    while (s != end) {
   d9f34:	e7d4      	b.n	d9ee0 <_ZN5spark10JSONWriter12writeEscapedEPKcj+0x18>
                write('b');
   d9f36:	2162      	movs	r1, #98	; 0x62
   d9f38:	e7f8      	b.n	d9f2c <_ZN5spark10JSONWriter12writeEscapedEPKcj+0x64>
                write('t');
   d9f3a:	2174      	movs	r1, #116	; 0x74
   d9f3c:	e7f6      	b.n	d9f2c <_ZN5spark10JSONWriter12writeEscapedEPKcj+0x64>
                write('n');
   d9f3e:	216e      	movs	r1, #110	; 0x6e
   d9f40:	e7f4      	b.n	d9f2c <_ZN5spark10JSONWriter12writeEscapedEPKcj+0x64>
                write('f');
   d9f42:	2166      	movs	r1, #102	; 0x66
   d9f44:	e7f2      	b.n	d9f2c <_ZN5spark10JSONWriter12writeEscapedEPKcj+0x64>
                write('r');
   d9f46:	2172      	movs	r1, #114	; 0x72
   d9f48:	e7f0      	b.n	d9f2c <_ZN5spark10JSONWriter12writeEscapedEPKcj+0x64>
                printf("u%04x", (unsigned)c);
   d9f4a:	6823      	ldr	r3, [r4, #0]
   d9f4c:	4632      	mov	r2, r6
   d9f4e:	68db      	ldr	r3, [r3, #12]
   d9f50:	4641      	mov	r1, r8
   d9f52:	4620      	mov	r0, r4
   d9f54:	4798      	blx	r3
                break;
   d9f56:	e7ec      	b.n	d9f32 <_ZN5spark10JSONWriter12writeEscapedEPKcj+0x6a>
        }
        ++s;
    }
    if (s != str) {
   d9f58:	428d      	cmp	r5, r1
   d9f5a:	d004      	beq.n	d9f66 <_ZN5spark10JSONWriter12writeEscapedEPKcj+0x9e>
        write(str, s - str); // Write remaining characters
   d9f5c:	6823      	ldr	r3, [r4, #0]
   d9f5e:	1a6a      	subs	r2, r5, r1
   d9f60:	689b      	ldr	r3, [r3, #8]
   d9f62:	4620      	mov	r0, r4
   d9f64:	4798      	blx	r3
    }
    write('"');
   d9f66:	2122      	movs	r1, #34	; 0x22
   d9f68:	4620      	mov	r0, r4
   d9f6a:	f7ff fe9d 	bl	d9ca8 <_ZN5spark10JSONWriter5writeEc>
}
   d9f6e:	e8bd 81f0 	ldmia.w	sp!, {r4, r5, r6, r7, r8, pc}
   d9f72:	bf00      	nop
   d9f74:	000dd8d8 	.word	0x000dd8d8

000d9f78 <_ZN5spark10JSONWriter4nameEPKcj>:
spark::JSONWriter& spark::JSONWriter::name(const char *name, size_t size) {
   d9f78:	b513      	push	{r0, r1, r4, lr}
   d9f7a:	4604      	mov	r4, r0
   d9f7c:	e9cd 2100 	strd	r2, r1, [sp]
    writeSeparator();
   d9f80:	f7ff ff64 	bl	d9e4c <_ZN5spark10JSONWriter14writeSeparatorEv>
    writeEscaped(name, size);
   d9f84:	4620      	mov	r0, r4
   d9f86:	e9dd 2100 	ldrd	r2, r1, [sp]
   d9f8a:	f7ff ff9d 	bl	d9ec8 <_ZN5spark10JSONWriter12writeEscapedEPKcj>
    state_ = VALUE;
   d9f8e:	2302      	movs	r3, #2
}
   d9f90:	4620      	mov	r0, r4
    state_ = VALUE;
   d9f92:	7123      	strb	r3, [r4, #4]
}
   d9f94:	b002      	add	sp, #8
   d9f96:	bd10      	pop	{r4, pc}

000d9f98 <_ZN5spark10JSONWriter5valueEPKcj>:
spark::JSONWriter& spark::JSONWriter::value(const char *val, size_t size) {
   d9f98:	b513      	push	{r0, r1, r4, lr}
   d9f9a:	4604      	mov	r4, r0
   d9f9c:	e9cd 2100 	strd	r2, r1, [sp]
    writeSeparator();
   d9fa0:	f7ff ff54 	bl	d9e4c <_ZN5spark10JSONWriter14writeSeparatorEv>
    writeEscaped(val, size);
   d9fa4:	4620      	mov	r0, r4
   d9fa6:	e9dd 2100 	ldrd	r2, r1, [sp]
   d9faa:	f7ff ff8d 	bl	d9ec8 <_ZN5spark10JSONWriter12writeEscapedEPKcj>
    state_ = NEXT;
   d9fae:	2301      	movs	r3, #1
}
   d9fb0:	4620      	mov	r0, r4
    state_ = NEXT;
   d9fb2:	7123      	strb	r3, [r4, #4]
}
   d9fb4:	b002      	add	sp, #8
   d9fb6:	bd10      	pop	{r4, pc}

000d9fb8 <_ZN5spark16JSONStreamWriter5writeEPKcj>:
inline Print* spark::JSONStreamWriter::stream() const {
    return &strm_;
}

inline void spark::JSONStreamWriter::write(const char *data, size_t size) {
    strm_.write((const uint8_t*)data, size);
   d9fb8:	6880      	ldr	r0, [r0, #8]
   d9fba:	6803      	ldr	r3, [r0, #0]
   d9fbc:	68db      	ldr	r3, [r3, #12]
   d9fbe:	4718      	bx	r3

000d9fc0 <_ZN5spark20JSONStreamLogHandler5writeEPKcj>:
}

// spark::JSONStreamLogHandler
inline void spark::JSONStreamLogHandler::write(const char *data, size_t size) {
    // This handler doesn't support direct logging
}
   d9fc0:	4770      	bx	lr

000d9fc2 <_ZN5spark17LogHandlerFactory14destroyHandlerEPNS_10LogHandlerE>:

#if Wiring_LogConfig

// spark::LogHandlerFactory
inline void spark::LogHandlerFactory::destroyHandler(LogHandler *handler) {
    delete handler;
   d9fc2:	4608      	mov	r0, r1
   d9fc4:	b111      	cbz	r1, d9fcc <_ZN5spark17LogHandlerFactory14destroyHandlerEPNS_10LogHandlerE+0xa>
   d9fc6:	680b      	ldr	r3, [r1, #0]
   d9fc8:	685b      	ldr	r3, [r3, #4]
   d9fca:	4718      	bx	r3
}
   d9fcc:	4770      	bx	lr

000d9fce <__tcf_0>:
    }
    return nullptr; // Unknown handler type
}

spark::DefaultLogHandlerFactory* spark::DefaultLogHandlerFactory::instance() {
    static DefaultLogHandlerFactory factory;
   d9fce:	4770      	bx	lr

000d9fd0 <_ZN5spark26DefaultOutputStreamFactoryD1Ev>:
class DefaultOutputStreamFactory: public OutputStreamFactory {
   d9fd0:	4770      	bx	lr

000d9fd2 <_ZN5spark24DefaultLogHandlerFactoryD1Ev>:
class DefaultLogHandlerFactory: public LogHandlerFactory {
   d9fd2:	4770      	bx	lr

000d9fd4 <_ZN5spark16JSONStreamWriterD1Ev>:
class JSONStreamWriter: public JSONWriter {
   d9fd4:	4770      	bx	lr

000d9fd6 <_ZN12_GLOBAL__N_119nextSubcategoryNameERPKcRj>:
const char* nextSubcategoryName(const char* &category, size_t &size) {
   d9fd6:	b538      	push	{r3, r4, r5, lr}
   d9fd8:	4604      	mov	r4, r0
   d9fda:	460d      	mov	r5, r1
    const char *s = strchrnul(category, '.');
   d9fdc:	6800      	ldr	r0, [r0, #0]
   d9fde:	212e      	movs	r1, #46	; 0x2e
   d9fe0:	f002 fced 	bl	dc9be <strchrnul>
    size = s - category;
   d9fe4:	6823      	ldr	r3, [r4, #0]
   d9fe6:	1ac3      	subs	r3, r0, r3
   d9fe8:	602b      	str	r3, [r5, #0]
    if (size) {
   d9fea:	b123      	cbz	r3, d9ff6 <_ZN12_GLOBAL__N_119nextSubcategoryNameERPKcRj+0x20>
        if (*s) {
   d9fec:	7803      	ldrb	r3, [r0, #0]
   d9fee:	b103      	cbz	r3, d9ff2 <_ZN12_GLOBAL__N_119nextSubcategoryNameERPKcRj+0x1c>
            ++s;
   d9ff0:	3001      	adds	r0, #1
   d9ff2:	6823      	ldr	r3, [r4, #0]
      __b = _GLIBCXX_MOVE(__tmp);
   d9ff4:	6020      	str	r0, [r4, #0]
}
   d9ff6:	4618      	mov	r0, r3
   d9ff8:	bd38      	pop	{r3, r4, r5, pc}

000d9ffa <_ZN5spark16JSONStreamWriterD0Ev>:
   d9ffa:	b510      	push	{r4, lr}
   d9ffc:	210c      	movs	r1, #12
   d9ffe:	4604      	mov	r4, r0
   da000:	f001 ffbc 	bl	dbf7c <_ZdlPvj>
   da004:	4620      	mov	r0, r4
   da006:	bd10      	pop	{r4, pc}

000da008 <_ZN5spark24DefaultLogHandlerFactoryD0Ev>:
   da008:	b510      	push	{r4, lr}
   da00a:	2104      	movs	r1, #4
   da00c:	4604      	mov	r4, r0
   da00e:	f001 ffb5 	bl	dbf7c <_ZdlPvj>
   da012:	4620      	mov	r0, r4
   da014:	bd10      	pop	{r4, pc}

000da016 <_ZN5spark26DefaultOutputStreamFactoryD0Ev>:
class DefaultOutputStreamFactory: public OutputStreamFactory {
   da016:	b510      	push	{r4, lr}
   da018:	2104      	movs	r1, #4
   da01a:	4604      	mov	r4, r0
   da01c:	f001 ffae 	bl	dbf7c <_ZdlPvj>
   da020:	4620      	mov	r0, r4
   da022:	bd10      	pop	{r4, pc}

000da024 <_ZNK5spark10JSONStringeqEPKc.isra.0>:
inline bool spark::JSONString::operator==(const char *str) const {
   da024:	b508      	push	{r3, lr}
    return strcmp(s_, str) == 0;
   da026:	f002 fcd4 	bl	dc9d2 <strcmp>
}
   da02a:	fab0 f080 	clz	r0, r0
   da02e:	0940      	lsrs	r0, r0, #5
   da030:	bd08      	pop	{r3, pc}

000da032 <__tcf_1>:
   da032:	4770      	bx	lr

000da034 <_ZN5spark26DefaultOutputStreamFactory13destroyStreamEP5Print>:
    }
#endif // PLATFORM_ID != 3
    return nullptr;
}

void spark::DefaultOutputStreamFactory::destroyStream(Print *stream) {
   da034:	b510      	push	{r4, lr}
   da036:	460c      	mov	r4, r1
#if PLATFORM_ID != 3
    if (stream == &Serial) {
   da038:	f001 fdba 	bl	dbbb0 <_Z16_fetch_usbserialv>
   da03c:	4284      	cmp	r4, r0
   da03e:	d010      	beq.n	da062 <_ZN5spark26DefaultOutputStreamFactory13destroyStreamEP5Print+0x2e>
    if (stream == &USBSerial1) {
        USBSerial1.end();
        return;
    }
#endif
    if (stream == &Serial1) {
   da040:	f001 fd2e 	bl	dbaa0 <_Z22__fetch_global_Serial1v>
   da044:	4284      	cmp	r4, r0
   da046:	d105      	bne.n	da054 <_ZN5spark26DefaultOutputStreamFactory13destroyStreamEP5Print+0x20>
        Serial1.end();
   da048:	f001 fd2a 	bl	dbaa0 <_Z22__fetch_global_Serial1v>
        return;
    }
#endif // PLATFORM_ID != 3
    OutputStreamFactory::destroyStream(stream);
}
   da04c:	e8bd 4010 	ldmia.w	sp!, {r4, lr}
        Serial1.end();
   da050:	f001 bd23 	b.w	dba9a <_ZN11USARTSerial3endEv>

// spark::OutputStreamFactory
inline void spark::OutputStreamFactory::destroyStream(Print *stream) {
    delete stream;
   da054:	b12c      	cbz	r4, da062 <_ZN5spark26DefaultOutputStreamFactory13destroyStreamEP5Print+0x2e>
   da056:	6823      	ldr	r3, [r4, #0]
   da058:	4620      	mov	r0, r4
   da05a:	685b      	ldr	r3, [r3, #4]
}
   da05c:	e8bd 4010 	ldmia.w	sp!, {r4, lr}
   da060:	4718      	bx	r3
   da062:	bd10      	pop	{r4, pc}

000da064 <_ZN5spark10JSONWriter5valueEPKc>:
inline spark::JSONWriter& spark::JSONWriter::value(const char *val) {
   da064:	b513      	push	{r0, r1, r4, lr}
   da066:	4604      	mov	r4, r0
    return value(val, strlen(val));
   da068:	4608      	mov	r0, r1
   da06a:	9101      	str	r1, [sp, #4]
   da06c:	f002 fce1 	bl	dca32 <strlen>
   da070:	9901      	ldr	r1, [sp, #4]
   da072:	4602      	mov	r2, r0
   da074:	4620      	mov	r0, r4
}
   da076:	b002      	add	sp, #8
   da078:	e8bd 4010 	ldmia.w	sp!, {r4, lr}
    return value(val, strlen(val));
   da07c:	f7ff bf8c 	b.w	d9f98 <_ZN5spark10JSONWriter5valueEPKcj>

000da080 <_ZN5spark16StreamLogHandler5writeEPKc>:
inline void spark::StreamLogHandler::write(const char *str) {
   da080:	b513      	push	{r0, r1, r4, lr}
   da082:	4604      	mov	r4, r0
    write(str, strlen(str));
   da084:	4608      	mov	r0, r1
   da086:	9101      	str	r1, [sp, #4]
   da088:	f002 fcd3 	bl	dca32 <strlen>
   da08c:	6823      	ldr	r3, [r4, #0]
   da08e:	9901      	ldr	r1, [sp, #4]
   da090:	68db      	ldr	r3, [r3, #12]
   da092:	4602      	mov	r2, r0
   da094:	4620      	mov	r0, r4
}
   da096:	b002      	add	sp, #8
   da098:	e8bd 4010 	ldmia.w	sp!, {r4, lr}
    write(str, strlen(str));
   da09c:	4718      	bx	r3

000da09e <_ZN5spark16StreamLogHandler5writeEc>:
inline void spark::StreamLogHandler::write(char c) {
   da09e:	b507      	push	{r0, r1, r2, lr}
    write(&c, 1);
   da0a0:	6803      	ldr	r3, [r0, #0]
inline void spark::StreamLogHandler::write(char c) {
   da0a2:	f88d 1007 	strb.w	r1, [sp, #7]
    write(&c, 1);
   da0a6:	68db      	ldr	r3, [r3, #12]
   da0a8:	2201      	movs	r2, #1
   da0aa:	f10d 0107 	add.w	r1, sp, #7
   da0ae:	4798      	blx	r3
}
   da0b0:	b003      	add	sp, #12
   da0b2:	f85d fb04 	ldr.w	pc, [sp], #4

000da0b6 <_ZN5spark16StreamLogHandler6printfEPKcz>:
inline void spark::StreamLogHandler::printf(const char *fmt, ...) {
   da0b6:	b40e      	push	{r1, r2, r3}
   da0b8:	b503      	push	{r0, r1, lr}
   da0ba:	ab03      	add	r3, sp, #12
    stream_->vprintf(false, fmt, args);
   da0bc:	2100      	movs	r1, #0
inline void spark::StreamLogHandler::printf(const char *fmt, ...) {
   da0be:	f853 2b04 	ldr.w	r2, [r3], #4
    stream_->vprintf(false, fmt, args);
   da0c2:	6a00      	ldr	r0, [r0, #32]
    va_start(args, fmt);
   da0c4:	9301      	str	r3, [sp, #4]
    stream_->vprintf(false, fmt, args);
   da0c6:	f001 f8a9 	bl	db21c <_ZN5Print7vprintfEbPKcSt9__va_list>
}
   da0ca:	b002      	add	sp, #8
   da0cc:	f85d eb04 	ldr.w	lr, [sp], #4
   da0d0:	b003      	add	sp, #12
   da0d2:	4770      	bx	lr

000da0d4 <_ZN5spark6detail9LogFilter9nodeIndexERKNS_6VectorINS1_4NodeENS_16DefaultAllocatorEEEPKcjRb>:
int spark::detail::LogFilter::nodeIndex(const Vector<Node> &nodes, const char *name, size_t size, bool &found) {
   da0d4:	e92d 4ff7 	stmdb	sp!, {r0, r1, r2, r4, r5, r6, r7, r8, r9, sl, fp, lr}
    return data_ + size_;
}

template<typename T, typename AllocatorT>
const T* spark::Vector<T, AllocatorT>::end() const {
    return data_ + size_;
   da0d8:	e9d0 9500 	ldrd	r9, r5, [r0]
   da0dc:	f04f 0814 	mov.w	r8, #20
   da0e0:	fb08 f505 	mul.w	r5, r8, r5
   da0e4:	9300      	str	r3, [sp, #0]
               random_access_iterator_tag)
    {
      // concept requirements
      __glibcxx_function_requires(_RandomAccessIteratorConcept<
				  _RandomAccessIterator>)
      return __last - __first;
   da0e6:	10ab      	asrs	r3, r5, #2
   da0e8:	4d18      	ldr	r5, [pc, #96]	; (da14c <_ZN5spark6detail9LogFilter9nodeIndexERKNS_6VectorINS1_4NodeENS_16DefaultAllocatorEEEPKcjRb+0x78>)
   da0ea:	4617      	mov	r7, r2
   da0ec:	435d      	muls	r5, r3
   da0ee:	464c      	mov	r4, r9
      typedef typename iterator_traits<_ForwardIterator>::difference_type
	_DistanceType;

      _DistanceType __len = std::distance(__first, __last);

      while (__len > 0)
   da0f0:	2d00      	cmp	r5, #0
   da0f2:	dd23      	ble.n	da13c <_ZN5spark6detail9LogFilter9nodeIndexERKNS_6VectorINS1_4NodeENS_16DefaultAllocatorEEEPKcjRb+0x68>
	{
	  _DistanceType __half = __len >> 1;
   da0f4:	106e      	asrs	r6, r5, #1
      if (__builtin_constant_p(__n) && __n == 1)
	++__i;
      else if (__builtin_constant_p(__n) && __n == -1)
	--__i;
      else
	__i += __n;
   da0f6:	fb08 f006 	mul.w	r0, r8, r6
   da0fa:	eb04 0a00 	add.w	sl, r4, r0
                const int cmp = strncmp(node.name, value.first, std::min<size_t>(node.size, value.second));
   da0fe:	463a      	mov	r2, r7
   da100:	f8ba b004 	ldrh.w	fp, [sl, #4]
   da104:	5820      	ldr	r0, [r4, r0]
   da106:	9101      	str	r1, [sp, #4]
   da108:	455f      	cmp	r7, fp
   da10a:	bf28      	it	cs
   da10c:	465a      	movcs	r2, fp
   da10e:	f002 fc98 	bl	dca42 <strncmp>
                if (cmp == 0) {
   da112:	9901      	ldr	r1, [sp, #4]
   da114:	2301      	movs	r3, #1
   da116:	b978      	cbnz	r0, da138 <_ZN5spark6detail9LogFilter9nodeIndexERKNS_6VectorINS1_4NodeENS_16DefaultAllocatorEEEPKcjRb+0x64>
                    if (node.size == value.second) { // Lengths are equal
   da118:	455f      	cmp	r7, fp
   da11a:	d103      	bne.n	da124 <_ZN5spark6detail9LogFilter9nodeIndexERKNS_6VectorINS1_4NodeENS_16DefaultAllocatorEEEPKcjRb+0x50>
                        found = true; // Allows caller code to avoid extra call to strncmp()
   da11c:	9a00      	ldr	r2, [sp, #0]
   da11e:	7013      	strb	r3, [r2, #0]
int spark::detail::LogFilter::nodeIndex(const Vector<Node> &nodes, const char *name, size_t size, bool &found) {
   da120:	4635      	mov	r5, r6
   da122:	e7e5      	b.n	da0f0 <_ZN5spark6detail9LogFilter9nodeIndexERKNS_6VectorINS1_4NodeENS_16DefaultAllocatorEEEPKcjRb+0x1c>
                    return node.size < value.second;
   da124:	bf8c      	ite	hi
   da126:	2001      	movhi	r0, #1
   da128:	2000      	movls	r0, #0
	  _ForwardIterator __middle = __first;
	  std::advance(__middle, __half);
	  if (__comp(__middle, __val))
   da12a:	2800      	cmp	r0, #0
   da12c:	d0f8      	beq.n	da120 <_ZN5spark6detail9LogFilter9nodeIndexERKNS_6VectorINS1_4NodeENS_16DefaultAllocatorEEEPKcjRb+0x4c>
	    {
	      __first = __middle;
	      ++__first;
	      __len = __len - __half - 1;
   da12e:	1bae      	subs	r6, r5, r6
	      ++__first;
   da130:	f10a 0414 	add.w	r4, sl, #20
	      __len = __len - __half - 1;
   da134:	3e01      	subs	r6, #1
   da136:	e7f3      	b.n	da120 <_ZN5spark6detail9LogFilter9nodeIndexERKNS_6VectorINS1_4NodeENS_16DefaultAllocatorEEEPKcjRb+0x4c>
                return cmp < 0;
   da138:	0fc0      	lsrs	r0, r0, #31
   da13a:	e7f6      	b.n	da12a <_ZN5spark6detail9LogFilter9nodeIndexERKNS_6VectorINS1_4NodeENS_16DefaultAllocatorEEEPKcjRb+0x56>
      return __last - __first;
   da13c:	eba4 0409 	sub.w	r4, r4, r9
}
   da140:	4802      	ldr	r0, [pc, #8]	; (da14c <_ZN5spark6detail9LogFilter9nodeIndexERKNS_6VectorINS1_4NodeENS_16DefaultAllocatorEEEPKcjRb+0x78>)
   da142:	10a4      	asrs	r4, r4, #2
   da144:	4360      	muls	r0, r4
   da146:	b003      	add	sp, #12
   da148:	e8bd 8ff0 	ldmia.w	sp!, {r4, r5, r6, r7, r8, r9, sl, fp, pc}
   da14c:	cccccccd 	.word	0xcccccccd

000da150 <_ZNK5spark6detail9LogFilter5levelEPKc>:
LogLevel spark::detail::LogFilter::level(const char *category) const {
   da150:	b57f      	push	{r0, r1, r2, r3, r4, r5, r6, lr}
    if (!nodes_.isEmpty() && category) {
   da152:	6903      	ldr	r3, [r0, #16]
    LogLevel level = level_; // Default level
   da154:	7e06      	ldrb	r6, [r0, #24]
LogLevel spark::detail::LogFilter::level(const char *category) const {
   da156:	9101      	str	r1, [sp, #4]
    if (!nodes_.isEmpty() && category) {
   da158:	b30b      	cbz	r3, da19e <_ZNK5spark6detail9LogFilter5levelEPKc+0x4e>
   da15a:	b301      	cbz	r1, da19e <_ZNK5spark6detail9LogFilter5levelEPKc+0x4e>
        size_t size = 0; // Name length
   da15c:	2500      	movs	r5, #0
        const Vector<Node> *pNodes = &nodes_; // Root nodes
   da15e:	f100 040c 	add.w	r4, r0, #12
        size_t size = 0; // Name length
   da162:	9503      	str	r5, [sp, #12]
        while ((name = nextSubcategoryName(category, size))) {
   da164:	a903      	add	r1, sp, #12
   da166:	a801      	add	r0, sp, #4
   da168:	f7ff ff35 	bl	d9fd6 <_ZN12_GLOBAL__N_119nextSubcategoryNameERPKcRj>
   da16c:	4601      	mov	r1, r0
   da16e:	b1b0      	cbz	r0, da19e <_ZNK5spark6detail9LogFilter5levelEPKc+0x4e>
            const int index = nodeIndex(*pNodes, name, size, found);
   da170:	f10d 030b 	add.w	r3, sp, #11
   da174:	9a03      	ldr	r2, [sp, #12]
            bool found = false;
   da176:	f88d 500b 	strb.w	r5, [sp, #11]
            const int index = nodeIndex(*pNodes, name, size, found);
   da17a:	4620      	mov	r0, r4
   da17c:	f7ff ffaa 	bl	da0d4 <_ZN5spark6detail9LogFilter9nodeIndexERKNS_6VectorINS1_4NodeENS_16DefaultAllocatorEEEPKcjRb>
            if (!found) {
   da180:	f89d 300b 	ldrb.w	r3, [sp, #11]
   da184:	b15b      	cbz	r3, da19e <_ZNK5spark6detail9LogFilter5levelEPKc+0x4e>
    return data_[i];
   da186:	6824      	ldr	r4, [r4, #0]
   da188:	2314      	movs	r3, #20
   da18a:	fb03 4000 	mla	r0, r3, r0, r4
            pNodes = &node.nodes;
   da18e:	f100 0408 	add.w	r4, r0, #8
            if (node.level >= 0) {
   da192:	f9b0 3006 	ldrsh.w	r3, [r0, #6]
   da196:	2b00      	cmp	r3, #0
                level = (LogLevel)node.level;
   da198:	bfa8      	it	ge
   da19a:	b2de      	uxtbge	r6, r3
        while ((name = nextSubcategoryName(category, size))) {
   da19c:	e7e2      	b.n	da164 <_ZNK5spark6detail9LogFilter5levelEPKc+0x14>
}
   da19e:	4630      	mov	r0, r6
   da1a0:	b004      	add	sp, #16
   da1a2:	bd70      	pop	{r4, r5, r6, pc}

000da1a4 <_ZN5spark24DefaultLogHandlerFactory8instanceEv>:
spark::DefaultLogHandlerFactory* spark::DefaultLogHandlerFactory::instance() {
   da1a4:	b510      	push	{r4, lr}
    static DefaultLogHandlerFactory factory;
   da1a6:	4c09      	ldr	r4, [pc, #36]	; (da1cc <_ZN5spark24DefaultLogHandlerFactory8instanceEv+0x28>)
   da1a8:	7823      	ldrb	r3, [r4, #0]
   da1aa:	f3bf 8f5b 	dmb	ish
   da1ae:	07db      	lsls	r3, r3, #31
   da1b0:	d409      	bmi.n	da1c6 <_ZN5spark24DefaultLogHandlerFactory8instanceEv+0x22>
   da1b2:	4620      	mov	r0, r4
   da1b4:	f7f9 ff80 	bl	d40b8 <__cxa_guard_acquire>
   da1b8:	b128      	cbz	r0, da1c6 <_ZN5spark24DefaultLogHandlerFactory8instanceEv+0x22>
   da1ba:	4620      	mov	r0, r4
   da1bc:	f7f9 ff81 	bl	d40c2 <__cxa_guard_release>
   da1c0:	4803      	ldr	r0, [pc, #12]	; (da1d0 <_ZN5spark24DefaultLogHandlerFactory8instanceEv+0x2c>)
   da1c2:	f002 fb4f 	bl	dc864 <atexit>
}
   da1c6:	4803      	ldr	r0, [pc, #12]	; (da1d4 <_ZN5spark24DefaultLogHandlerFactory8instanceEv+0x30>)
   da1c8:	bd10      	pop	{r4, pc}
   da1ca:	bf00      	nop
   da1cc:	2003e568 	.word	0x2003e568
   da1d0:	000d9fcf 	.word	0x000d9fcf
   da1d4:	2003dce8 	.word	0x2003dce8

000da1d8 <_ZN5spark26DefaultOutputStreamFactory8instanceEv>:

spark::DefaultOutputStreamFactory* spark::DefaultOutputStreamFactory::instance() {
   da1d8:	b510      	push	{r4, lr}
    static DefaultOutputStreamFactory factory;
   da1da:	4c09      	ldr	r4, [pc, #36]	; (da200 <_ZN5spark26DefaultOutputStreamFactory8instanceEv+0x28>)
   da1dc:	7823      	ldrb	r3, [r4, #0]
   da1de:	f3bf 8f5b 	dmb	ish
   da1e2:	07db      	lsls	r3, r3, #31
   da1e4:	d409      	bmi.n	da1fa <_ZN5spark26DefaultOutputStreamFactory8instanceEv+0x22>
   da1e6:	4620      	mov	r0, r4
   da1e8:	f7f9 ff66 	bl	d40b8 <__cxa_guard_acquire>
   da1ec:	b128      	cbz	r0, da1fa <_ZN5spark26DefaultOutputStreamFactory8instanceEv+0x22>
   da1ee:	4620      	mov	r0, r4
   da1f0:	f7f9 ff67 	bl	d40c2 <__cxa_guard_release>
   da1f4:	4803      	ldr	r0, [pc, #12]	; (da204 <_ZN5spark26DefaultOutputStreamFactory8instanceEv+0x2c>)
   da1f6:	f002 fb35 	bl	dc864 <atexit>
    return &factory;
}
   da1fa:	4803      	ldr	r0, [pc, #12]	; (da208 <_ZN5spark26DefaultOutputStreamFactory8instanceEv+0x30>)
   da1fc:	bd10      	pop	{r4, pc}
   da1fe:	bf00      	nop
   da200:	2003e56c 	.word	0x2003e56c
   da204:	000da033 	.word	0x000da033
   da208:	2003dcec 	.word	0x2003dcec

000da20c <_ZN5spark10LogManagerC1Ev>:
    Print *stream;
};

#endif // Wiring_LogConfig

spark::LogManager::LogManager() {
   da20c:	b538      	push	{r3, r4, r5, lr}
        capacity_(0) {
   da20e:	2500      	movs	r5, #0
   da210:	4604      	mov	r4, r0
   da212:	e9c0 5500 	strd	r5, r5, [r0]
   da216:	e9c0 5504 	strd	r5, r5, [r0, #16]
   da21a:	6085      	str	r5, [r0, #8]
   da21c:	6185      	str	r5, [r0, #24]
    RecursiveMutex() : handle_(nullptr)
   da21e:	f840 5f24 	str.w	r5, [r0, #36]!
        os_mutex_recursive_create(&handle_);
   da222:	f7fe fafb 	bl	d881c <os_mutex_recursive_create>
#if Wiring_LogConfig
    handlerFactory_ = DefaultLogHandlerFactory::instance();
   da226:	f7ff ffbd 	bl	da1a4 <_ZN5spark24DefaultLogHandlerFactory8instanceEv>
   da22a:	61e0      	str	r0, [r4, #28]
    streamFactory_ = DefaultOutputStreamFactory::instance();
   da22c:	f7ff ffd4 	bl	da1d8 <_ZN5spark26DefaultOutputStreamFactory8instanceEv>
#endif
    outputActive_ = false;
   da230:	7325      	strb	r5, [r4, #12]
    streamFactory_ = DefaultOutputStreamFactory::instance();
   da232:	6220      	str	r0, [r4, #32]
}
   da234:	4620      	mov	r0, r4
   da236:	bd38      	pop	{r3, r4, r5, pc}

000da238 <_ZN5spark10LogManager8instanceEv>:
            resetSystemCallbacks();
        }
    }
}

spark::LogManager* spark::LogManager::instance() {
   da238:	b510      	push	{r4, lr}
    static LogManager mgr;
   da23a:	4c0a      	ldr	r4, [pc, #40]	; (da264 <_ZN5spark10LogManager8instanceEv+0x2c>)
   da23c:	7823      	ldrb	r3, [r4, #0]
   da23e:	f3bf 8f5b 	dmb	ish
   da242:	07db      	lsls	r3, r3, #31
   da244:	d40c      	bmi.n	da260 <_ZN5spark10LogManager8instanceEv+0x28>
   da246:	4620      	mov	r0, r4
   da248:	f7f9 ff36 	bl	d40b8 <__cxa_guard_acquire>
   da24c:	b140      	cbz	r0, da260 <_ZN5spark10LogManager8instanceEv+0x28>
   da24e:	4806      	ldr	r0, [pc, #24]	; (da268 <_ZN5spark10LogManager8instanceEv+0x30>)
   da250:	f7ff ffdc 	bl	da20c <_ZN5spark10LogManagerC1Ev>
   da254:	4620      	mov	r0, r4
   da256:	f7f9 ff34 	bl	d40c2 <__cxa_guard_release>
   da25a:	4804      	ldr	r0, [pc, #16]	; (da26c <_ZN5spark10LogManager8instanceEv+0x34>)
   da25c:	f002 fb02 	bl	dc864 <atexit>
    return &mgr;
}
   da260:	4801      	ldr	r0, [pc, #4]	; (da268 <_ZN5spark10LogManager8instanceEv+0x30>)
   da262:	bd10      	pop	{r4, pc}
   da264:	2003e564 	.word	0x2003e564
   da268:	2003e574 	.word	0x2003e574
   da26c:	000da6a1 	.word	0x000da6a1

000da270 <_ZN5spark10LogManager18setSystemCallbacksEv>:
}

#endif // Wiring_LogConfig

void spark::LogManager::setSystemCallbacks() {
    log_set_callbacks(logMessage, logWrite, logEnabled, nullptr);
   da270:	4a02      	ldr	r2, [pc, #8]	; (da27c <_ZN5spark10LogManager18setSystemCallbacksEv+0xc>)
   da272:	4903      	ldr	r1, [pc, #12]	; (da280 <_ZN5spark10LogManager18setSystemCallbacksEv+0x10>)
   da274:	4803      	ldr	r0, [pc, #12]	; (da284 <_ZN5spark10LogManager18setSystemCallbacksEv+0x14>)
   da276:	2300      	movs	r3, #0
   da278:	f7fe bce0 	b.w	d8c3c <log_set_callbacks>
   da27c:	000da529 	.word	0x000da529
   da280:	000da4b5 	.word	0x000da4b5
   da284:	000da435 	.word	0x000da435

000da288 <_ZN5spark10LogManager20resetSystemCallbacksEv>:
}

void spark::LogManager::resetSystemCallbacks() {
    log_set_callbacks(nullptr, nullptr, nullptr, nullptr);
   da288:	2300      	movs	r3, #0
   da28a:	461a      	mov	r2, r3
   da28c:	4619      	mov	r1, r3
   da28e:	4618      	mov	r0, r3
   da290:	f7fe bcd4 	b.w	d8c3c <log_set_callbacks>

000da294 <_ZN5spark26DefaultOutputStreamFactory9getParamsERKNS_9JSONValueEPi>:
void spark::DefaultOutputStreamFactory::getParams(const JSONValue &params, int *baudRate) {
   da294:	b570      	push	{r4, r5, r6, lr}
   da296:	b08a      	sub	sp, #40	; 0x28
   da298:	460d      	mov	r5, r1
    JSONObjectIterator it(params);
   da29a:	4601      	mov	r1, r0
   da29c:	a804      	add	r0, sp, #16
   da29e:	f7fc fcd3 	bl	d6c48 <_ZN5spark18JSONObjectIteratorC1ERKNS_9JSONValueE>
        if (it.name() == "baud" && baudRate) {
   da2a2:	4e14      	ldr	r6, [pc, #80]	; (da2f4 <_ZN5spark26DefaultOutputStreamFactory9getParamsERKNS_9JSONValueEPi+0x60>)
    while (it.next()) {
   da2a4:	a804      	add	r0, sp, #16
   da2a6:	f7ff fdb5 	bl	d9e14 <_ZN5spark18JSONObjectIterator4nextEv>
   da2aa:	b1e8      	cbz	r0, da2e8 <_ZN5spark26DefaultOutputStreamFactory9getParamsERKNS_9JSONValueEPi+0x54>
        if (it.name() == "baud" && baudRate) {
   da2ac:	a904      	add	r1, sp, #16
   da2ae:	4668      	mov	r0, sp
   da2b0:	f7fc fcdb 	bl	d6c6a <_ZNK5spark18JSONObjectIterator4nameEv>
   da2b4:	9802      	ldr	r0, [sp, #8]
   da2b6:	4631      	mov	r1, r6
   da2b8:	f7ff feb4 	bl	da024 <_ZNK5spark10JSONStringeqEPKc.isra.0>
   da2bc:	4604      	mov	r4, r0
   da2be:	b110      	cbz	r0, da2c6 <_ZN5spark26DefaultOutputStreamFactory9getParamsERKNS_9JSONValueEPi+0x32>
   da2c0:	1e2c      	subs	r4, r5, #0
   da2c2:	bf18      	it	ne
   da2c4:	2401      	movne	r4, #1
      ~__shared_ptr() = default;
   da2c6:	a801      	add	r0, sp, #4
   da2c8:	f7fa fc32 	bl	d4b30 <_ZNSt14__shared_countILN9__gnu_cxx12_Lock_policyE0EED1Ev>
   da2cc:	2c00      	cmp	r4, #0
   da2ce:	d0e9      	beq.n	da2a4 <_ZN5spark26DefaultOutputStreamFactory9getParamsERKNS_9JSONValueEPi+0x10>
            *baudRate = it.value().toInt();
   da2d0:	a904      	add	r1, sp, #16
   da2d2:	4668      	mov	r0, sp
   da2d4:	f7fc fcda 	bl	d6c8c <_ZNK5spark18JSONObjectIterator5valueEv>
   da2d8:	4668      	mov	r0, sp
   da2da:	f7ff fd3e 	bl	d9d5a <_ZNK5spark9JSONValue5toIntEv>
   da2de:	6028      	str	r0, [r5, #0]
   da2e0:	a801      	add	r0, sp, #4
   da2e2:	f7fa fc25 	bl	d4b30 <_ZNSt14__shared_countILN9__gnu_cxx12_Lock_policyE0EED1Ev>
   da2e6:	e7dd      	b.n	da2a4 <_ZN5spark26DefaultOutputStreamFactory9getParamsERKNS_9JSONValueEPi+0x10>
   da2e8:	a805      	add	r0, sp, #20
   da2ea:	f7fa fc21 	bl	d4b30 <_ZNSt14__shared_countILN9__gnu_cxx12_Lock_policyE0EED1Ev>
}
   da2ee:	b00a      	add	sp, #40	; 0x28
   da2f0:	bd70      	pop	{r4, r5, r6, pc}
   da2f2:	bf00      	nop
   da2f4:	000dd8de 	.word	0x000dd8de

000da2f8 <_ZN5spark26DefaultOutputStreamFactory12createStreamEPKcRKNS_9JSONValueE>:
Print* spark::DefaultOutputStreamFactory::createStream(const char *type, const JSONValue &params) {
   da2f8:	b537      	push	{r0, r1, r2, r4, r5, lr}
   da2fa:	460c      	mov	r4, r1
    if (strcmp(type, "Serial") == 0) {
   da2fc:	4620      	mov	r0, r4
   da2fe:	4912      	ldr	r1, [pc, #72]	; (da348 <_ZN5spark26DefaultOutputStreamFactory12createStreamEPKcRKNS_9JSONValueE+0x50>)
Print* spark::DefaultOutputStreamFactory::createStream(const char *type, const JSONValue &params) {
   da300:	4615      	mov	r5, r2
    if (strcmp(type, "Serial") == 0) {
   da302:	f002 fb66 	bl	dc9d2 <strcmp>
   da306:	b948      	cbnz	r0, da31c <_ZN5spark26DefaultOutputStreamFactory12createStreamEPKcRKNS_9JSONValueE+0x24>
        Serial.begin();
   da308:	f001 fc52 	bl	dbbb0 <_Z16_fetch_usbserialv>
   da30c:	f44f 5116 	mov.w	r1, #9600	; 0x2580
   da310:	f001 fc3e 	bl	dbb90 <_ZN9USBSerial5beginEl>
        return &Serial;
   da314:	f001 fc4c 	bl	dbbb0 <_Z16_fetch_usbserialv>
}
   da318:	b003      	add	sp, #12
   da31a:	bd30      	pop	{r4, r5, pc}
    if (strcmp(type, "Serial1") == 0) {
   da31c:	490b      	ldr	r1, [pc, #44]	; (da34c <_ZN5spark26DefaultOutputStreamFactory12createStreamEPKcRKNS_9JSONValueE+0x54>)
   da31e:	4620      	mov	r0, r4
   da320:	f002 fb57 	bl	dc9d2 <strcmp>
   da324:	b970      	cbnz	r0, da344 <_ZN5spark26DefaultOutputStreamFactory12createStreamEPKcRKNS_9JSONValueE+0x4c>
        int baud = 9600;
   da326:	f44f 5316 	mov.w	r3, #9600	; 0x2580
        getParams(params, &baud);
   da32a:	a901      	add	r1, sp, #4
   da32c:	4628      	mov	r0, r5
        int baud = 9600;
   da32e:	9301      	str	r3, [sp, #4]
        getParams(params, &baud);
   da330:	f7ff ffb0 	bl	da294 <_ZN5spark26DefaultOutputStreamFactory9getParamsERKNS_9JSONValueEPi>
        Serial1.begin(baud);
   da334:	f001 fbb4 	bl	dbaa0 <_Z22__fetch_global_Serial1v>
   da338:	9901      	ldr	r1, [sp, #4]
   da33a:	f001 fbab 	bl	dba94 <_ZN11USARTSerial5beginEm>
        return &Serial1;
   da33e:	f001 fbaf 	bl	dbaa0 <_Z22__fetch_global_Serial1v>
   da342:	e7e9      	b.n	da318 <_ZN5spark26DefaultOutputStreamFactory12createStreamEPKcRKNS_9JSONValueE+0x20>
    return nullptr;
   da344:	2000      	movs	r0, #0
   da346:	e7e7      	b.n	da318 <_ZN5spark26DefaultOutputStreamFactory12createStreamEPKcRKNS_9JSONValueE+0x20>
   da348:	000dd8e3 	.word	0x000dd8e3
   da34c:	000dd8ea 	.word	0x000dd8ea

000da350 <_ZN5spark6VectorINS_6detail9LogFilter4NodeENS_16DefaultAllocatorEED1Ev>:
inline spark::Vector<T, AllocatorT>::~Vector() {
   da350:	b570      	push	{r4, r5, r6, lr}
    destruct(data_, data_ + size_);
   da352:	e9d0 5300 	ldrd	r5, r3, [r0]
   da356:	2614      	movs	r6, #20
inline spark::Vector<T, AllocatorT>::~Vector() {
   da358:	4604      	mov	r4, r0
    destruct(data_, data_ + size_);
   da35a:	fb06 5603 	mla	r6, r6, r3, r5
        for (; p != end; ++p) {
   da35e:	42ae      	cmp	r6, r5
   da360:	d005      	beq.n	da36e <_ZN5spark6VectorINS_6detail9LogFilter4NodeENS_16DefaultAllocatorEED1Ev+0x1e>
struct spark::detail::LogFilter::Node {
   da362:	f105 0008 	add.w	r0, r5, #8
   da366:	f7ff fff3 	bl	da350 <_ZN5spark6VectorINS_6detail9LogFilter4NodeENS_16DefaultAllocatorEED1Ev>
   da36a:	3514      	adds	r5, #20
   da36c:	e7f7      	b.n	da35e <_ZN5spark6VectorINS_6detail9LogFilter4NodeENS_16DefaultAllocatorEED1Ev+0xe>
    ::free(ptr);
   da36e:	6820      	ldr	r0, [r4, #0]
   da370:	f7fe fd7e 	bl	d8e70 <free>
}
   da374:	4620      	mov	r0, r4
   da376:	bd70      	pop	{r4, r5, r6, pc}

000da378 <_ZN5spark6VectorI6StringNS_16DefaultAllocatorEED1Ev>:
inline spark::Vector<T, AllocatorT>::~Vector() {
   da378:	b570      	push	{r4, r5, r6, lr}
    destruct(data_, data_ + size_);
   da37a:	e9d0 5300 	ldrd	r5, r3, [r0]
inline spark::Vector<T, AllocatorT>::~Vector() {
   da37e:	4604      	mov	r4, r0
    destruct(data_, data_ + size_);
   da380:	eb05 1603 	add.w	r6, r5, r3, lsl #4
        for (; p != end; ++p) {
   da384:	42ae      	cmp	r6, r5
   da386:	d004      	beq.n	da392 <_ZN5spark6VectorI6StringNS_16DefaultAllocatorEED1Ev+0x1a>
            p->~T();
   da388:	4628      	mov	r0, r5
   da38a:	f001 f853 	bl	db434 <_ZN6StringD1Ev>
        for (; p != end; ++p) {
   da38e:	3510      	adds	r5, #16
   da390:	e7f8      	b.n	da384 <_ZN5spark6VectorI6StringNS_16DefaultAllocatorEED1Ev+0xc>
    ::free(ptr);
   da392:	6820      	ldr	r0, [r4, #0]
   da394:	f7fe fd6c 	bl	d8e70 <free>
}
   da398:	4620      	mov	r0, r4
   da39a:	bd70      	pop	{r4, r5, r6, pc}

000da39c <_ZN5spark6detail9LogFilterD1Ev>:
spark::detail::LogFilter::~LogFilter() {
   da39c:	b510      	push	{r4, lr}
   da39e:	4604      	mov	r4, r0
   da3a0:	300c      	adds	r0, #12
   da3a2:	f7ff ffd5 	bl	da350 <_ZN5spark6VectorINS_6detail9LogFilter4NodeENS_16DefaultAllocatorEED1Ev>
   da3a6:	4620      	mov	r0, r4
   da3a8:	f7ff ffe6 	bl	da378 <_ZN5spark6VectorI6StringNS_16DefaultAllocatorEED1Ev>
}
   da3ac:	4620      	mov	r0, r4
   da3ae:	bd10      	pop	{r4, pc}

000da3b0 <_ZN5spark16StreamLogHandlerD1Ev>:
class StreamLogHandler: public LogHandler {
   da3b0:	b510      	push	{r4, lr}
    virtual ~LogHandler() = default;
   da3b2:	4b04      	ldr	r3, [pc, #16]	; (da3c4 <_ZN5spark16StreamLogHandlerD1Ev+0x14>)
class StreamLogHandler: public LogHandler {
   da3b4:	4604      	mov	r4, r0
    virtual ~LogHandler() = default;
   da3b6:	f840 3b04 	str.w	r3, [r0], #4
   da3ba:	f7ff ffef 	bl	da39c <_ZN5spark6detail9LogFilterD1Ev>
class StreamLogHandler: public LogHandler {
   da3be:	4620      	mov	r0, r4
   da3c0:	bd10      	pop	{r4, pc}
   da3c2:	bf00      	nop
   da3c4:	000dd04c 	.word	0x000dd04c

000da3c8 <_ZN5spark16StreamLogHandlerD0Ev>:
   da3c8:	b510      	push	{r4, lr}
   da3ca:	4604      	mov	r4, r0
   da3cc:	f7ff fff0 	bl	da3b0 <_ZN5spark16StreamLogHandlerD1Ev>
   da3d0:	4620      	mov	r0, r4
   da3d2:	2124      	movs	r1, #36	; 0x24
   da3d4:	f001 fdd2 	bl	dbf7c <_ZdlPvj>
   da3d8:	4620      	mov	r0, r4
   da3da:	bd10      	pop	{r4, pc}

000da3dc <_ZN5spark20JSONStreamLogHandlerD1Ev>:
class JSONStreamLogHandler: public StreamLogHandler {
   da3dc:	b510      	push	{r4, lr}
   da3de:	4b03      	ldr	r3, [pc, #12]	; (da3ec <_ZN5spark20JSONStreamLogHandlerD1Ev+0x10>)
   da3e0:	6003      	str	r3, [r0, #0]
   da3e2:	4604      	mov	r4, r0
   da3e4:	f7ff ffe4 	bl	da3b0 <_ZN5spark16StreamLogHandlerD1Ev>
   da3e8:	4620      	mov	r0, r4
   da3ea:	bd10      	pop	{r4, pc}
   da3ec:	000dd984 	.word	0x000dd984

000da3f0 <_ZN5spark20JSONStreamLogHandlerD0Ev>:
   da3f0:	b510      	push	{r4, lr}
   da3f2:	4604      	mov	r4, r0
   da3f4:	f7ff fff2 	bl	da3dc <_ZN5spark20JSONStreamLogHandlerD1Ev>
   da3f8:	4620      	mov	r0, r4
   da3fa:	2124      	movs	r1, #36	; 0x24
   da3fc:	f001 fdbe 	bl	dbf7c <_ZdlPvj>
   da400:	4620      	mov	r0, r4
   da402:	bd10      	pop	{r4, pc}

000da404 <_ZN5spark6VectorINS_17LogCategoryFilterENS_16DefaultAllocatorEEC1EOS3_>:
        capacity_(0) {
   da404:	2200      	movs	r2, #0
   da406:	e9c0 2200 	strd	r2, r2, [r0]
inline spark::Vector<T, AllocatorT>::Vector(Vector<T, AllocatorT>&& vector) : Vector() {
   da40a:	b510      	push	{r4, lr}
        capacity_(0) {
   da40c:	6082      	str	r2, [r0, #8]
      __a = _GLIBCXX_MOVE(__b);
   da40e:	680c      	ldr	r4, [r1, #0]
   da410:	6004      	str	r4, [r0, #0]
   da412:	684c      	ldr	r4, [r1, #4]
   da414:	6044      	str	r4, [r0, #4]
   da416:	688c      	ldr	r4, [r1, #8]
      __b = _GLIBCXX_MOVE(__tmp);
   da418:	600a      	str	r2, [r1, #0]
   da41a:	604a      	str	r2, [r1, #4]
      __a = _GLIBCXX_MOVE(__b);
   da41c:	6084      	str	r4, [r0, #8]
      __b = _GLIBCXX_MOVE(__tmp);
   da41e:	608a      	str	r2, [r1, #8]
}
   da420:	bd10      	pop	{r4, pc}

000da422 <_ZNSt10lock_guardI14RecursiveMutexED1Ev>:
      ~lock_guard()
   da422:	b510      	push	{r4, lr}
      { _M_device.unlock(); }
   da424:	6803      	ldr	r3, [r0, #0]
      ~lock_guard()
   da426:	4604      	mov	r4, r0
    }

    void lock() { os_mutex_recursive_lock(handle_); }
    bool trylock() { return os_mutex_recursive_trylock(handle_)==0; }
    bool try_lock() { return trylock(); }
    void unlock() { os_mutex_recursive_unlock(handle_); }
   da428:	6818      	ldr	r0, [r3, #0]
   da42a:	f7fe fa0f 	bl	d884c <os_mutex_recursive_unlock>
      { _M_device.unlock(); }
   da42e:	4620      	mov	r0, r4
   da430:	bd10      	pop	{r4, pc}
	...

000da434 <_ZN5spark10LogManager10logMessageEPKciS2_PK13LogAttributesPv>:
}

void spark::LogManager::logMessage(const char *msg, int level, const char *category, const LogAttributes *attr, void *reserved) {
   da434:	e92d 4ff0 	stmdb	sp!, {r4, r5, r6, r7, r8, r9, sl, fp, lr}
   da438:	b087      	sub	sp, #28
   da43a:	4680      	mov	r8, r0
   da43c:	9303      	str	r3, [sp, #12]
#endif /* nRF52840 */

#if defined(STM32F10X_MD) || defined(STM32F10X_HD) || defined(STM32F2XX) || defined(nRF52840)
static inline bool HAL_IsISR() 
{
	return (SCB->ICSR & SCB_ICSR_VECTACTIVE_Msk) != 0;
   da43e:	4b1c      	ldr	r3, [pc, #112]	; (da4b0 <_ZN5spark10LogManager10logMessageEPKciS2_PK13LogAttributesPv+0x7c>)
   da440:	685b      	ldr	r3, [r3, #4]
   da442:	f3c3 0308 	ubfx	r3, r3, #0, #9
   da446:	4689      	mov	r9, r1
   da448:	4616      	mov	r6, r2
#ifndef LOG_FROM_ISR
    if (HAL_IsISR()) {
   da44a:	b96b      	cbnz	r3, da468 <_ZN5spark10LogManager10logMessageEPKciS2_PK13LogAttributesPv+0x34>
        return;
    }
#endif
    LogManager *that = instance();
   da44c:	f7ff fef4 	bl	da238 <_ZN5spark10LogManager8instanceEv>
   da450:	4604      	mov	r4, r0
    LOG_WITH_LOCK(that->mutex_) {
   da452:	f100 0324 	add.w	r3, r0, #36	; 0x24
    void lock() { os_mutex_recursive_lock(handle_); }
   da456:	6a40      	ldr	r0, [r0, #36]	; 0x24
      explicit lock_guard(mutex_type& __m) : _M_device(__m)
   da458:	9305      	str	r3, [sp, #20]
   da45a:	f7fe f9ef 	bl	d883c <os_mutex_recursive_lock>
        // prevent re-entry
        if (that->isActive()) {
   da45e:	7b23      	ldrb	r3, [r4, #12]
   da460:	b12b      	cbz	r3, da46e <_ZN5spark10LogManager10logMessageEPKciS2_PK13LogAttributesPv+0x3a>
    LOG_WITH_LOCK(that->mutex_) {
   da462:	a805      	add	r0, sp, #20
   da464:	f7ff ffdd 	bl	da422 <_ZNSt10lock_guardI14RecursiveMutexED1Ev>
        for (LogHandler *handler: that->activeHandlers_) {
            handler->message(msg, (LogLevel)level, category, *attr);
        }
        that->setActive(false);
    }
}
   da468:	b007      	add	sp, #28
   da46a:	e8bd 8ff0 	ldmia.w	sp!, {r4, r5, r6, r7, r8, r9, sl, fp, pc}
inline bool spark::LogManager::isActive() const {
    return outputActive_;
}

inline void spark::LogManager::setActive(bool outputActive) {
    outputActive_ = outputActive;
   da46e:	2301      	movs	r3, #1
   da470:	7323      	strb	r3, [r4, #12]
    return data_ + size_;
   da472:	e9d4 5300 	ldrd	r5, r3, [r4]
            handler->message(msg, (LogLevel)level, category, *attr);
   da476:	fa5f f989 	uxtb.w	r9, r9
   da47a:	eb05 0a83 	add.w	sl, r5, r3, lsl #2
        for (LogHandler *handler: that->activeHandlers_) {
   da47e:	45aa      	cmp	sl, r5
   da480:	d012      	beq.n	da4a8 <_ZN5spark10LogManager10logMessageEPKciS2_PK13LogAttributesPv+0x74>
   da482:	f855 7b04 	ldr.w	r7, [r5], #4
    if (level >= filter_.level(category)) {
   da486:	4631      	mov	r1, r6
   da488:	1d38      	adds	r0, r7, #4
   da48a:	f7ff fe61 	bl	da150 <_ZNK5spark6detail9LogFilter5levelEPKc>
   da48e:	4581      	cmp	r9, r0
   da490:	d3f5      	bcc.n	da47e <_ZN5spark10LogManager10logMessageEPKciS2_PK13LogAttributesPv+0x4a>
        logMessage(msg, level, category, attr);
   da492:	683b      	ldr	r3, [r7, #0]
   da494:	9a03      	ldr	r2, [sp, #12]
   da496:	9200      	str	r2, [sp, #0]
   da498:	f8d3 b008 	ldr.w	fp, [r3, #8]
   da49c:	464a      	mov	r2, r9
   da49e:	4633      	mov	r3, r6
   da4a0:	4641      	mov	r1, r8
   da4a2:	4638      	mov	r0, r7
   da4a4:	47d8      	blx	fp
   da4a6:	e7ea      	b.n	da47e <_ZN5spark10LogManager10logMessageEPKciS2_PK13LogAttributesPv+0x4a>
    outputActive_ = outputActive;
   da4a8:	2300      	movs	r3, #0
   da4aa:	7323      	strb	r3, [r4, #12]
   da4ac:	e7d9      	b.n	da462 <_ZN5spark10LogManager10logMessageEPKciS2_PK13LogAttributesPv+0x2e>
   da4ae:	bf00      	nop
   da4b0:	e000ed00 	.word	0xe000ed00

000da4b4 <_ZN5spark10LogManager8logWriteEPKcjiS2_Pv>:
void spark::LogManager::logWrite(const char *data, size_t size, int level, const char *category, void *reserved) {
   da4b4:	e92d 4ff7 	stmdb	sp!, {r0, r1, r2, r4, r5, r6, r7, r8, r9, sl, fp, lr}
   da4b8:	469b      	mov	fp, r3
   da4ba:	4b1a      	ldr	r3, [pc, #104]	; (da524 <_ZN5spark10LogManager8logWriteEPKcjiS2_Pv+0x70>)
   da4bc:	685b      	ldr	r3, [r3, #4]
   da4be:	f3c3 0308 	ubfx	r3, r3, #0, #9
   da4c2:	4680      	mov	r8, r0
   da4c4:	4689      	mov	r9, r1
   da4c6:	4616      	mov	r6, r2
    if (HAL_IsISR()) {
   da4c8:	b96b      	cbnz	r3, da4e6 <_ZN5spark10LogManager8logWriteEPKcjiS2_Pv+0x32>
    LogManager *that = instance();
   da4ca:	f7ff feb5 	bl	da238 <_ZN5spark10LogManager8instanceEv>
   da4ce:	4604      	mov	r4, r0
    LOG_WITH_LOCK(that->mutex_) {
   da4d0:	f100 0324 	add.w	r3, r0, #36	; 0x24
   da4d4:	6a40      	ldr	r0, [r0, #36]	; 0x24
   da4d6:	9301      	str	r3, [sp, #4]
   da4d8:	f7fe f9b0 	bl	d883c <os_mutex_recursive_lock>
        if (that->isActive()) {
   da4dc:	7b23      	ldrb	r3, [r4, #12]
   da4de:	b12b      	cbz	r3, da4ec <_ZN5spark10LogManager8logWriteEPKcjiS2_Pv+0x38>
    LOG_WITH_LOCK(that->mutex_) {
   da4e0:	a801      	add	r0, sp, #4
   da4e2:	f7ff ff9e 	bl	da422 <_ZNSt10lock_guardI14RecursiveMutexED1Ev>
}
   da4e6:	b003      	add	sp, #12
   da4e8:	e8bd 8ff0 	ldmia.w	sp!, {r4, r5, r6, r7, r8, r9, sl, fp, pc}
    outputActive_ = outputActive;
   da4ec:	2301      	movs	r3, #1
   da4ee:	7323      	strb	r3, [r4, #12]
   da4f0:	e9d4 5300 	ldrd	r5, r3, [r4]
    if (level >= filter_.level(category)) {
   da4f4:	b2f6      	uxtb	r6, r6
   da4f6:	eb05 0a83 	add.w	sl, r5, r3, lsl #2
        for (LogHandler *handler: that->activeHandlers_) {
   da4fa:	4555      	cmp	r5, sl
   da4fc:	d00e      	beq.n	da51c <_ZN5spark10LogManager8logWriteEPKcjiS2_Pv+0x68>
   da4fe:	f855 7b04 	ldr.w	r7, [r5], #4
   da502:	4659      	mov	r1, fp
   da504:	1d38      	adds	r0, r7, #4
   da506:	f7ff fe23 	bl	da150 <_ZNK5spark6detail9LogFilter5levelEPKc>
   da50a:	4286      	cmp	r6, r0
   da50c:	d3f5      	bcc.n	da4fa <_ZN5spark10LogManager8logWriteEPKcjiS2_Pv+0x46>
        write(data, size);
   da50e:	683b      	ldr	r3, [r7, #0]
   da510:	464a      	mov	r2, r9
   da512:	68db      	ldr	r3, [r3, #12]
   da514:	4641      	mov	r1, r8
   da516:	4638      	mov	r0, r7
   da518:	4798      	blx	r3
   da51a:	e7ee      	b.n	da4fa <_ZN5spark10LogManager8logWriteEPKcjiS2_Pv+0x46>
    outputActive_ = outputActive;
   da51c:	2300      	movs	r3, #0
   da51e:	7323      	strb	r3, [r4, #12]
   da520:	e7de      	b.n	da4e0 <_ZN5spark10LogManager8logWriteEPKcjiS2_Pv+0x2c>
   da522:	bf00      	nop
   da524:	e000ed00 	.word	0xe000ed00

000da528 <_ZN5spark10LogManager10logEnabledEiPKcPv>:
int spark::LogManager::logEnabled(int level, const char *category, void *reserved) {
   da528:	e92d 41f3 	stmdb	sp!, {r0, r1, r4, r5, r6, r7, r8, lr}
   da52c:	4b16      	ldr	r3, [pc, #88]	; (da588 <_ZN5spark10LogManager10logEnabledEiPKcPv+0x60>)
   da52e:	685b      	ldr	r3, [r3, #4]
   da530:	f3c3 0308 	ubfx	r3, r3, #0, #9
   da534:	4605      	mov	r5, r0
   da536:	460f      	mov	r7, r1
    if (HAL_IsISR()) {
   da538:	bb1b      	cbnz	r3, da582 <_ZN5spark10LogManager10logEnabledEiPKcPv+0x5a>
    LogManager *that = instance();
   da53a:	f7ff fe7d 	bl	da238 <_ZN5spark10LogManager8instanceEv>
    LOG_WITH_LOCK(that->mutex_) {
   da53e:	f100 0324 	add.w	r3, r0, #36	; 0x24
    LogManager *that = instance();
   da542:	4604      	mov	r4, r0
   da544:	6a40      	ldr	r0, [r0, #36]	; 0x24
   da546:	9301      	str	r3, [sp, #4]
   da548:	f7fe f978 	bl	d883c <os_mutex_recursive_lock>
   da54c:	e9d4 6300 	ldrd	r6, r3, [r4]
    int minLevel = LOG_LEVEL_NONE;
   da550:	2446      	movs	r4, #70	; 0x46
   da552:	eb06 0883 	add.w	r8, r6, r3, lsl #2
        for (LogHandler *handler: that->activeHandlers_) {
   da556:	45b0      	cmp	r8, r6
   da558:	d109      	bne.n	da56e <_ZN5spark10LogManager10logEnabledEiPKcPv+0x46>
    LOG_WITH_LOCK(that->mutex_) {
   da55a:	a801      	add	r0, sp, #4
   da55c:	f7ff ff61 	bl	da422 <_ZNSt10lock_guardI14RecursiveMutexED1Ev>
    return (level >= minLevel);
   da560:	42a5      	cmp	r5, r4
   da562:	bfb4      	ite	lt
   da564:	2000      	movlt	r0, #0
   da566:	2001      	movge	r0, #1
}
   da568:	b002      	add	sp, #8
   da56a:	e8bd 81f0 	ldmia.w	sp!, {r4, r5, r6, r7, r8, pc}
    return filter_.level(category);
   da56e:	f856 0b04 	ldr.w	r0, [r6], #4
   da572:	4639      	mov	r1, r7
   da574:	3004      	adds	r0, #4
   da576:	f7ff fdeb 	bl	da150 <_ZNK5spark6detail9LogFilter5levelEPKc>
            if (level < minLevel) {
   da57a:	4284      	cmp	r4, r0
   da57c:	bfa8      	it	ge
   da57e:	4604      	movge	r4, r0
        for (LogHandler *handler: that->activeHandlers_) {
   da580:	e7e9      	b.n	da556 <_ZN5spark10LogManager10logEnabledEiPKcPv+0x2e>
        return 0;
   da582:	2000      	movs	r0, #0
   da584:	e7f0      	b.n	da568 <_ZN5spark10LogManager10logEnabledEiPKcPv+0x40>
   da586:	bf00      	nop
   da588:	e000ed00 	.word	0xe000ed00

000da58c <_ZN5spark6VectorIPNS_10LogHandlerENS_16DefaultAllocatorEE9removeOneERKS2_>:
inline bool spark::Vector<T, AllocatorT>::removeOne(const T &value) {
   da58c:	b570      	push	{r4, r5, r6, lr}
   da58e:	4604      	mov	r4, r0
    T* const p = find(data_, data_ + size_, value);
   da590:	e9d0 0200 	ldrd	r0, r2, [r0]
inline bool spark::Vector<T, AllocatorT>::removeOne(const T &value) {
   da594:	460b      	mov	r3, r1
    T* const p = find(data_, data_ + size_, value);
   da596:	eb00 0282 	add.w	r2, r0, r2, lsl #2
        for (; p != end; ++p) {
   da59a:	4282      	cmp	r2, r0
   da59c:	d007      	beq.n	da5ae <_ZN5spark6VectorIPNS_10LogHandlerENS_16DefaultAllocatorEE9removeOneERKS2_+0x22>
   da59e:	4601      	mov	r1, r0
            if (*p == value) {
   da5a0:	681d      	ldr	r5, [r3, #0]
   da5a2:	f851 6b04 	ldr.w	r6, [r1], #4
   da5a6:	42ae      	cmp	r6, r5
   da5a8:	d003      	beq.n	da5b2 <_ZN5spark6VectorIPNS_10LogHandlerENS_16DefaultAllocatorEE9removeOneERKS2_+0x26>
   da5aa:	4608      	mov	r0, r1
   da5ac:	e7f5      	b.n	da59a <_ZN5spark6VectorIPNS_10LogHandlerENS_16DefaultAllocatorEE9removeOneERKS2_+0xe>
        return false;
   da5ae:	2000      	movs	r0, #0
}
   da5b0:	bd70      	pop	{r4, r5, r6, pc}
        ::memmove(dest, p, (end - p) * sizeof(T));
   da5b2:	1a52      	subs	r2, r2, r1
   da5b4:	f002 f97c 	bl	dc8b0 <memmove>
    --size_;
   da5b8:	6863      	ldr	r3, [r4, #4]
   da5ba:	3b01      	subs	r3, #1
   da5bc:	6063      	str	r3, [r4, #4]
    return true;
   da5be:	2001      	movs	r0, #1
   da5c0:	e7f6      	b.n	da5b0 <_ZN5spark6VectorIPNS_10LogHandlerENS_16DefaultAllocatorEE9removeOneERKS2_+0x24>

000da5c2 <_ZN5spark10LogManager13removeHandlerEPNS_10LogHandlerE>:
void spark::LogManager::removeHandler(LogHandler *handler) {
   da5c2:	b51f      	push	{r0, r1, r2, r3, r4, lr}
    LOG_WITH_LOCK(mutex_) {
   da5c4:	f100 0324 	add.w	r3, r0, #36	; 0x24
void spark::LogManager::removeHandler(LogHandler *handler) {
   da5c8:	4604      	mov	r4, r0
   da5ca:	6a40      	ldr	r0, [r0, #36]	; 0x24
   da5cc:	9101      	str	r1, [sp, #4]
   da5ce:	9303      	str	r3, [sp, #12]
   da5d0:	f7fe f934 	bl	d883c <os_mutex_recursive_lock>
        if (activeHandlers_.removeOne(handler) && activeHandlers_.isEmpty()) {
   da5d4:	a901      	add	r1, sp, #4
   da5d6:	4620      	mov	r0, r4
   da5d8:	f7ff ffd8 	bl	da58c <_ZN5spark6VectorIPNS_10LogHandlerENS_16DefaultAllocatorEE9removeOneERKS2_>
   da5dc:	b118      	cbz	r0, da5e6 <_ZN5spark10LogManager13removeHandlerEPNS_10LogHandlerE+0x24>
   da5de:	6863      	ldr	r3, [r4, #4]
   da5e0:	b90b      	cbnz	r3, da5e6 <_ZN5spark10LogManager13removeHandlerEPNS_10LogHandlerE+0x24>
            resetSystemCallbacks();
   da5e2:	f7ff fe51 	bl	da288 <_ZN5spark10LogManager20resetSystemCallbacksEv>
    LOG_WITH_LOCK(mutex_) {
   da5e6:	a803      	add	r0, sp, #12
   da5e8:	f7ff ff1b 	bl	da422 <_ZNSt10lock_guardI14RecursiveMutexED1Ev>
}
   da5ec:	b004      	add	sp, #16
   da5ee:	bd10      	pop	{r4, pc}

000da5f0 <_ZN5spark10LogManager22destroyFactoryHandlersEv>:
void spark::LogManager::destroyFactoryHandlers() {
   da5f0:	b570      	push	{r4, r5, r6, lr}
    return data_ + size_;
   da5f2:	e9d0 5604 	ldrd	r5, r6, [r0, #16]
   da5f6:	2318      	movs	r3, #24
   da5f8:	4604      	mov	r4, r0
   da5fa:	fb03 5606 	mla	r6, r3, r6, r5
    for (const FactoryHandler &h: factoryHandlers_) {
   da5fe:	42ae      	cmp	r6, r5
   da600:	d015      	beq.n	da62e <_ZN5spark10LogManager22destroyFactoryHandlersEv+0x3e>
        activeHandlers_.removeOne(h.handler);
   da602:	f105 0110 	add.w	r1, r5, #16
   da606:	4620      	mov	r0, r4
   da608:	f7ff ffc0 	bl	da58c <_ZN5spark6VectorIPNS_10LogHandlerENS_16DefaultAllocatorEE9removeOneERKS2_>
        if (activeHandlers_.isEmpty()) {
   da60c:	6863      	ldr	r3, [r4, #4]
   da60e:	b90b      	cbnz	r3, da614 <_ZN5spark10LogManager22destroyFactoryHandlersEv+0x24>
            resetSystemCallbacks();
   da610:	f7ff fe3a 	bl	da288 <_ZN5spark10LogManager20resetSystemCallbacksEv>
        handlerFactory_->destroyHandler(h.handler);
   da614:	69e0      	ldr	r0, [r4, #28]
   da616:	6929      	ldr	r1, [r5, #16]
   da618:	6803      	ldr	r3, [r0, #0]
   da61a:	68db      	ldr	r3, [r3, #12]
   da61c:	4798      	blx	r3
        if (h.stream) {
   da61e:	6969      	ldr	r1, [r5, #20]
   da620:	b119      	cbz	r1, da62a <_ZN5spark10LogManager22destroyFactoryHandlersEv+0x3a>
            streamFactory_->destroyStream(h.stream);
   da622:	6a20      	ldr	r0, [r4, #32]
   da624:	6803      	ldr	r3, [r0, #0]
   da626:	68db      	ldr	r3, [r3, #12]
   da628:	4798      	blx	r3
    for (const FactoryHandler &h: factoryHandlers_) {
   da62a:	3518      	adds	r5, #24
   da62c:	e7e7      	b.n	da5fe <_ZN5spark10LogManager22destroyFactoryHandlersEv+0xe>
    destruct(data_, data_ + size_);
   da62e:	e9d4 5304 	ldrd	r5, r3, [r4, #16]
   da632:	2618      	movs	r6, #24
   da634:	fb06 5603 	mla	r6, r6, r3, r5
        for (; p != end; ++p) {
   da638:	42ae      	cmp	r6, r5
   da63a:	d004      	beq.n	da646 <_ZN5spark10LogManager22destroyFactoryHandlersEv+0x56>
struct spark::LogManager::FactoryHandler {
   da63c:	4628      	mov	r0, r5
   da63e:	f000 fef9 	bl	db434 <_ZN6StringD1Ev>
   da642:	3518      	adds	r5, #24
   da644:	e7f8      	b.n	da638 <_ZN5spark10LogManager22destroyFactoryHandlersEv+0x48>
    size_ = 0;
   da646:	2300      	movs	r3, #0
   da648:	6163      	str	r3, [r4, #20]
}
   da64a:	bd70      	pop	{r4, r5, r6, pc}

000da64c <_ZN5spark10LogManagerD1Ev>:
spark::LogManager::~LogManager() {
   da64c:	b573      	push	{r0, r1, r4, r5, r6, lr}
   da64e:	4604      	mov	r4, r0
    resetSystemCallbacks();
   da650:	f7ff fe1a 	bl	da288 <_ZN5spark10LogManager20resetSystemCallbacksEv>
    LOG_WITH_LOCK(mutex_) {
   da654:	f104 0324 	add.w	r3, r4, #36	; 0x24
   da658:	6a60      	ldr	r0, [r4, #36]	; 0x24
   da65a:	9301      	str	r3, [sp, #4]
   da65c:	f7fe f8ee 	bl	d883c <os_mutex_recursive_lock>
         destroyFactoryHandlers();
   da660:	4620      	mov	r0, r4
   da662:	f7ff ffc5 	bl	da5f0 <_ZN5spark10LogManager22destroyFactoryHandlersEv>
    LOG_WITH_LOCK(mutex_) {
   da666:	a801      	add	r0, sp, #4
   da668:	f7ff fedb 	bl	da422 <_ZNSt10lock_guardI14RecursiveMutexED1Ev>
        if (handle_) {
   da66c:	6a60      	ldr	r0, [r4, #36]	; 0x24
   da66e:	b108      	cbz	r0, da674 <_ZN5spark10LogManagerD1Ev+0x28>
            os_mutex_recursive_destroy(handle_);
   da670:	f7fe f8dc 	bl	d882c <os_mutex_recursive_destroy>
    destruct(data_, data_ + size_);
   da674:	e9d4 5304 	ldrd	r5, r3, [r4, #16]
   da678:	2618      	movs	r6, #24
   da67a:	fb06 5603 	mla	r6, r6, r3, r5
        for (; p != end; ++p) {
   da67e:	42ae      	cmp	r6, r5
   da680:	d004      	beq.n	da68c <_ZN5spark10LogManagerD1Ev+0x40>
struct spark::LogManager::FactoryHandler {
   da682:	4628      	mov	r0, r5
   da684:	f000 fed6 	bl	db434 <_ZN6StringD1Ev>
   da688:	3518      	adds	r5, #24
   da68a:	e7f8      	b.n	da67e <_ZN5spark10LogManagerD1Ev+0x32>
    ::free(ptr);
   da68c:	6920      	ldr	r0, [r4, #16]
   da68e:	f7fe fbef 	bl	d8e70 <free>
   da692:	6820      	ldr	r0, [r4, #0]
   da694:	f7fe fbec 	bl	d8e70 <free>
}
   da698:	4620      	mov	r0, r4
   da69a:	b002      	add	sp, #8
   da69c:	bd70      	pop	{r4, r5, r6, pc}
	...

000da6a0 <__tcf_2>:
    static LogManager mgr;
   da6a0:	4801      	ldr	r0, [pc, #4]	; (da6a8 <__tcf_2+0x8>)
   da6a2:	f7ff bfd3 	b.w	da64c <_ZN5spark10LogManagerD1Ev>
   da6a6:	bf00      	nop
   da6a8:	2003e574 	.word	0x2003e574

000da6ac <_ZN5spark6VectorINS_6detail9LogFilter4NodeENS_16DefaultAllocatorEE4moveIS3_Li0EEEvPS3_S7_S7_>:
        if (dest > p && dest < end) {
   da6ac:	4288      	cmp	r0, r1
    static void move(T* dest, T* p, T* end) {
   da6ae:	b5f8      	push	{r3, r4, r5, r6, r7, lr}
   da6b0:	4606      	mov	r6, r0
   da6b2:	460c      	mov	r4, r1
   da6b4:	4615      	mov	r5, r2
        if (dest > p && dest < end) {
   da6b6:	d927      	bls.n	da708 <_ZN5spark6VectorINS_6detail9LogFilter4NodeENS_16DefaultAllocatorEE4moveIS3_Li0EEEvPS3_S7_S7_+0x5c>
   da6b8:	4290      	cmp	r0, r2
   da6ba:	d226      	bcs.n	da70a <_ZN5spark6VectorINS_6detail9LogFilter4NodeENS_16DefaultAllocatorEE4moveIS3_Li0EEEvPS3_S7_S7_+0x5e>
            --end;
   da6bc:	f1a2 0514 	sub.w	r5, r2, #20
            dest += end - p - 1;
   da6c0:	1a6c      	subs	r4, r5, r1
   da6c2:	f1a1 0714 	sub.w	r7, r1, #20
   da6c6:	4404      	add	r4, r0
        capacity_(0) {
   da6c8:	2600      	movs	r6, #0
            for (; end != p; --end, --dest) {
   da6ca:	42af      	cmp	r7, r5
   da6cc:	d03d      	beq.n	da74a <_ZN5spark6VectorINS_6detail9LogFilter4NodeENS_16DefaultAllocatorEE4moveIS3_Li0EEEvPS3_S7_S7_+0x9e>
                new(dest) T(std::move(*end));
   da6ce:	b1a4      	cbz	r4, da6fa <_ZN5spark6VectorINS_6detail9LogFilter4NodeENS_16DefaultAllocatorEE4moveIS3_Li0EEEvPS3_S7_S7_+0x4e>
struct spark::detail::LogFilter::Node {
   da6d0:	682b      	ldr	r3, [r5, #0]
   da6d2:	6023      	str	r3, [r4, #0]
   da6d4:	88ab      	ldrh	r3, [r5, #4]
   da6d6:	80a3      	strh	r3, [r4, #4]
   da6d8:	f9b5 3006 	ldrsh.w	r3, [r5, #6]
   da6dc:	80e3      	strh	r3, [r4, #6]
        capacity_(0) {
   da6de:	e9c4 6602 	strd	r6, r6, [r4, #8]
   da6e2:	6126      	str	r6, [r4, #16]
      __a = _GLIBCXX_MOVE(__b);
   da6e4:	68ab      	ldr	r3, [r5, #8]
   da6e6:	60a3      	str	r3, [r4, #8]
      __b = _GLIBCXX_MOVE(__tmp);
   da6e8:	60ae      	str	r6, [r5, #8]
      _Tp __tmp = _GLIBCXX_MOVE(__a);
   da6ea:	68e3      	ldr	r3, [r4, #12]
      __a = _GLIBCXX_MOVE(__b);
   da6ec:	68ea      	ldr	r2, [r5, #12]
   da6ee:	60e2      	str	r2, [r4, #12]
      __b = _GLIBCXX_MOVE(__tmp);
   da6f0:	60eb      	str	r3, [r5, #12]
      _Tp __tmp = _GLIBCXX_MOVE(__a);
   da6f2:	6923      	ldr	r3, [r4, #16]
      __a = _GLIBCXX_MOVE(__b);
   da6f4:	692a      	ldr	r2, [r5, #16]
   da6f6:	6122      	str	r2, [r4, #16]
      __b = _GLIBCXX_MOVE(__tmp);
   da6f8:	612b      	str	r3, [r5, #16]
   da6fa:	f105 0008 	add.w	r0, r5, #8
   da6fe:	f7ff fe27 	bl	da350 <_ZN5spark6VectorINS_6detail9LogFilter4NodeENS_16DefaultAllocatorEED1Ev>
            for (; end != p; --end, --dest) {
   da702:	3d14      	subs	r5, #20
   da704:	3c14      	subs	r4, #20
   da706:	e7e0      	b.n	da6ca <_ZN5spark6VectorINS_6detail9LogFilter4NodeENS_16DefaultAllocatorEE4moveIS3_Li0EEEvPS3_S7_S7_+0x1e>
        } else if (dest != p) {
   da708:	d01f      	beq.n	da74a <_ZN5spark6VectorINS_6detail9LogFilter4NodeENS_16DefaultAllocatorEE4moveIS3_Li0EEEvPS3_S7_S7_+0x9e>
        capacity_(0) {
   da70a:	2700      	movs	r7, #0
            for (; p != end; ++p, ++dest) {
   da70c:	42ac      	cmp	r4, r5
   da70e:	d01c      	beq.n	da74a <_ZN5spark6VectorINS_6detail9LogFilter4NodeENS_16DefaultAllocatorEE4moveIS3_Li0EEEvPS3_S7_S7_+0x9e>
                new(dest) T(std::move(*p));
   da710:	b1a6      	cbz	r6, da73c <_ZN5spark6VectorINS_6detail9LogFilter4NodeENS_16DefaultAllocatorEE4moveIS3_Li0EEEvPS3_S7_S7_+0x90>
   da712:	6823      	ldr	r3, [r4, #0]
   da714:	6033      	str	r3, [r6, #0]
   da716:	88a3      	ldrh	r3, [r4, #4]
   da718:	80b3      	strh	r3, [r6, #4]
   da71a:	f9b4 3006 	ldrsh.w	r3, [r4, #6]
   da71e:	80f3      	strh	r3, [r6, #6]
        capacity_(0) {
   da720:	e9c6 7702 	strd	r7, r7, [r6, #8]
   da724:	6137      	str	r7, [r6, #16]
      __a = _GLIBCXX_MOVE(__b);
   da726:	68a3      	ldr	r3, [r4, #8]
   da728:	60b3      	str	r3, [r6, #8]
      __b = _GLIBCXX_MOVE(__tmp);
   da72a:	60a7      	str	r7, [r4, #8]
      _Tp __tmp = _GLIBCXX_MOVE(__a);
   da72c:	68f3      	ldr	r3, [r6, #12]
      __a = _GLIBCXX_MOVE(__b);
   da72e:	68e2      	ldr	r2, [r4, #12]
   da730:	60f2      	str	r2, [r6, #12]
      __b = _GLIBCXX_MOVE(__tmp);
   da732:	60e3      	str	r3, [r4, #12]
      _Tp __tmp = _GLIBCXX_MOVE(__a);
   da734:	6933      	ldr	r3, [r6, #16]
      __a = _GLIBCXX_MOVE(__b);
   da736:	6922      	ldr	r2, [r4, #16]
   da738:	6132      	str	r2, [r6, #16]
      __b = _GLIBCXX_MOVE(__tmp);
   da73a:	6123      	str	r3, [r4, #16]
   da73c:	f104 0008 	add.w	r0, r4, #8
   da740:	f7ff fe06 	bl	da350 <_ZN5spark6VectorINS_6detail9LogFilter4NodeENS_16DefaultAllocatorEED1Ev>
            for (; p != end; ++p, ++dest) {
   da744:	3414      	adds	r4, #20
   da746:	3614      	adds	r6, #20
   da748:	e7e0      	b.n	da70c <_ZN5spark6VectorINS_6detail9LogFilter4NodeENS_16DefaultAllocatorEE4moveIS3_Li0EEEvPS3_S7_S7_+0x60>
    }
   da74a:	bdf8      	pop	{r3, r4, r5, r6, r7, pc}

000da74c <_ZN5spark6VectorIPNS_10LogHandlerENS_16DefaultAllocatorEE6insertEiS2_>:
inline bool spark::Vector<T, AllocatorT>::insert(int i, T value) {
   da74c:	b5f8      	push	{r3, r4, r5, r6, r7, lr}
    if (size_ + 1 > capacity_ && !realloc(size_ + 1)) {
   da74e:	e9d0 5301 	ldrd	r5, r3, [r0, #4]
   da752:	429d      	cmp	r5, r3
inline bool spark::Vector<T, AllocatorT>::insert(int i, T value) {
   da754:	4604      	mov	r4, r0
   da756:	460e      	mov	r6, r1
   da758:	4617      	mov	r7, r2
    if (size_ + 1 > capacity_ && !realloc(size_ + 1)) {
   da75a:	db0d      	blt.n	da778 <_ZN5spark6VectorIPNS_10LogHandlerENS_16DefaultAllocatorEE6insertEiS2_+0x2c>
   da75c:	3501      	adds	r5, #1
        if (n > 0) {
   da75e:	2d00      	cmp	r5, #0
   da760:	6800      	ldr	r0, [r0, #0]
   da762:	dd04      	ble.n	da76e <_ZN5spark6VectorIPNS_10LogHandlerENS_16DefaultAllocatorEE6insertEiS2_+0x22>
    return ::realloc(ptr, size);
   da764:	00a9      	lsls	r1, r5, #2
   da766:	f7fe fb8b 	bl	d8e80 <realloc>
            if (!d) {
   da76a:	b918      	cbnz	r0, da774 <_ZN5spark6VectorIPNS_10LogHandlerENS_16DefaultAllocatorEE6insertEiS2_+0x28>
}
   da76c:	bdf8      	pop	{r3, r4, r5, r6, r7, pc}
    ::free(ptr);
   da76e:	f7fe fb7f 	bl	d8e70 <free>
        T* d = nullptr;
   da772:	2000      	movs	r0, #0
        data_ = d;
   da774:	6020      	str	r0, [r4, #0]
        capacity_ = n;
   da776:	60a5      	str	r5, [r4, #8]
    T* const p = data_ + i;
   da778:	6825      	ldr	r5, [r4, #0]
    move(p + 1, p, data_ + size_);
   da77a:	6862      	ldr	r2, [r4, #4]
    T* const p = data_ + i;
   da77c:	eb05 0186 	add.w	r1, r5, r6, lsl #2
    move(p + 1, p, data_ + size_);
   da780:	0092      	lsls	r2, r2, #2
        ::memmove(dest, p, (end - p) * sizeof(T));
   da782:	eba2 0286 	sub.w	r2, r2, r6, lsl #2
   da786:	1d08      	adds	r0, r1, #4
   da788:	f002 f892 	bl	dc8b0 <memmove>
    new(p) T(std::move(value));
   da78c:	f845 7026 	str.w	r7, [r5, r6, lsl #2]
    ++size_;
   da790:	6863      	ldr	r3, [r4, #4]
   da792:	3301      	adds	r3, #1
   da794:	6063      	str	r3, [r4, #4]
    return true;
   da796:	2001      	movs	r0, #1
   da798:	e7e8      	b.n	da76c <_ZN5spark6VectorIPNS_10LogHandlerENS_16DefaultAllocatorEE6insertEiS2_+0x20>

000da79a <_ZN5spark10LogManager10addHandlerEPNS_10LogHandlerE>:
bool spark::LogManager::addHandler(LogHandler *handler) {
   da79a:	b537      	push	{r0, r1, r2, r4, r5, lr}
    LOG_WITH_LOCK(mutex_) {
   da79c:	f100 0324 	add.w	r3, r0, #36	; 0x24
bool spark::LogManager::addHandler(LogHandler *handler) {
   da7a0:	4604      	mov	r4, r0
    void lock() { os_mutex_recursive_lock(handle_); }
   da7a2:	6a40      	ldr	r0, [r0, #36]	; 0x24
   da7a4:	9301      	str	r3, [sp, #4]
   da7a6:	460d      	mov	r5, r1
   da7a8:	f7fe f848 	bl	d883c <os_mutex_recursive_lock>
    return find(data_, data_ + size_, value);
   da7ac:	e9d4 3100 	ldrd	r3, r1, [r4]
   da7b0:	eb03 0081 	add.w	r0, r3, r1, lsl #2
        for (; p != end; ++p) {
   da7b4:	4283      	cmp	r3, r0
   da7b6:	461a      	mov	r2, r3
   da7b8:	d00b      	beq.n	da7d2 <_ZN5spark10LogManager10addHandlerEPNS_10LogHandlerE+0x38>
            if (*p == value) {
   da7ba:	6812      	ldr	r2, [r2, #0]
   da7bc:	42aa      	cmp	r2, r5
   da7be:	f103 0304 	add.w	r3, r3, #4
   da7c2:	d1f7      	bne.n	da7b4 <_ZN5spark10LogManager10addHandlerEPNS_10LogHandlerE+0x1a>
    LOG_WITH_LOCK(mutex_) {
   da7c4:	a801      	add	r0, sp, #4
   da7c6:	f7ff fe2c 	bl	da422 <_ZNSt10lock_guardI14RecursiveMutexED1Ev>
            return false;
   da7ca:	2500      	movs	r5, #0
}
   da7cc:	4628      	mov	r0, r5
   da7ce:	b003      	add	sp, #12
   da7d0:	bd30      	pop	{r4, r5, pc}
    return insert(size_, std::move(value));
   da7d2:	462a      	mov	r2, r5
   da7d4:	4620      	mov	r0, r4
   da7d6:	f7ff ffb9 	bl	da74c <_ZN5spark6VectorIPNS_10LogHandlerENS_16DefaultAllocatorEE6insertEiS2_>
        if (activeHandlers_.contains(handler) || !activeHandlers_.append(handler)) {
   da7da:	4605      	mov	r5, r0
   da7dc:	2800      	cmp	r0, #0
   da7de:	d0f1      	beq.n	da7c4 <_ZN5spark10LogManager10addHandlerEPNS_10LogHandlerE+0x2a>
        if (activeHandlers_.size() == 1) {
   da7e0:	6863      	ldr	r3, [r4, #4]
   da7e2:	2b01      	cmp	r3, #1
   da7e4:	d101      	bne.n	da7ea <_ZN5spark10LogManager10addHandlerEPNS_10LogHandlerE+0x50>
            setSystemCallbacks();
   da7e6:	f7ff fd43 	bl	da270 <_ZN5spark10LogManager18setSystemCallbacksEv>
    LOG_WITH_LOCK(mutex_) {
   da7ea:	a801      	add	r0, sp, #4
   da7ec:	f7ff fe19 	bl	da422 <_ZNSt10lock_guardI14RecursiveMutexED1Ev>
   da7f0:	e7ec      	b.n	da7cc <_ZN5spark10LogManager10addHandlerEPNS_10LogHandlerE+0x32>

000da7f2 <_ZN5spark6VectorI6StringNS_16DefaultAllocatorEE4moveIS1_Li0EEEvPS1_S5_S5_>:
        if (dest > p && dest < end) {
   da7f2:	4288      	cmp	r0, r1
    static void move(T* dest, T* p, T* end) {
   da7f4:	b5f8      	push	{r3, r4, r5, r6, r7, lr}
   da7f6:	4604      	mov	r4, r0
   da7f8:	460d      	mov	r5, r1
   da7fa:	4616      	mov	r6, r2
        if (dest > p && dest < end) {
   da7fc:	d914      	bls.n	da828 <_ZN5spark6VectorI6StringNS_16DefaultAllocatorEE4moveIS1_Li0EEEvPS1_S5_S5_+0x36>
   da7fe:	4290      	cmp	r0, r2
   da800:	d213      	bcs.n	da82a <_ZN5spark6VectorI6StringNS_16DefaultAllocatorEE4moveIS1_Li0EEEvPS1_S5_S5_+0x38>
            --end;
   da802:	f1a2 0610 	sub.w	r6, r2, #16
            dest += end - p - 1;
   da806:	1a75      	subs	r5, r6, r1
   da808:	f1a1 0710 	sub.w	r7, r1, #16
   da80c:	442c      	add	r4, r5
            for (; end != p; --end, --dest) {
   da80e:	42b7      	cmp	r7, r6
   da810:	d018      	beq.n	da844 <_ZN5spark6VectorI6StringNS_16DefaultAllocatorEE4moveIS1_Li0EEEvPS1_S5_S5_+0x52>
                new(dest) T(std::move(*end));
   da812:	b11c      	cbz	r4, da81c <_ZN5spark6VectorI6StringNS_16DefaultAllocatorEE4moveIS1_Li0EEEvPS1_S5_S5_+0x2a>
   da814:	4631      	mov	r1, r6
   da816:	4620      	mov	r0, r4
   da818:	f000 fe88 	bl	db52c <_ZN6StringC1EOS_>
                end->~T();
   da81c:	4630      	mov	r0, r6
   da81e:	f000 fe09 	bl	db434 <_ZN6StringD1Ev>
            for (; end != p; --end, --dest) {
   da822:	3e10      	subs	r6, #16
   da824:	3c10      	subs	r4, #16
   da826:	e7f2      	b.n	da80e <_ZN5spark6VectorI6StringNS_16DefaultAllocatorEE4moveIS1_Li0EEEvPS1_S5_S5_+0x1c>
        } else if (dest != p) {
   da828:	d00c      	beq.n	da844 <_ZN5spark6VectorI6StringNS_16DefaultAllocatorEE4moveIS1_Li0EEEvPS1_S5_S5_+0x52>
            for (; p != end; ++p, ++dest) {
   da82a:	42b5      	cmp	r5, r6
   da82c:	d00a      	beq.n	da844 <_ZN5spark6VectorI6StringNS_16DefaultAllocatorEE4moveIS1_Li0EEEvPS1_S5_S5_+0x52>
                new(dest) T(std::move(*p));
   da82e:	b11c      	cbz	r4, da838 <_ZN5spark6VectorI6StringNS_16DefaultAllocatorEE4moveIS1_Li0EEEvPS1_S5_S5_+0x46>
   da830:	4629      	mov	r1, r5
   da832:	4620      	mov	r0, r4
   da834:	f000 fe7a 	bl	db52c <_ZN6StringC1EOS_>
                p->~T();
   da838:	4628      	mov	r0, r5
   da83a:	f000 fdfb 	bl	db434 <_ZN6StringD1Ev>
            for (; p != end; ++p, ++dest) {
   da83e:	3510      	adds	r5, #16
   da840:	3410      	adds	r4, #16
   da842:	e7f2      	b.n	da82a <_ZN5spark6VectorI6StringNS_16DefaultAllocatorEE4moveIS1_Li0EEEvPS1_S5_S5_+0x38>
    }
   da844:	bdf8      	pop	{r3, r4, r5, r6, r7, pc}

000da846 <_ZN5spark6VectorI6StringNS_16DefaultAllocatorEE7reallocIS1_Li0EEEbi>:
    bool realloc(int n) {
   da846:	b570      	push	{r4, r5, r6, lr}
        if (n > 0) {
   da848:	1e0e      	subs	r6, r1, #0
    bool realloc(int n) {
   da84a:	4605      	mov	r5, r0
        if (n > 0) {
   da84c:	dd11      	ble.n	da872 <_ZN5spark6VectorI6StringNS_16DefaultAllocatorEE7reallocIS1_Li0EEEbi+0x2c>
    return ::malloc(size);
   da84e:	0130      	lsls	r0, r6, #4
   da850:	f7fe fb06 	bl	d8e60 <malloc>
            if (!d) {
   da854:	4604      	mov	r4, r0
   da856:	b158      	cbz	r0, da870 <_ZN5spark6VectorI6StringNS_16DefaultAllocatorEE7reallocIS1_Li0EEEbi+0x2a>
            move(d, data_, data_ + size_);
   da858:	e9d5 1200 	ldrd	r1, r2, [r5]
   da85c:	eb01 1202 	add.w	r2, r1, r2, lsl #4
   da860:	f7ff ffc7 	bl	da7f2 <_ZN5spark6VectorI6StringNS_16DefaultAllocatorEE4moveIS1_Li0EEEvPS1_S5_S5_>
    ::free(ptr);
   da864:	6828      	ldr	r0, [r5, #0]
   da866:	f7fe fb03 	bl	d8e70 <free>
        data_ = d;
   da86a:	602c      	str	r4, [r5, #0]
        capacity_ = n;
   da86c:	60ae      	str	r6, [r5, #8]
        return true;
   da86e:	2001      	movs	r0, #1
    }
   da870:	bd70      	pop	{r4, r5, r6, pc}
        T* d = nullptr;
   da872:	2400      	movs	r4, #0
   da874:	e7f6      	b.n	da864 <_ZN5spark6VectorI6StringNS_16DefaultAllocatorEE7reallocIS1_Li0EEEbi+0x1e>

000da876 <_ZN5spark6detail9LogFilterC1E8LogLevelNS_6VectorINS_17LogCategoryFilterENS_16DefaultAllocatorEEE>:
spark::detail::LogFilter::LogFilter(LogLevel level, LogCategoryFilters filters) :
   da876:	e92d 4ff0 	stmdb	sp!, {r4, r5, r6, r7, r8, r9, sl, fp, lr}
   da87a:	4691      	mov	r9, r2
   da87c:	b097      	sub	sp, #92	; 0x5c
        capacity_(0) {
   da87e:	2300      	movs	r3, #0
   da880:	9103      	str	r1, [sp, #12]
    if (!cats.reserve(filters.size())) {
   da882:	f8d9 1004 	ldr.w	r1, [r9, #4]
   da886:	930c      	str	r3, [sp, #48]	; 0x30
        level_(LOG_LEVEL_NONE) { // Fallback level that will be used in case of construction errors
   da888:	2246      	movs	r2, #70	; 0x46
    if (n > capacity_ && !realloc(n)) {
   da88a:	4299      	cmp	r1, r3
        capacity_(0) {
   da88c:	e9c0 3300 	strd	r3, r3, [r0]
   da890:	e9c0 3302 	strd	r3, r3, [r0, #8]
   da894:	e9c0 3304 	strd	r3, r3, [r0, #16]
   da898:	e9cd 330a 	strd	r3, r3, [sp, #40]	; 0x28
spark::detail::LogFilter::LogFilter(LogLevel level, LogCategoryFilters filters) :
   da89c:	4604      	mov	r4, r0
        level_(LOG_LEVEL_NONE) { // Fallback level that will be used in case of construction errors
   da89e:	7602      	strb	r2, [r0, #24]
    if (n > capacity_ && !realloc(n)) {
   da8a0:	dc23      	bgt.n	da8ea <_ZN5spark6detail9LogFilterC1E8LogLevelNS_6VectorINS_17LogCategoryFilterENS_16DefaultAllocatorEEE+0x74>
    return data_ + size_;
   da8a2:	e9d9 5700 	ldrd	r5, r7, [r9]
   da8a6:	2314      	movs	r3, #20
   da8a8:	fb03 5707 	mla	r7, r3, r7, r5
    for (LogCategoryFilter &filter: filters) {
   da8ac:	42af      	cmp	r7, r5
   da8ae:	d03b      	beq.n	da928 <_ZN5spark6detail9LogFilterC1E8LogLevelNS_6VectorINS_17LogCategoryFilterENS_16DefaultAllocatorEEE+0xb2>
        cats.append(std::move(filter.cat_));
   da8b0:	4629      	mov	r1, r5
   da8b2:	a80d      	add	r0, sp, #52	; 0x34
   da8b4:	f000 fe3a 	bl	db52c <_ZN6StringC1EOS_>
    return insert(size_, std::move(value));
   da8b8:	a90d      	add	r1, sp, #52	; 0x34
   da8ba:	a811      	add	r0, sp, #68	; 0x44
   da8bc:	9e0b      	ldr	r6, [sp, #44]	; 0x2c
   da8be:	f000 fe35 	bl	db52c <_ZN6StringC1EOS_>
    if (size_ + 1 > capacity_ && !realloc(size_ + 1)) {
   da8c2:	e9dd 130b 	ldrd	r1, r3, [sp, #44]	; 0x2c
   da8c6:	4299      	cmp	r1, r3
   da8c8:	da1b      	bge.n	da902 <_ZN5spark6detail9LogFilterC1E8LogLevelNS_6VectorINS_17LogCategoryFilterENS_16DefaultAllocatorEEE+0x8c>
    T* const p = data_ + i;
   da8ca:	9b0a      	ldr	r3, [sp, #40]	; 0x28
    move(p + 1, p, data_ + size_);
   da8cc:	9a0b      	ldr	r2, [sp, #44]	; 0x2c
    T* const p = data_ + i;
   da8ce:	eb03 1606 	add.w	r6, r3, r6, lsl #4
    move(p + 1, p, data_ + size_);
   da8d2:	eb03 1202 	add.w	r2, r3, r2, lsl #4
   da8d6:	4631      	mov	r1, r6
   da8d8:	f106 0010 	add.w	r0, r6, #16
   da8dc:	f7ff ff89 	bl	da7f2 <_ZN5spark6VectorI6StringNS_16DefaultAllocatorEE4moveIS1_Li0EEEvPS1_S5_S5_>
    new(p) T(std::move(value));
   da8e0:	b9ee      	cbnz	r6, da91e <_ZN5spark6detail9LogFilterC1E8LogLevelNS_6VectorINS_17LogCategoryFilterENS_16DefaultAllocatorEEE+0xa8>
    ++size_;
   da8e2:	9b0b      	ldr	r3, [sp, #44]	; 0x2c
   da8e4:	3301      	adds	r3, #1
   da8e6:	930b      	str	r3, [sp, #44]	; 0x2c
    return true;
   da8e8:	e011      	b.n	da90e <_ZN5spark6detail9LogFilterC1E8LogLevelNS_6VectorINS_17LogCategoryFilterENS_16DefaultAllocatorEEE+0x98>
    if (n > capacity_ && !realloc(n)) {
   da8ea:	a80a      	add	r0, sp, #40	; 0x28
   da8ec:	f7ff ffab 	bl	da846 <_ZN5spark6VectorI6StringNS_16DefaultAllocatorEE7reallocIS1_Li0EEEbi>
   da8f0:	2800      	cmp	r0, #0
   da8f2:	d1d6      	bne.n	da8a2 <_ZN5spark6detail9LogFilterC1E8LogLevelNS_6VectorINS_17LogCategoryFilterENS_16DefaultAllocatorEEE+0x2c>
    Vector<String> cats;
   da8f4:	a80a      	add	r0, sp, #40	; 0x28
   da8f6:	f7ff fd3f 	bl	da378 <_ZN5spark6VectorI6StringNS_16DefaultAllocatorEED1Ev>
}
   da8fa:	4620      	mov	r0, r4
   da8fc:	b017      	add	sp, #92	; 0x5c
   da8fe:	e8bd 8ff0 	ldmia.w	sp!, {r4, r5, r6, r7, r8, r9, sl, fp, pc}
    if (size_ + 1 > capacity_ && !realloc(size_ + 1)) {
   da902:	3101      	adds	r1, #1
   da904:	a80a      	add	r0, sp, #40	; 0x28
   da906:	f7ff ff9e 	bl	da846 <_ZN5spark6VectorI6StringNS_16DefaultAllocatorEE7reallocIS1_Li0EEEbi>
   da90a:	2800      	cmp	r0, #0
   da90c:	d1dd      	bne.n	da8ca <_ZN5spark6detail9LogFilterC1E8LogLevelNS_6VectorINS_17LogCategoryFilterENS_16DefaultAllocatorEEE+0x54>
    return insert(size_, std::move(value));
   da90e:	a811      	add	r0, sp, #68	; 0x44
   da910:	f000 fd90 	bl	db434 <_ZN6StringD1Ev>
        cats.append(std::move(filter.cat_));
   da914:	a80d      	add	r0, sp, #52	; 0x34
   da916:	f000 fd8d 	bl	db434 <_ZN6StringD1Ev>
    for (LogCategoryFilter &filter: filters) {
   da91a:	3514      	adds	r5, #20
   da91c:	e7c6      	b.n	da8ac <_ZN5spark6detail9LogFilterC1E8LogLevelNS_6VectorINS_17LogCategoryFilterENS_16DefaultAllocatorEEE+0x36>
    new(p) T(std::move(value));
   da91e:	a911      	add	r1, sp, #68	; 0x44
   da920:	4630      	mov	r0, r6
   da922:	f000 fe03 	bl	db52c <_ZN6StringC1EOS_>
   da926:	e7dc      	b.n	da8e2 <_ZN5spark6detail9LogFilterC1E8LogLevelNS_6VectorINS_17LogCategoryFilterENS_16DefaultAllocatorEEE+0x6c>
        capacity_(0) {
   da928:	2600      	movs	r6, #0
   da92a:	e9cd 660d 	strd	r6, r6, [sp, #52]	; 0x34
   da92e:	960f      	str	r6, [sp, #60]	; 0x3c
        size_t size = 0; // Name length
   da930:	4637      	mov	r7, r6
   da932:	f04f 0a14 	mov.w	sl, #20
    for (int i = 0; i < cats.size(); ++i) {
   da936:	e9dd 230a 	ldrd	r2, r3, [sp, #40]	; 0x28
   da93a:	429e      	cmp	r6, r3
   da93c:	f280 8097 	bge.w	daa6e <_ZN5spark6detail9LogFilterC1E8LogLevelNS_6VectorINS_17LogCategoryFilterENS_16DefaultAllocatorEEE+0x1f8>
        const char *category = cats.at(i).c_str();
   da940:	0133      	lsls	r3, r6, #4
   da942:	58d3      	ldr	r3, [r2, r3]
   da944:	9308      	str	r3, [sp, #32]
        if (!category) {
   da946:	b90b      	cbnz	r3, da94c <_ZN5spark6detail9LogFilterC1E8LogLevelNS_6VectorINS_17LogCategoryFilterENS_16DefaultAllocatorEEE+0xd6>
    for (int i = 0; i < cats.size(); ++i) {
   da948:	3601      	adds	r6, #1
   da94a:	e7f4      	b.n	da936 <_ZN5spark6detail9LogFilterC1E8LogLevelNS_6VectorINS_17LogCategoryFilterENS_16DefaultAllocatorEEE+0xc0>
        size_t size = 0; // Name length
   da94c:	fb0a f306 	mul.w	r3, sl, r6
   da950:	9709      	str	r7, [sp, #36]	; 0x24
   da952:	9302      	str	r3, [sp, #8]
        Vector<Node> *pNodes = &nodes; // Root nodes
   da954:	ad0d      	add	r5, sp, #52	; 0x34
        while ((name = nextSubcategoryName(category, size))) {
   da956:	a909      	add	r1, sp, #36	; 0x24
   da958:	a808      	add	r0, sp, #32
   da95a:	f7ff fb3c 	bl	d9fd6 <_ZN12_GLOBAL__N_119nextSubcategoryNameERPKcRj>
   da95e:	4683      	mov	fp, r0
   da960:	2800      	cmp	r0, #0
   da962:	d0f1      	beq.n	da948 <_ZN5spark6detail9LogFilterC1E8LogLevelNS_6VectorINS_17LogCategoryFilterENS_16DefaultAllocatorEEE+0xd2>
            const int index = nodeIndex(*pNodes, name, size, found);
   da964:	4601      	mov	r1, r0
   da966:	9a09      	ldr	r2, [sp, #36]	; 0x24
            bool found = false;
   da968:	f88d 701f 	strb.w	r7, [sp, #31]
            const int index = nodeIndex(*pNodes, name, size, found);
   da96c:	f10d 031f 	add.w	r3, sp, #31
   da970:	4628      	mov	r0, r5
   da972:	f7ff fbaf 	bl	da0d4 <_ZN5spark6detail9LogFilter9nodeIndexERKNS_6VectorINS1_4NodeENS_16DefaultAllocatorEEEPKcjRb>
            if (!found && !pNodes->insert(index, Node(name, size))) { // Add node
   da976:	f89d 801f 	ldrb.w	r8, [sp, #31]
            const int index = nodeIndex(*pNodes, name, size, found);
   da97a:	9001      	str	r0, [sp, #4]
            if (!found && !pNodes->insert(index, Node(name, size))) { // Add node
   da97c:	f1b8 0f00 	cmp.w	r8, #0
   da980:	d166      	bne.n	daa50 <_ZN5spark6detail9LogFilterC1E8LogLevelNS_6VectorINS_17LogCategoryFilterENS_16DefaultAllocatorEEE+0x1da>
   da982:	f8bd 3024 	ldrh.w	r3, [sp, #36]	; 0x24
            level(-1) {
   da986:	f8ad 3048 	strh.w	r3, [sp, #72]	; 0x48
   da98a:	e9cd 8813 	strd	r8, r8, [sp, #76]	; 0x4c
   da98e:	f64f 73ff 	movw	r3, #65535	; 0xffff
   da992:	f8cd b044 	str.w	fp, [sp, #68]	; 0x44
   da996:	f8ad 304a 	strh.w	r3, [sp, #74]	; 0x4a
   da99a:	f8cd 8054 	str.w	r8, [sp, #84]	; 0x54
    if (size_ + 1 > capacity_ && !realloc(size_ + 1)) {
   da99e:	e9d5 3201 	ldrd	r3, r2, [r5, #4]
   da9a2:	4293      	cmp	r3, r2
   da9a4:	db1a      	blt.n	da9dc <_ZN5spark6detail9LogFilterC1E8LogLevelNS_6VectorINS_17LogCategoryFilterENS_16DefaultAllocatorEEE+0x166>
   da9a6:	f103 0b01 	add.w	fp, r3, #1
        if (n > 0) {
   da9aa:	f1bb 0f00 	cmp.w	fp, #0
   da9ae:	dd4a      	ble.n	daa46 <_ZN5spark6detail9LogFilterC1E8LogLevelNS_6VectorINS_17LogCategoryFilterENS_16DefaultAllocatorEEE+0x1d0>
    return ::malloc(size);
   da9b0:	fb0a f00b 	mul.w	r0, sl, fp
   da9b4:	f7fe fa54 	bl	d8e60 <malloc>
            if (!d) {
   da9b8:	9004      	str	r0, [sp, #16]
   da9ba:	2800      	cmp	r0, #0
   da9bc:	d045      	beq.n	daa4a <_ZN5spark6detail9LogFilterC1E8LogLevelNS_6VectorINS_17LogCategoryFilterENS_16DefaultAllocatorEEE+0x1d4>
            move(d, data_, data_ + size_);
   da9be:	e9d5 1200 	ldrd	r1, r2, [r5]
   da9c2:	fb0a 1202 	mla	r2, sl, r2, r1
   da9c6:	f7ff fe71 	bl	da6ac <_ZN5spark6VectorINS_6detail9LogFilter4NodeENS_16DefaultAllocatorEE4moveIS3_Li0EEEvPS3_S7_S7_>
   da9ca:	9b04      	ldr	r3, [sp, #16]
    ::free(ptr);
   da9cc:	6828      	ldr	r0, [r5, #0]
   da9ce:	9304      	str	r3, [sp, #16]
   da9d0:	f7fe fa4e 	bl	d8e70 <free>
        data_ = d;
   da9d4:	9b04      	ldr	r3, [sp, #16]
   da9d6:	602b      	str	r3, [r5, #0]
        capacity_ = n;
   da9d8:	f8c5 b008 	str.w	fp, [r5, #8]
    T* const p = data_ + i;
   da9dc:	9b01      	ldr	r3, [sp, #4]
   da9de:	f8d5 b000 	ldr.w	fp, [r5]
    move(p + 1, p, data_ + size_);
   da9e2:	686a      	ldr	r2, [r5, #4]
    T* const p = data_ + i;
   da9e4:	fb0a f303 	mul.w	r3, sl, r3
   da9e8:	eb0b 0103 	add.w	r1, fp, r3
    move(p + 1, p, data_ + size_);
   da9ec:	f101 0014 	add.w	r0, r1, #20
   da9f0:	fb0a b202 	mla	r2, sl, r2, fp
   da9f4:	9104      	str	r1, [sp, #16]
    T* const p = data_ + i;
   da9f6:	9305      	str	r3, [sp, #20]
    move(p + 1, p, data_ + size_);
   da9f8:	f7ff fe58 	bl	da6ac <_ZN5spark6VectorINS_6detail9LogFilter4NodeENS_16DefaultAllocatorEE4moveIS3_Li0EEEvPS3_S7_S7_>
    new(p) T(std::move(value));
   da9fc:	9904      	ldr	r1, [sp, #16]
   da9fe:	b1a9      	cbz	r1, daa2c <_ZN5spark6detail9LogFilterC1E8LogLevelNS_6VectorINS_17LogCategoryFilterENS_16DefaultAllocatorEEE+0x1b6>
struct spark::detail::LogFilter::Node {
   daa00:	9b05      	ldr	r3, [sp, #20]
   daa02:	9a11      	ldr	r2, [sp, #68]	; 0x44
   daa04:	f84b 2003 	str.w	r2, [fp, r3]
   daa08:	f8bd 3048 	ldrh.w	r3, [sp, #72]	; 0x48
   daa0c:	808b      	strh	r3, [r1, #4]
   daa0e:	f9bd 304a 	ldrsh.w	r3, [sp, #74]	; 0x4a
   daa12:	80cb      	strh	r3, [r1, #6]
        capacity_(0) {
   daa14:	e9c1 7702 	strd	r7, r7, [r1, #8]
   daa18:	610f      	str	r7, [r1, #16]
      __a = _GLIBCXX_MOVE(__b);
   daa1a:	9b13      	ldr	r3, [sp, #76]	; 0x4c
   daa1c:	608b      	str	r3, [r1, #8]
   daa1e:	9b14      	ldr	r3, [sp, #80]	; 0x50
      __b = _GLIBCXX_MOVE(__tmp);
   daa20:	9713      	str	r7, [sp, #76]	; 0x4c
      __a = _GLIBCXX_MOVE(__b);
   daa22:	60cb      	str	r3, [r1, #12]
   daa24:	9b15      	ldr	r3, [sp, #84]	; 0x54
      __b = _GLIBCXX_MOVE(__tmp);
   daa26:	9714      	str	r7, [sp, #80]	; 0x50
      __a = _GLIBCXX_MOVE(__b);
   daa28:	610b      	str	r3, [r1, #16]
      __b = _GLIBCXX_MOVE(__tmp);
   daa2a:	9715      	str	r7, [sp, #84]	; 0x54
    ++size_;
   daa2c:	686b      	ldr	r3, [r5, #4]
   daa2e:	3301      	adds	r3, #1
   daa30:	606b      	str	r3, [r5, #4]
   daa32:	a813      	add	r0, sp, #76	; 0x4c
   daa34:	f7ff fc8c 	bl	da350 <_ZN5spark6VectorINS_6detail9LogFilter4NodeENS_16DefaultAllocatorEED1Ev>
            if (!found && !pNodes->insert(index, Node(name, size))) { // Add node
   daa38:	f1b8 0f00 	cmp.w	r8, #0
   daa3c:	d008      	beq.n	daa50 <_ZN5spark6detail9LogFilterC1E8LogLevelNS_6VectorINS_17LogCategoryFilterENS_16DefaultAllocatorEEE+0x1da>
    Vector<Node> nodes;
   daa3e:	a80d      	add	r0, sp, #52	; 0x34
   daa40:	f7ff fc86 	bl	da350 <_ZN5spark6VectorINS_6detail9LogFilter4NodeENS_16DefaultAllocatorEED1Ev>
   daa44:	e756      	b.n	da8f4 <_ZN5spark6detail9LogFilterC1E8LogLevelNS_6VectorINS_17LogCategoryFilterENS_16DefaultAllocatorEEE+0x7e>
        T* d = nullptr;
   daa46:	4643      	mov	r3, r8
   daa48:	e7c0      	b.n	da9cc <_ZN5spark6detail9LogFilterC1E8LogLevelNS_6VectorINS_17LogCategoryFilterENS_16DefaultAllocatorEEE+0x156>
            if (!found && !pNodes->insert(index, Node(name, size))) { // Add node
   daa4a:	f04f 0801 	mov.w	r8, #1
   daa4e:	e7f0      	b.n	daa32 <_ZN5spark6detail9LogFilterC1E8LogLevelNS_6VectorINS_17LogCategoryFilterENS_16DefaultAllocatorEEE+0x1bc>
    return data_[i];
   daa50:	9b01      	ldr	r3, [sp, #4]
   daa52:	682d      	ldr	r5, [r5, #0]
   daa54:	fb0a 5503 	mla	r5, sl, r3, r5
            if (!*category) { // Check if it's last subcategory
   daa58:	9b08      	ldr	r3, [sp, #32]
   daa5a:	781b      	ldrb	r3, [r3, #0]
   daa5c:	b92b      	cbnz	r3, daa6a <_ZN5spark6detail9LogFilterC1E8LogLevelNS_6VectorINS_17LogCategoryFilterENS_16DefaultAllocatorEEE+0x1f4>
                node.level = filters.at(i).level_;
   daa5e:	f8d9 3000 	ldr.w	r3, [r9]
   daa62:	9a02      	ldr	r2, [sp, #8]
   daa64:	4413      	add	r3, r2
   daa66:	7c1b      	ldrb	r3, [r3, #16]
   daa68:	80eb      	strh	r3, [r5, #6]
            pNodes = &node.nodes;
   daa6a:	3508      	adds	r5, #8
        while ((name = nextSubcategoryName(category, size))) {
   daa6c:	e773      	b.n	da956 <_ZN5spark6detail9LogFilterC1E8LogLevelNS_6VectorINS_17LogCategoryFilterENS_16DefaultAllocatorEEE+0xe0>
      _Tp __tmp = _GLIBCXX_MOVE(__a);
   daa6e:	6821      	ldr	r1, [r4, #0]
      __a = _GLIBCXX_MOVE(__b);
   daa70:	6022      	str	r2, [r4, #0]
      _Tp __tmp = _GLIBCXX_MOVE(__a);
   daa72:	6862      	ldr	r2, [r4, #4]
      __a = _GLIBCXX_MOVE(__b);
   daa74:	6063      	str	r3, [r4, #4]
      _Tp __tmp = _GLIBCXX_MOVE(__a);
   daa76:	68a3      	ldr	r3, [r4, #8]
      __b = _GLIBCXX_MOVE(__tmp);
   daa78:	920b      	str	r2, [sp, #44]	; 0x2c
      __a = _GLIBCXX_MOVE(__b);
   daa7a:	9a0c      	ldr	r2, [sp, #48]	; 0x30
      __b = _GLIBCXX_MOVE(__tmp);
   daa7c:	930c      	str	r3, [sp, #48]	; 0x30
      _Tp __tmp = _GLIBCXX_MOVE(__a);
   daa7e:	68e3      	ldr	r3, [r4, #12]
      __a = _GLIBCXX_MOVE(__b);
   daa80:	60a2      	str	r2, [r4, #8]
   daa82:	9a0d      	ldr	r2, [sp, #52]	; 0x34
      __b = _GLIBCXX_MOVE(__tmp);
   daa84:	930d      	str	r3, [sp, #52]	; 0x34
      _Tp __tmp = _GLIBCXX_MOVE(__a);
   daa86:	6923      	ldr	r3, [r4, #16]
      __a = _GLIBCXX_MOVE(__b);
   daa88:	60e2      	str	r2, [r4, #12]
   daa8a:	9a0e      	ldr	r2, [sp, #56]	; 0x38
      __b = _GLIBCXX_MOVE(__tmp);
   daa8c:	930e      	str	r3, [sp, #56]	; 0x38
      _Tp __tmp = _GLIBCXX_MOVE(__a);
   daa8e:	6963      	ldr	r3, [r4, #20]
      __a = _GLIBCXX_MOVE(__b);
   daa90:	6122      	str	r2, [r4, #16]
   daa92:	9a0f      	ldr	r2, [sp, #60]	; 0x3c
      __b = _GLIBCXX_MOVE(__tmp);
   daa94:	930f      	str	r3, [sp, #60]	; 0x3c
    level_ = level;
   daa96:	9b03      	ldr	r3, [sp, #12]
   daa98:	910a      	str	r1, [sp, #40]	; 0x28
      __a = _GLIBCXX_MOVE(__b);
   daa9a:	6162      	str	r2, [r4, #20]
   daa9c:	7623      	strb	r3, [r4, #24]
   daa9e:	e7ce      	b.n	daa3e <_ZN5spark6detail9LogFilterC1E8LogLevelNS_6VectorINS_17LogCategoryFilterENS_16DefaultAllocatorEEE+0x1c8>

000daaa0 <_ZN5spark10LogHandlerC1E8LogLevelNS_6VectorINS_17LogCategoryFilterENS_16DefaultAllocatorEEE>:
inline spark::LogHandler::LogHandler(LogLevel level, LogCategoryFilters filters) :
   daaa0:	b57f      	push	{r0, r1, r2, r3, r4, r5, r6, lr}
        filter_(level, filters) {
   daaa2:	4605      	mov	r5, r0
   daaa4:	4b09      	ldr	r3, [pc, #36]	; (daacc <_ZN5spark10LogHandlerC1E8LogLevelNS_6VectorINS_17LogCategoryFilterENS_16DefaultAllocatorEEE+0x2c>)
   daaa6:	f845 3b04 	str.w	r3, [r5], #4
inline spark::LogHandler::LogHandler(LogLevel level, LogCategoryFilters filters) :
   daaaa:	4604      	mov	r4, r0
   daaac:	460e      	mov	r6, r1
        filter_(level, filters) {
   daaae:	a801      	add	r0, sp, #4
   daab0:	4611      	mov	r1, r2
   daab2:	f7fa f8f0 	bl	d4c96 <_ZN5spark6VectorINS_17LogCategoryFilterENS_16DefaultAllocatorEEC1ERKS3_>
   daab6:	aa01      	add	r2, sp, #4
   daab8:	4631      	mov	r1, r6
   daaba:	4628      	mov	r0, r5
   daabc:	f7ff fedb 	bl	da876 <_ZN5spark6detail9LogFilterC1E8LogLevelNS_6VectorINS_17LogCategoryFilterENS_16DefaultAllocatorEEE>
   daac0:	a801      	add	r0, sp, #4
   daac2:	f7fa f8a7 	bl	d4c14 <_ZN5spark6VectorINS_17LogCategoryFilterENS_16DefaultAllocatorEED1Ev>
}
   daac6:	4620      	mov	r0, r4
   daac8:	b004      	add	sp, #16
   daaca:	bd70      	pop	{r4, r5, r6, pc}
   daacc:	000dd04c 	.word	0x000dd04c

000daad0 <_ZN5spark24DefaultLogHandlerFactory13createHandlerEPKc8LogLevelNS_6VectorINS_17LogCategoryFilterENS_16DefaultAllocatorEEEP5PrintRKNS_9JSONValueE>:
            Print *stream, const JSONValue &params) {
   daad0:	b5f0      	push	{r4, r5, r6, r7, lr}
   daad2:	460f      	mov	r7, r1
   daad4:	b087      	sub	sp, #28
    if (strcmp(type, "JSONStreamLogHandler") == 0) {
   daad6:	4926      	ldr	r1, [pc, #152]	; (dab70 <_ZN5spark24DefaultLogHandlerFactory13createHandlerEPKc8LogLevelNS_6VectorINS_17LogCategoryFilterENS_16DefaultAllocatorEEEP5PrintRKNS_9JSONValueE+0xa0>)
            Print *stream, const JSONValue &params) {
   daad8:	9c0c      	ldr	r4, [sp, #48]	; 0x30
    if (strcmp(type, "JSONStreamLogHandler") == 0) {
   daada:	4638      	mov	r0, r7
            Print *stream, const JSONValue &params) {
   daadc:	4616      	mov	r6, r2
   daade:	461d      	mov	r5, r3
    if (strcmp(type, "JSONStreamLogHandler") == 0) {
   daae0:	f001 ff77 	bl	dc9d2 <strcmp>
   daae4:	bb00      	cbnz	r0, dab28 <_ZN5spark24DefaultLogHandlerFactory13createHandlerEPKc8LogLevelNS_6VectorINS_17LogCategoryFilterENS_16DefaultAllocatorEEEP5PrintRKNS_9JSONValueE+0x58>
        if (!stream) {
   daae6:	b1e4      	cbz	r4, dab22 <_ZN5spark24DefaultLogHandlerFactory13createHandlerEPKc8LogLevelNS_6VectorINS_17LogCategoryFilterENS_16DefaultAllocatorEEEP5PrintRKNS_9JSONValueE+0x52>
        return new(std::nothrow) JSONStreamLogHandler(*stream, level, std::move(filters));
   daae8:	4629      	mov	r1, r5
   daaea:	4668      	mov	r0, sp
   daaec:	f7ff fc8a 	bl	da404 <_ZN5spark6VectorINS_17LogCategoryFilterENS_16DefaultAllocatorEEC1EOS3_>
   daaf0:	4920      	ldr	r1, [pc, #128]	; (dab74 <_ZN5spark24DefaultLogHandlerFactory13createHandlerEPKc8LogLevelNS_6VectorINS_17LogCategoryFilterENS_16DefaultAllocatorEEEP5PrintRKNS_9JSONValueE+0xa4>)
   daaf2:	2024      	movs	r0, #36	; 0x24
   daaf4:	f001 fa44 	bl	dbf80 <_ZnwjRKSt9nothrow_t>
   daaf8:	4605      	mov	r5, r0
   daafa:	b170      	cbz	r0, dab1a <_ZN5spark24DefaultLogHandlerFactory13createHandlerEPKc8LogLevelNS_6VectorINS_17LogCategoryFilterENS_16DefaultAllocatorEEEP5PrintRKNS_9JSONValueE+0x4a>
        stream_(&stream) {
   daafc:	4669      	mov	r1, sp
   daafe:	a803      	add	r0, sp, #12
   dab00:	f7fa f8c9 	bl	d4c96 <_ZN5spark6VectorINS_17LogCategoryFilterENS_16DefaultAllocatorEEC1ERKS3_>
   dab04:	aa03      	add	r2, sp, #12
   dab06:	4631      	mov	r1, r6
   dab08:	4628      	mov	r0, r5
   dab0a:	f7ff ffc9 	bl	daaa0 <_ZN5spark10LogHandlerC1E8LogLevelNS_6VectorINS_17LogCategoryFilterENS_16DefaultAllocatorEEE>
   dab0e:	a803      	add	r0, sp, #12
   dab10:	f7fa f880 	bl	d4c14 <_ZN5spark6VectorINS_17LogCategoryFilterENS_16DefaultAllocatorEED1Ev>
    using StreamLogHandler::StreamLogHandler;
   dab14:	4b18      	ldr	r3, [pc, #96]	; (dab78 <_ZN5spark24DefaultLogHandlerFactory13createHandlerEPKc8LogLevelNS_6VectorINS_17LogCategoryFilterENS_16DefaultAllocatorEEEP5PrintRKNS_9JSONValueE+0xa8>)
        stream_(&stream) {
   dab16:	622c      	str	r4, [r5, #32]
    using StreamLogHandler::StreamLogHandler;
   dab18:	602b      	str	r3, [r5, #0]
        return new(std::nothrow) StreamLogHandler(*stream, level, std::move(filters));
   dab1a:	4668      	mov	r0, sp
   dab1c:	f7fa f87a 	bl	d4c14 <_ZN5spark6VectorINS_17LogCategoryFilterENS_16DefaultAllocatorEED1Ev>
   dab20:	462c      	mov	r4, r5
}
   dab22:	4620      	mov	r0, r4
   dab24:	b007      	add	sp, #28
   dab26:	bdf0      	pop	{r4, r5, r6, r7, pc}
    } else if (strcmp(type, "StreamLogHandler") == 0) {
   dab28:	4914      	ldr	r1, [pc, #80]	; (dab7c <_ZN5spark24DefaultLogHandlerFactory13createHandlerEPKc8LogLevelNS_6VectorINS_17LogCategoryFilterENS_16DefaultAllocatorEEEP5PrintRKNS_9JSONValueE+0xac>)
   dab2a:	4638      	mov	r0, r7
   dab2c:	f001 ff51 	bl	dc9d2 <strcmp>
   dab30:	b9e0      	cbnz	r0, dab6c <_ZN5spark24DefaultLogHandlerFactory13createHandlerEPKc8LogLevelNS_6VectorINS_17LogCategoryFilterENS_16DefaultAllocatorEEEP5PrintRKNS_9JSONValueE+0x9c>
        if (!stream) {
   dab32:	2c00      	cmp	r4, #0
   dab34:	d0f5      	beq.n	dab22 <_ZN5spark24DefaultLogHandlerFactory13createHandlerEPKc8LogLevelNS_6VectorINS_17LogCategoryFilterENS_16DefaultAllocatorEEEP5PrintRKNS_9JSONValueE+0x52>
        return new(std::nothrow) StreamLogHandler(*stream, level, std::move(filters));
   dab36:	4629      	mov	r1, r5
   dab38:	4668      	mov	r0, sp
   dab3a:	f7ff fc63 	bl	da404 <_ZN5spark6VectorINS_17LogCategoryFilterENS_16DefaultAllocatorEEC1EOS3_>
   dab3e:	490d      	ldr	r1, [pc, #52]	; (dab74 <_ZN5spark24DefaultLogHandlerFactory13createHandlerEPKc8LogLevelNS_6VectorINS_17LogCategoryFilterENS_16DefaultAllocatorEEEP5PrintRKNS_9JSONValueE+0xa4>)
   dab40:	2024      	movs	r0, #36	; 0x24
   dab42:	f001 fa1d 	bl	dbf80 <_ZnwjRKSt9nothrow_t>
   dab46:	4605      	mov	r5, r0
   dab48:	2800      	cmp	r0, #0
   dab4a:	d0e6      	beq.n	dab1a <_ZN5spark24DefaultLogHandlerFactory13createHandlerEPKc8LogLevelNS_6VectorINS_17LogCategoryFilterENS_16DefaultAllocatorEEEP5PrintRKNS_9JSONValueE+0x4a>
        stream_(&stream) {
   dab4c:	4669      	mov	r1, sp
   dab4e:	a803      	add	r0, sp, #12
   dab50:	f7fa f8a1 	bl	d4c96 <_ZN5spark6VectorINS_17LogCategoryFilterENS_16DefaultAllocatorEEC1ERKS3_>
   dab54:	aa03      	add	r2, sp, #12
   dab56:	4631      	mov	r1, r6
   dab58:	4628      	mov	r0, r5
   dab5a:	f7ff ffa1 	bl	daaa0 <_ZN5spark10LogHandlerC1E8LogLevelNS_6VectorINS_17LogCategoryFilterENS_16DefaultAllocatorEEE>
   dab5e:	a803      	add	r0, sp, #12
   dab60:	f7fa f858 	bl	d4c14 <_ZN5spark6VectorINS_17LogCategoryFilterENS_16DefaultAllocatorEED1Ev>
   dab64:	4b06      	ldr	r3, [pc, #24]	; (dab80 <_ZN5spark24DefaultLogHandlerFactory13createHandlerEPKc8LogLevelNS_6VectorINS_17LogCategoryFilterENS_16DefaultAllocatorEEEP5PrintRKNS_9JSONValueE+0xb0>)
   dab66:	602b      	str	r3, [r5, #0]
   dab68:	622c      	str	r4, [r5, #32]
}
   dab6a:	e7d6      	b.n	dab1a <_ZN5spark24DefaultLogHandlerFactory13createHandlerEPKc8LogLevelNS_6VectorINS_17LogCategoryFilterENS_16DefaultAllocatorEEEP5PrintRKNS_9JSONValueE+0x4a>
            return nullptr; // Output stream is not specified
   dab6c:	2400      	movs	r4, #0
   dab6e:	e7d8      	b.n	dab22 <_ZN5spark24DefaultLogHandlerFactory13createHandlerEPKc8LogLevelNS_6VectorINS_17LogCategoryFilterENS_16DefaultAllocatorEEEP5PrintRKNS_9JSONValueE+0x52>
   dab70:	000dd8f2 	.word	0x000dd8f2
   dab74:	000ddab4 	.word	0x000ddab4
   dab78:	000dd984 	.word	0x000dd984
   dab7c:	000dd8f6 	.word	0x000dd8f6
   dab80:	000dd96c 	.word	0x000dd96c

000dab84 <_GLOBAL__sub_I__ZN5spark3LogE>:
        name_(name) {
   dab84:	4b01      	ldr	r3, [pc, #4]	; (dab8c <_GLOBAL__sub_I__ZN5spark3LogE+0x8>)
   dab86:	4a02      	ldr	r2, [pc, #8]	; (dab90 <_GLOBAL__sub_I__ZN5spark3LogE+0xc>)
   dab88:	601a      	str	r2, [r3, #0]
#if Wiring_LogConfig

// spark::
void spark::logProcessControlRequest(ctrl_request* req) {
    JSONRequestHandler::process(req);
}
   dab8a:	4770      	bx	lr
   dab8c:	2003e570 	.word	0x2003e570
   dab90:	000dd907 	.word	0x000dd907

000dab94 <_ZN5spark16StreamLogHandler10logMessageEPKc8LogLevelS2_RK13LogAttributes>:
void spark::StreamLogHandler::logMessage(const char *msg, LogLevel level, const char *category, const LogAttributes &attr) {
   dab94:	e92d 47f0 	stmdb	sp!, {r4, r5, r6, r7, r8, r9, sl, lr}
   dab98:	9d08      	ldr	r5, [sp, #32]
    if (stream_ == &Serial && Network.listening()) {
   dab9a:	f8d0 9020 	ldr.w	r9, [r0, #32]
void spark::StreamLogHandler::logMessage(const char *msg, LogLevel level, const char *category, const LogAttributes &attr) {
   dab9e:	4604      	mov	r4, r0
   daba0:	460e      	mov	r6, r1
   daba2:	4617      	mov	r7, r2
   daba4:	4698      	mov	r8, r3
    if (stream_ == &Serial && Network.listening()) {
   daba6:	f001 f803 	bl	dbbb0 <_Z16_fetch_usbserialv>
   dabaa:	4581      	cmp	r9, r0
   dabac:	d04c      	beq.n	dac48 <_ZN5spark16StreamLogHandler10logMessageEPKc8LogLevelS2_RK13LogAttributes+0xb4>
    if (attr.has_time) {
   dabae:	792b      	ldrb	r3, [r5, #4]
   dabb0:	0719      	lsls	r1, r3, #28
   dabb2:	d504      	bpl.n	dabbe <_ZN5spark16StreamLogHandler10logMessageEPKc8LogLevelS2_RK13LogAttributes+0x2a>
        printf("%010u ", (unsigned)attr.time);
   dabb4:	696a      	ldr	r2, [r5, #20]
   dabb6:	4954      	ldr	r1, [pc, #336]	; (dad08 <_ZN5spark16StreamLogHandler10logMessageEPKc8LogLevelS2_RK13LogAttributes+0x174>)
   dabb8:	4620      	mov	r0, r4
   dabba:	f7ff fa7c 	bl	da0b6 <_ZN5spark16StreamLogHandler6printfEPKcz>
    if (category) {
   dabbe:	f1b8 0f00 	cmp.w	r8, #0
   dabc2:	d00d      	beq.n	dabe0 <_ZN5spark16StreamLogHandler10logMessageEPKc8LogLevelS2_RK13LogAttributes+0x4c>
        write('[');
   dabc4:	215b      	movs	r1, #91	; 0x5b
   dabc6:	4620      	mov	r0, r4
   dabc8:	f7ff fa69 	bl	da09e <_ZN5spark16StreamLogHandler5writeEc>
        write(category);
   dabcc:	4641      	mov	r1, r8
   dabce:	4620      	mov	r0, r4
   dabd0:	f7ff fa56 	bl	da080 <_ZN5spark16StreamLogHandler5writeEPKc>
        write("] ", 2);
   dabd4:	6823      	ldr	r3, [r4, #0]
   dabd6:	494d      	ldr	r1, [pc, #308]	; (dad0c <_ZN5spark16StreamLogHandler10logMessageEPKc8LogLevelS2_RK13LogAttributes+0x178>)
   dabd8:	68db      	ldr	r3, [r3, #12]
   dabda:	2202      	movs	r2, #2
   dabdc:	4620      	mov	r0, r4
   dabde:	4798      	blx	r3
    if (attr.has_file) {
   dabe0:	792b      	ldrb	r3, [r5, #4]
   dabe2:	07da      	lsls	r2, r3, #31
   dabe4:	d523      	bpl.n	dac2e <_ZN5spark16StreamLogHandler10logMessageEPKc8LogLevelS2_RK13LogAttributes+0x9a>
        s = extractFileName(attr.file); // Strip directory path
   dabe6:	f8d5 8008 	ldr.w	r8, [r5, #8]
    const char *s1 = strrchr(s, '/');
   dabea:	212f      	movs	r1, #47	; 0x2f
   dabec:	4640      	mov	r0, r8
   dabee:	f001 ff4d 	bl	dca8c <strrchr>
    if (s1) {
   dabf2:	b108      	cbz	r0, dabf8 <_ZN5spark16StreamLogHandler10logMessageEPKc8LogLevelS2_RK13LogAttributes+0x64>
        return s1 + 1;
   dabf4:	f100 0801 	add.w	r8, r0, #1
        write(s); // File name
   dabf8:	4641      	mov	r1, r8
   dabfa:	4620      	mov	r0, r4
   dabfc:	f7ff fa40 	bl	da080 <_ZN5spark16StreamLogHandler5writeEPKc>
        if (attr.has_line) {
   dac00:	792b      	ldrb	r3, [r5, #4]
   dac02:	079b      	lsls	r3, r3, #30
   dac04:	d508      	bpl.n	dac18 <_ZN5spark16StreamLogHandler10logMessageEPKc8LogLevelS2_RK13LogAttributes+0x84>
            write(':');
   dac06:	213a      	movs	r1, #58	; 0x3a
   dac08:	4620      	mov	r0, r4
   dac0a:	f7ff fa48 	bl	da09e <_ZN5spark16StreamLogHandler5writeEc>
            printf("%d", (int)attr.line); // Line number
   dac0e:	68ea      	ldr	r2, [r5, #12]
   dac10:	493f      	ldr	r1, [pc, #252]	; (dad10 <_ZN5spark16StreamLogHandler10logMessageEPKc8LogLevelS2_RK13LogAttributes+0x17c>)
   dac12:	4620      	mov	r0, r4
   dac14:	f7ff fa4f 	bl	da0b6 <_ZN5spark16StreamLogHandler6printfEPKcz>
        if (attr.has_function) {
   dac18:	792a      	ldrb	r2, [r5, #4]
   dac1a:	6823      	ldr	r3, [r4, #0]
   dac1c:	f012 0f04 	tst.w	r2, #4
   dac20:	68db      	ldr	r3, [r3, #12]
            write(", ", 2);
   dac22:	bf14      	ite	ne
   dac24:	493b      	ldrne	r1, [pc, #236]	; (dad14 <_ZN5spark16StreamLogHandler10logMessageEPKc8LogLevelS2_RK13LogAttributes+0x180>)
            write(": ", 2);
   dac26:	493c      	ldreq	r1, [pc, #240]	; (dad18 <_ZN5spark16StreamLogHandler10logMessageEPKc8LogLevelS2_RK13LogAttributes+0x184>)
            write(", ", 2);
   dac28:	2202      	movs	r2, #2
            write(": ", 2);
   dac2a:	4620      	mov	r0, r4
   dac2c:	4798      	blx	r3
    if (attr.has_function) {
   dac2e:	792b      	ldrb	r3, [r5, #4]
   dac30:	0758      	lsls	r0, r3, #29
   dac32:	d51d      	bpl.n	dac70 <_ZN5spark16StreamLogHandler10logMessageEPKc8LogLevelS2_RK13LogAttributes+0xdc>
        s = extractFuncName(attr.function, &n); // Strip argument and return types
   dac34:	6929      	ldr	r1, [r5, #16]
const char* extractFuncName(const char *s, size_t *size) {
   dac36:	460b      	mov	r3, r1
   dac38:	461a      	mov	r2, r3
    for (; *s; ++s) {
   dac3a:	f813 0b01 	ldrb.w	r0, [r3], #1
   dac3e:	b160      	cbz	r0, dac5a <_ZN5spark16StreamLogHandler10logMessageEPKc8LogLevelS2_RK13LogAttributes+0xc6>
        if (*s == ' ') {
   dac40:	2820      	cmp	r0, #32
   dac42:	d108      	bne.n	dac56 <_ZN5spark16StreamLogHandler10logMessageEPKc8LogLevelS2_RK13LogAttributes+0xc2>
            s1 = s + 1; // Skip return type
   dac44:	4619      	mov	r1, r3
   dac46:	e7f7      	b.n	dac38 <_ZN5spark16StreamLogHandler10logMessageEPKc8LogLevelS2_RK13LogAttributes+0xa4>
    if (stream_ == &Serial && Network.listening()) {
   dac48:	4834      	ldr	r0, [pc, #208]	; (dad1c <_ZN5spark16StreamLogHandler10logMessageEPKc8LogLevelS2_RK13LogAttributes+0x188>)
   dac4a:	f000 f966 	bl	daf1a <_ZN5spark12NetworkClass9listeningEv>
   dac4e:	2800      	cmp	r0, #0
   dac50:	d0ad      	beq.n	dabae <_ZN5spark16StreamLogHandler10logMessageEPKc8LogLevelS2_RK13LogAttributes+0x1a>
}
   dac52:	e8bd 87f0 	ldmia.w	sp!, {r4, r5, r6, r7, r8, r9, sl, pc}
        } else if (*s == '(') {
   dac56:	2828      	cmp	r0, #40	; 0x28
   dac58:	d1ee      	bne.n	dac38 <_ZN5spark16StreamLogHandler10logMessageEPKc8LogLevelS2_RK13LogAttributes+0xa4>
        write(s, n);
   dac5a:	6823      	ldr	r3, [r4, #0]
   dac5c:	1a52      	subs	r2, r2, r1
   dac5e:	68db      	ldr	r3, [r3, #12]
   dac60:	4620      	mov	r0, r4
   dac62:	4798      	blx	r3
        write("(): ", 4);
   dac64:	6823      	ldr	r3, [r4, #0]
   dac66:	492e      	ldr	r1, [pc, #184]	; (dad20 <_ZN5spark16StreamLogHandler10logMessageEPKc8LogLevelS2_RK13LogAttributes+0x18c>)
   dac68:	68db      	ldr	r3, [r3, #12]
   dac6a:	2204      	movs	r2, #4
   dac6c:	4620      	mov	r0, r4
   dac6e:	4798      	blx	r3
    return log_level_name(level, nullptr);
   dac70:	2100      	movs	r1, #0
   dac72:	4638      	mov	r0, r7
   dac74:	f7fd ffda 	bl	d8c2c <log_level_name>
   dac78:	4601      	mov	r1, r0
    write(s);
   dac7a:	4620      	mov	r0, r4
   dac7c:	f7ff fa00 	bl	da080 <_ZN5spark16StreamLogHandler5writeEPKc>
    write(": ", 2);
   dac80:	6823      	ldr	r3, [r4, #0]
   dac82:	4925      	ldr	r1, [pc, #148]	; (dad18 <_ZN5spark16StreamLogHandler10logMessageEPKc8LogLevelS2_RK13LogAttributes+0x184>)
   dac84:	68db      	ldr	r3, [r3, #12]
   dac86:	2202      	movs	r2, #2
   dac88:	4620      	mov	r0, r4
   dac8a:	4798      	blx	r3
    if (msg) {
   dac8c:	b11e      	cbz	r6, dac96 <_ZN5spark16StreamLogHandler10logMessageEPKc8LogLevelS2_RK13LogAttributes+0x102>
        write(msg);
   dac8e:	4631      	mov	r1, r6
   dac90:	4620      	mov	r0, r4
   dac92:	f7ff f9f5 	bl	da080 <_ZN5spark16StreamLogHandler5writeEPKc>
    if (attr.has_code || attr.has_details) {
   dac96:	792b      	ldrb	r3, [r5, #4]
   dac98:	f013 0f30 	tst.w	r3, #48	; 0x30
   dac9c:	d02c      	beq.n	dacf8 <_ZN5spark16StreamLogHandler10logMessageEPKc8LogLevelS2_RK13LogAttributes+0x164>
        write(" [", 2);
   dac9e:	6823      	ldr	r3, [r4, #0]
   daca0:	4920      	ldr	r1, [pc, #128]	; (dad24 <_ZN5spark16StreamLogHandler10logMessageEPKc8LogLevelS2_RK13LogAttributes+0x190>)
   daca2:	68db      	ldr	r3, [r3, #12]
   daca4:	2202      	movs	r2, #2
   daca6:	4620      	mov	r0, r4
   daca8:	4798      	blx	r3
        if (attr.has_code) {
   dacaa:	792b      	ldrb	r3, [r5, #4]
   dacac:	06d9      	lsls	r1, r3, #27
   dacae:	d50a      	bpl.n	dacc6 <_ZN5spark16StreamLogHandler10logMessageEPKc8LogLevelS2_RK13LogAttributes+0x132>
            write("code = ", 7);
   dacb0:	6823      	ldr	r3, [r4, #0]
   dacb2:	491d      	ldr	r1, [pc, #116]	; (dad28 <_ZN5spark16StreamLogHandler10logMessageEPKc8LogLevelS2_RK13LogAttributes+0x194>)
   dacb4:	68db      	ldr	r3, [r3, #12]
   dacb6:	2207      	movs	r2, #7
   dacb8:	4620      	mov	r0, r4
   dacba:	4798      	blx	r3
            printf("%" PRIiPTR, (intptr_t)attr.code);
   dacbc:	69aa      	ldr	r2, [r5, #24]
   dacbe:	491b      	ldr	r1, [pc, #108]	; (dad2c <_ZN5spark16StreamLogHandler10logMessageEPKc8LogLevelS2_RK13LogAttributes+0x198>)
   dacc0:	4620      	mov	r0, r4
   dacc2:	f7ff f9f8 	bl	da0b6 <_ZN5spark16StreamLogHandler6printfEPKcz>
        if (attr.has_details) {
   dacc6:	792b      	ldrb	r3, [r5, #4]
   dacc8:	069a      	lsls	r2, r3, #26
   dacca:	d511      	bpl.n	dacf0 <_ZN5spark16StreamLogHandler10logMessageEPKc8LogLevelS2_RK13LogAttributes+0x15c>
            if (attr.has_code) {
   daccc:	06db      	lsls	r3, r3, #27
   dacce:	d505      	bpl.n	dacdc <_ZN5spark16StreamLogHandler10logMessageEPKc8LogLevelS2_RK13LogAttributes+0x148>
                write(", ", 2);
   dacd0:	6823      	ldr	r3, [r4, #0]
   dacd2:	4910      	ldr	r1, [pc, #64]	; (dad14 <_ZN5spark16StreamLogHandler10logMessageEPKc8LogLevelS2_RK13LogAttributes+0x180>)
   dacd4:	68db      	ldr	r3, [r3, #12]
   dacd6:	2202      	movs	r2, #2
   dacd8:	4620      	mov	r0, r4
   dacda:	4798      	blx	r3
            write("details = ", 10);
   dacdc:	6823      	ldr	r3, [r4, #0]
   dacde:	4914      	ldr	r1, [pc, #80]	; (dad30 <_ZN5spark16StreamLogHandler10logMessageEPKc8LogLevelS2_RK13LogAttributes+0x19c>)
   dace0:	68db      	ldr	r3, [r3, #12]
   dace2:	4620      	mov	r0, r4
   dace4:	220a      	movs	r2, #10
   dace6:	4798      	blx	r3
            write(attr.details);
   dace8:	69e9      	ldr	r1, [r5, #28]
   dacea:	4620      	mov	r0, r4
   dacec:	f7ff f9c8 	bl	da080 <_ZN5spark16StreamLogHandler5writeEPKc>
        write(']');
   dacf0:	215d      	movs	r1, #93	; 0x5d
   dacf2:	4620      	mov	r0, r4
   dacf4:	f7ff f9d3 	bl	da09e <_ZN5spark16StreamLogHandler5writeEc>
    write("\r\n", 2);
   dacf8:	6823      	ldr	r3, [r4, #0]
   dacfa:	490e      	ldr	r1, [pc, #56]	; (dad34 <_ZN5spark16StreamLogHandler10logMessageEPKc8LogLevelS2_RK13LogAttributes+0x1a0>)
   dacfc:	68db      	ldr	r3, [r3, #12]
   dacfe:	4620      	mov	r0, r4
   dad00:	2202      	movs	r2, #2
}
   dad02:	e8bd 47f0 	ldmia.w	sp!, {r4, r5, r6, r7, r8, r9, sl, lr}
    write("\r\n", 2);
   dad06:	4718      	bx	r3
   dad08:	000dd90b 	.word	0x000dd90b
   dad0c:	000dd912 	.word	0x000dd912
   dad10:	000dd2eb 	.word	0x000dd2eb
   dad14:	000dd915 	.word	0x000dd915
   dad18:	000dd91a 	.word	0x000dd91a
   dad1c:	2003e59c 	.word	0x2003e59c
   dad20:	000dd918 	.word	0x000dd918
   dad24:	000dd91d 	.word	0x000dd91d
   dad28:	000dd920 	.word	0x000dd920
   dad2c:	000dce9f 	.word	0x000dce9f
   dad30:	000dd928 	.word	0x000dd928
   dad34:	000dd933 	.word	0x000dd933

000dad38 <_ZN5spark20JSONStreamLogHandler10logMessageEPKc8LogLevelS2_RK13LogAttributes>:
void spark::JSONStreamLogHandler::logMessage(const char *msg, LogLevel level, const char *category, const LogAttributes &attr) {
   dad38:	e92d 43f0 	stmdb	sp!, {r4, r5, r6, r7, r8, r9, lr}
   dad3c:	b085      	sub	sp, #20
    if (this->stream() == &Serial && Network.listening()) {
   dad3e:	f8d0 9020 	ldr.w	r9, [r0, #32]
void spark::JSONStreamLogHandler::logMessage(const char *msg, LogLevel level, const char *category, const LogAttributes &attr) {
   dad42:	9c0c      	ldr	r4, [sp, #48]	; 0x30
   dad44:	4605      	mov	r5, r0
   dad46:	460f      	mov	r7, r1
   dad48:	4690      	mov	r8, r2
   dad4a:	461e      	mov	r6, r3
    if (this->stream() == &Serial && Network.listening()) {
   dad4c:	f000 ff30 	bl	dbbb0 <_Z16_fetch_usbserialv>
   dad50:	4581      	cmp	r9, r0
   dad52:	d105      	bne.n	dad60 <_ZN5spark20JSONStreamLogHandler10logMessageEPKc8LogLevelS2_RK13LogAttributes+0x28>
   dad54:	4849      	ldr	r0, [pc, #292]	; (dae7c <_ZN5spark20JSONStreamLogHandler10logMessageEPKc8LogLevelS2_RK13LogAttributes+0x144>)
   dad56:	f000 f8e0 	bl	daf1a <_ZN5spark12NetworkClass9listeningEv>
   dad5a:	2800      	cmp	r0, #0
   dad5c:	f040 808a 	bne.w	dae74 <_ZN5spark20JSONStreamLogHandler10logMessageEPKc8LogLevelS2_RK13LogAttributes+0x13c>
    JSONStreamWriter json(*this->stream());
   dad60:	6a2b      	ldr	r3, [r5, #32]
        strm_(stream) {
   dad62:	4a47      	ldr	r2, [pc, #284]	; (dae80 <_ZN5spark20JSONStreamLogHandler10logMessageEPKc8LogLevelS2_RK13LogAttributes+0x148>)
   dad64:	9201      	str	r2, [sp, #4]
        state_(BEGIN) {
   dad66:	f04f 0900 	mov.w	r9, #0
    json.beginObject();
   dad6a:	a801      	add	r0, sp, #4
        strm_(stream) {
   dad6c:	9303      	str	r3, [sp, #12]
        state_(BEGIN) {
   dad6e:	f88d 9008 	strb.w	r9, [sp, #8]
   dad72:	f7ff f878 	bl	d9e66 <_ZN5spark10JSONWriter11beginObjectEv>
   dad76:	4649      	mov	r1, r9
   dad78:	4640      	mov	r0, r8
   dad7a:	f7fd ff57 	bl	d8c2c <log_level_name>
    json.name("l", 1).value(s);
   dad7e:	4941      	ldr	r1, [pc, #260]	; (dae84 <_ZN5spark20JSONStreamLogHandler10logMessageEPKc8LogLevelS2_RK13LogAttributes+0x14c>)
   dad80:	4680      	mov	r8, r0
   dad82:	2201      	movs	r2, #1
   dad84:	a801      	add	r0, sp, #4
   dad86:	f7ff f8f7 	bl	d9f78 <_ZN5spark10JSONWriter4nameEPKcj>
   dad8a:	4641      	mov	r1, r8
   dad8c:	f7ff f96a 	bl	da064 <_ZN5spark10JSONWriter5valueEPKc>
    if (msg) {
   dad90:	b13f      	cbz	r7, dada2 <_ZN5spark20JSONStreamLogHandler10logMessageEPKc8LogLevelS2_RK13LogAttributes+0x6a>
        json.name("m", 1).value(msg);
   dad92:	493d      	ldr	r1, [pc, #244]	; (dae88 <_ZN5spark20JSONStreamLogHandler10logMessageEPKc8LogLevelS2_RK13LogAttributes+0x150>)
   dad94:	2201      	movs	r2, #1
   dad96:	a801      	add	r0, sp, #4
   dad98:	f7ff f8ee 	bl	d9f78 <_ZN5spark10JSONWriter4nameEPKcj>
   dad9c:	4639      	mov	r1, r7
   dad9e:	f7ff f961 	bl	da064 <_ZN5spark10JSONWriter5valueEPKc>
    if (category) {
   dada2:	b13e      	cbz	r6, dadb4 <_ZN5spark20JSONStreamLogHandler10logMessageEPKc8LogLevelS2_RK13LogAttributes+0x7c>
        json.name("c", 1).value(category);
   dada4:	4939      	ldr	r1, [pc, #228]	; (dae8c <_ZN5spark20JSONStreamLogHandler10logMessageEPKc8LogLevelS2_RK13LogAttributes+0x154>)
   dada6:	2201      	movs	r2, #1
   dada8:	a801      	add	r0, sp, #4
   dadaa:	f7ff f8e5 	bl	d9f78 <_ZN5spark10JSONWriter4nameEPKcj>
   dadae:	4631      	mov	r1, r6
   dadb0:	f7ff f958 	bl	da064 <_ZN5spark10JSONWriter5valueEPKc>
    if (attr.has_file) {
   dadb4:	7923      	ldrb	r3, [r4, #4]
   dadb6:	07df      	lsls	r7, r3, #31
   dadb8:	d50e      	bpl.n	dadd8 <_ZN5spark20JSONStreamLogHandler10logMessageEPKc8LogLevelS2_RK13LogAttributes+0xa0>
        s = extractFileName(attr.file); // Strip directory path
   dadba:	68a6      	ldr	r6, [r4, #8]
    const char *s1 = strrchr(s, '/');
   dadbc:	212f      	movs	r1, #47	; 0x2f
   dadbe:	4630      	mov	r0, r6
   dadc0:	f001 fe64 	bl	dca8c <strrchr>
    if (s1) {
   dadc4:	b100      	cbz	r0, dadc8 <_ZN5spark20JSONStreamLogHandler10logMessageEPKc8LogLevelS2_RK13LogAttributes+0x90>
        return s1 + 1;
   dadc6:	1c46      	adds	r6, r0, #1
        json.name("f", 1).value(s);
   dadc8:	4931      	ldr	r1, [pc, #196]	; (dae90 <_ZN5spark20JSONStreamLogHandler10logMessageEPKc8LogLevelS2_RK13LogAttributes+0x158>)
   dadca:	2201      	movs	r2, #1
   dadcc:	a801      	add	r0, sp, #4
   dadce:	f7ff f8d3 	bl	d9f78 <_ZN5spark10JSONWriter4nameEPKcj>
   dadd2:	4631      	mov	r1, r6
   dadd4:	f7ff f946 	bl	da064 <_ZN5spark10JSONWriter5valueEPKc>
    if (attr.has_line) {
   dadd8:	7923      	ldrb	r3, [r4, #4]
   dadda:	079e      	lsls	r6, r3, #30
   daddc:	d507      	bpl.n	dadee <_ZN5spark20JSONStreamLogHandler10logMessageEPKc8LogLevelS2_RK13LogAttributes+0xb6>
        json.name("ln", 2).value(attr.line);
   dadde:	492d      	ldr	r1, [pc, #180]	; (dae94 <_ZN5spark20JSONStreamLogHandler10logMessageEPKc8LogLevelS2_RK13LogAttributes+0x15c>)
   dade0:	2202      	movs	r2, #2
   dade2:	a801      	add	r0, sp, #4
   dade4:	f7ff f8c8 	bl	d9f78 <_ZN5spark10JSONWriter4nameEPKcj>
   dade8:	68e1      	ldr	r1, [r4, #12]
   dadea:	f7ff f849 	bl	d9e80 <_ZN5spark10JSONWriter5valueEi>
    if (attr.has_function) {
   dadee:	7923      	ldrb	r3, [r4, #4]
   dadf0:	0758      	lsls	r0, r3, #29
   dadf2:	d514      	bpl.n	dae1e <_ZN5spark20JSONStreamLogHandler10logMessageEPKc8LogLevelS2_RK13LogAttributes+0xe6>
        s = extractFuncName(attr.function, &n); // Strip argument and return types
   dadf4:	6926      	ldr	r6, [r4, #16]
const char* extractFuncName(const char *s, size_t *size) {
   dadf6:	4633      	mov	r3, r6
   dadf8:	461f      	mov	r7, r3
    for (; *s; ++s) {
   dadfa:	f813 2b01 	ldrb.w	r2, [r3], #1
   dadfe:	b12a      	cbz	r2, dae0c <_ZN5spark20JSONStreamLogHandler10logMessageEPKc8LogLevelS2_RK13LogAttributes+0xd4>
        if (*s == ' ') {
   dae00:	2a20      	cmp	r2, #32
   dae02:	d101      	bne.n	dae08 <_ZN5spark20JSONStreamLogHandler10logMessageEPKc8LogLevelS2_RK13LogAttributes+0xd0>
            s1 = s + 1; // Skip return type
   dae04:	461e      	mov	r6, r3
   dae06:	e7f7      	b.n	dadf8 <_ZN5spark20JSONStreamLogHandler10logMessageEPKc8LogLevelS2_RK13LogAttributes+0xc0>
        } else if (*s == '(') {
   dae08:	2a28      	cmp	r2, #40	; 0x28
   dae0a:	d1f5      	bne.n	dadf8 <_ZN5spark20JSONStreamLogHandler10logMessageEPKc8LogLevelS2_RK13LogAttributes+0xc0>
        json.name("fn", 2).value(s, n);
   dae0c:	4922      	ldr	r1, [pc, #136]	; (dae98 <_ZN5spark20JSONStreamLogHandler10logMessageEPKc8LogLevelS2_RK13LogAttributes+0x160>)
   dae0e:	2202      	movs	r2, #2
   dae10:	a801      	add	r0, sp, #4
   dae12:	f7ff f8b1 	bl	d9f78 <_ZN5spark10JSONWriter4nameEPKcj>
   dae16:	1bba      	subs	r2, r7, r6
   dae18:	4631      	mov	r1, r6
   dae1a:	f7ff f8bd 	bl	d9f98 <_ZN5spark10JSONWriter5valueEPKcj>
    if (attr.has_time) {
   dae1e:	7923      	ldrb	r3, [r4, #4]
   dae20:	0719      	lsls	r1, r3, #28
   dae22:	d507      	bpl.n	dae34 <_ZN5spark20JSONStreamLogHandler10logMessageEPKc8LogLevelS2_RK13LogAttributes+0xfc>
        json.name("t", 1).value((unsigned)attr.time);
   dae24:	491d      	ldr	r1, [pc, #116]	; (dae9c <_ZN5spark20JSONStreamLogHandler10logMessageEPKc8LogLevelS2_RK13LogAttributes+0x164>)
   dae26:	2201      	movs	r2, #1
   dae28:	a801      	add	r0, sp, #4
   dae2a:	f7ff f8a5 	bl	d9f78 <_ZN5spark10JSONWriter4nameEPKcj>
   dae2e:	6961      	ldr	r1, [r4, #20]
   dae30:	f7ff f838 	bl	d9ea4 <_ZN5spark10JSONWriter5valueEj>
    if (attr.has_code) {
   dae34:	7923      	ldrb	r3, [r4, #4]
   dae36:	06da      	lsls	r2, r3, #27
   dae38:	d508      	bpl.n	dae4c <_ZN5spark20JSONStreamLogHandler10logMessageEPKc8LogLevelS2_RK13LogAttributes+0x114>
        json.name("code", 4).value((int)attr.code);
   dae3a:	2204      	movs	r2, #4
   dae3c:	4918      	ldr	r1, [pc, #96]	; (daea0 <_ZN5spark20JSONStreamLogHandler10logMessageEPKc8LogLevelS2_RK13LogAttributes+0x168>)
   dae3e:	eb0d 0002 	add.w	r0, sp, r2
   dae42:	f7ff f899 	bl	d9f78 <_ZN5spark10JSONWriter4nameEPKcj>
   dae46:	69a1      	ldr	r1, [r4, #24]
   dae48:	f7ff f81a 	bl	d9e80 <_ZN5spark10JSONWriter5valueEi>
    if (attr.has_details) {
   dae4c:	7923      	ldrb	r3, [r4, #4]
   dae4e:	069b      	lsls	r3, r3, #26
   dae50:	d507      	bpl.n	dae62 <_ZN5spark20JSONStreamLogHandler10logMessageEPKc8LogLevelS2_RK13LogAttributes+0x12a>
        json.name("detail", 6).value(attr.details);
   dae52:	4914      	ldr	r1, [pc, #80]	; (daea4 <_ZN5spark20JSONStreamLogHandler10logMessageEPKc8LogLevelS2_RK13LogAttributes+0x16c>)
   dae54:	2206      	movs	r2, #6
   dae56:	a801      	add	r0, sp, #4
   dae58:	f7ff f88e 	bl	d9f78 <_ZN5spark10JSONWriter4nameEPKcj>
   dae5c:	69e1      	ldr	r1, [r4, #28]
   dae5e:	f7ff f901 	bl	da064 <_ZN5spark10JSONWriter5valueEPKc>
    json.endObject();
   dae62:	a801      	add	r0, sp, #4
   dae64:	f7fe ffe9 	bl	d9e3a <_ZN5spark10JSONWriter9endObjectEv>
    this->stream()->write((const uint8_t*)"\r\n", 2);
   dae68:	6a28      	ldr	r0, [r5, #32]
   dae6a:	490f      	ldr	r1, [pc, #60]	; (daea8 <_ZN5spark20JSONStreamLogHandler10logMessageEPKc8LogLevelS2_RK13LogAttributes+0x170>)
   dae6c:	6803      	ldr	r3, [r0, #0]
   dae6e:	2202      	movs	r2, #2
   dae70:	68db      	ldr	r3, [r3, #12]
   dae72:	4798      	blx	r3
}
   dae74:	b005      	add	sp, #20
   dae76:	e8bd 83f0 	ldmia.w	sp!, {r4, r5, r6, r7, r8, r9, pc}
   dae7a:	bf00      	nop
   dae7c:	2003e59c 	.word	0x2003e59c
   dae80:	000dd954 	.word	0x000dd954
   dae84:	000dd8e8 	.word	0x000dd8e8
   dae88:	000dd936 	.word	0x000dd936
   dae8c:	000dd938 	.word	0x000dd938
   dae90:	000dcd74 	.word	0x000dcd74
   dae94:	000dd93a 	.word	0x000dd93a
   dae98:	000dd93d 	.word	0x000dd93d
   dae9c:	000dd1e3 	.word	0x000dd1e3
   daea0:	000dd940 	.word	0x000dd940
   daea4:	000dd945 	.word	0x000dd945
   daea8:	000dd933 	.word	0x000dd933

000daeac <_ZN5spark12NetworkClass7connectEj>:
        return Network;
    }
}

void NetworkClass::connect(unsigned flags) {
    network_connect(*this, flags, 0, nullptr);
   daeac:	2300      	movs	r3, #0
   daeae:	6840      	ldr	r0, [r0, #4]
   daeb0:	461a      	mov	r2, r3
   daeb2:	f7fd bf75 	b.w	d8da0 <network_connect>

000daeb6 <_ZN5spark12NetworkClass10disconnectEv>:
}

void NetworkClass::disconnect() {
    network_disconnect(*this, NETWORK_DISCONNECT_REASON_USER, nullptr);
   daeb6:	6840      	ldr	r0, [r0, #4]
   daeb8:	2200      	movs	r2, #0
   daeba:	2102      	movs	r1, #2
   daebc:	f7fd bf80 	b.w	d8dc0 <network_disconnect>

000daec0 <_ZN5spark12NetworkClass10connectingEv>:
}

bool NetworkClass::connecting() {
    return network_connecting(*this, 0, nullptr);
   daec0:	2200      	movs	r2, #0
   daec2:	6840      	ldr	r0, [r0, #4]
   daec4:	4611      	mov	r1, r2
   daec6:	f7fd bf73 	b.w	d8db0 <network_connecting>

000daeca <_ZN5spark12NetworkClass5readyEv>:
}

bool NetworkClass::ready() {
    return network_ready(*this, 0, nullptr);
   daeca:	2200      	movs	r2, #0
   daecc:	6840      	ldr	r0, [r0, #4]
   daece:	4611      	mov	r1, r2
   daed0:	f7fd bf7e 	b.w	d8dd0 <network_ready>

000daed4 <_ZN5spark12NetworkClass2onEv>:
}

void NetworkClass::on() {
    network_on(*this, 0, 0, nullptr);
   daed4:	2300      	movs	r3, #0
   daed6:	6840      	ldr	r0, [r0, #4]
   daed8:	461a      	mov	r2, r3
   daeda:	4619      	mov	r1, r3
   daedc:	f7fd bf80 	b.w	d8de0 <network_on>

000daee0 <_ZN5spark12NetworkClass3offEv>:
}

void NetworkClass::off() {
    network_off(*this, 0, 0, nullptr);
   daee0:	2300      	movs	r3, #0
   daee2:	6840      	ldr	r0, [r0, #4]
   daee4:	461a      	mov	r2, r3
   daee6:	4619      	mov	r1, r3
   daee8:	f7fd bf82 	b.w	d8df0 <network_off>

000daeec <_ZN5spark12NetworkClass4isOnEv>:
}

bool NetworkClass::isOn() {
    return network_is_on(*this, nullptr);
   daeec:	6840      	ldr	r0, [r0, #4]
   daeee:	2100      	movs	r1, #0
   daef0:	f7fd bfa6 	b.w	d8e40 <network_is_on>

000daef4 <_ZN5spark12NetworkClass5isOffEv>:
}

bool NetworkClass::isOff() {
    return network_is_off(*this, nullptr);
   daef4:	6840      	ldr	r0, [r0, #4]
   daef6:	2100      	movs	r1, #0
   daef8:	f7fd bfaa 	b.w	d8e50 <network_is_off>

000daefc <_ZN5spark12NetworkClass6listenEb>:
}

void NetworkClass::listen(bool begin) {
    network_listen(*this, begin ? 0 : 1, nullptr);
   daefc:	6840      	ldr	r0, [r0, #4]
   daefe:	2200      	movs	r2, #0
   daf00:	f081 0101 	eor.w	r1, r1, #1
   daf04:	f7fd bf7c 	b.w	d8e00 <network_listen>

000daf08 <_ZN5spark12NetworkClass16setListenTimeoutEt>:
}

void NetworkClass::setListenTimeout(uint16_t timeout) {
    network_set_listen_timeout(*this, timeout, nullptr);
   daf08:	6840      	ldr	r0, [r0, #4]
   daf0a:	2200      	movs	r2, #0
   daf0c:	f7fd bf88 	b.w	d8e20 <network_set_listen_timeout>

000daf10 <_ZN5spark12NetworkClass16getListenTimeoutEv>:
}

uint16_t NetworkClass::getListenTimeout() {
    return network_get_listen_timeout(*this, 0, nullptr);
   daf10:	2200      	movs	r2, #0
   daf12:	6840      	ldr	r0, [r0, #4]
   daf14:	4611      	mov	r1, r2
   daf16:	f7fd bf8b 	b.w	d8e30 <network_get_listen_timeout>

000daf1a <_ZN5spark12NetworkClass9listeningEv>:
}

bool NetworkClass::listening() {
    return network_listening(*this, 0, nullptr);
   daf1a:	2200      	movs	r2, #0
   daf1c:	6840      	ldr	r0, [r0, #4]
   daf1e:	4611      	mov	r1, r2
   daf20:	f7fd bf76 	b.w	d8e10 <network_listening>

000daf24 <_ZN5spark12NetworkClass7resolveEPKc>:
}

IPAddress NetworkClass::resolve(const char* name) {
   daf24:	e92d 43f0 	stmdb	sp!, {r4, r5, r6, r7, r8, r9, lr}
    IPAddress addr;
#if HAL_USE_INET_HAL_POSIX
    struct addrinfo *ai = nullptr;
   daf28:	2400      	movs	r4, #0
IPAddress NetworkClass::resolve(const char* name) {
   daf2a:	b095      	sub	sp, #84	; 0x54
   daf2c:	4616      	mov	r6, r2
   daf2e:	460d      	mov	r5, r1
   daf30:	4607      	mov	r7, r0
    IPAddress addr;
   daf32:	f7fe fe23 	bl	d9b7c <_ZN9IPAddressC1Ev>
    struct addrinfo hints = {};
   daf36:	4621      	mov	r1, r4
   daf38:	2218      	movs	r2, #24
   daf3a:	a80e      	add	r0, sp, #56	; 0x38
    struct addrinfo *ai = nullptr;
   daf3c:	9400      	str	r4, [sp, #0]
    struct addrinfo hints = {};
   daf3e:	f001 fcd1 	bl	dc8e4 <memset>
    hints.ai_flags = AI_ADDRCONFIG;
   daf42:	2340      	movs	r3, #64	; 0x40
    hints.ai_family = AF_UNSPEC;
   daf44:	e9cd 340c 	strd	r3, r4, [sp, #48]	; 0x30
    const int r = getaddrinfo(name, nullptr, &hints, &ai);
   daf48:	4621      	mov	r1, r4
   daf4a:	466b      	mov	r3, sp
   daf4c:	aa0c      	add	r2, sp, #48	; 0x30
   daf4e:	4630      	mov	r0, r6
   daf50:	f7fd fd74 	bl	d8a3c <netdb_getaddrinfo>
    if (!r) {
   daf54:	4604      	mov	r4, r0
   daf56:	2800      	cmp	r0, #0
   daf58:	d146      	bne.n	dafe8 <_ZN5spark12NetworkClass7resolveEPKc+0xc4>
        bool ok = false;
        // This is not really needed if AI_ADDRCONFIG is properly supported
        bool ipv4 = network_ready(*this, NETWORK_READY_TYPE_IPV4, nullptr);
   daf5a:	4602      	mov	r2, r0
   daf5c:	2101      	movs	r1, #1
   daf5e:	6868      	ldr	r0, [r5, #4]
   daf60:	f7fd ff36 	bl	d8dd0 <network_ready>
        bool ipv6 = network_ready(*this, NETWORK_READY_TYPE_IPV6, nullptr);
   daf64:	2102      	movs	r1, #2
        bool ipv4 = network_ready(*this, NETWORK_READY_TYPE_IPV4, nullptr);
   daf66:	4680      	mov	r8, r0
        bool ipv6 = network_ready(*this, NETWORK_READY_TYPE_IPV6, nullptr);
   daf68:	4622      	mov	r2, r4
   daf6a:	6868      	ldr	r0, [r5, #4]
   daf6c:	f7fd ff30 	bl	d8dd0 <network_ready>
        for (auto cur = ai; cur != nullptr && !ok; cur = cur->ai_next) {
   daf70:	9e00      	ldr	r6, [sp, #0]
        bool ipv6 = network_ready(*this, NETWORK_READY_TYPE_IPV6, nullptr);
   daf72:	4681      	mov	r9, r0
        bool ok = false;
   daf74:	4621      	mov	r1, r4
        for (auto cur = ai; cur != nullptr && !ok; cur = cur->ai_next) {
   daf76:	2e00      	cmp	r6, #0
   daf78:	d036      	beq.n	dafe8 <_ZN5spark12NetworkClass7resolveEPKc+0xc4>
   daf7a:	2900      	cmp	r1, #0
   daf7c:	d134      	bne.n	dafe8 <_ZN5spark12NetworkClass7resolveEPKc+0xc4>
            // NOTE: using only the first entry that matches the current state of IPv4/IPv6 connectivity
            switch (cur->ai_family) {
   daf7e:	6873      	ldr	r3, [r6, #4]
   daf80:	2b02      	cmp	r3, #2
   daf82:	d003      	beq.n	daf8c <_ZN5spark12NetworkClass7resolveEPKc+0x68>
   daf84:	2b0a      	cmp	r3, #10
   daf86:	d00b      	beq.n	dafa0 <_ZN5spark12NetworkClass7resolveEPKc+0x7c>
        for (auto cur = ai; cur != nullptr && !ok; cur = cur->ai_next) {
   daf88:	69f6      	ldr	r6, [r6, #28]
   daf8a:	e7f4      	b.n	daf76 <_ZN5spark12NetworkClass7resolveEPKc+0x52>
                case AF_INET: {
                    if (!ipv4) {
   daf8c:	f1b8 0f00 	cmp.w	r8, #0
   daf90:	d004      	beq.n	daf9c <_ZN5spark12NetworkClass7resolveEPKc+0x78>
                        continue;
                    }
                    // NOTE: HAL_IPAddress is little-endian
                    auto in = (struct sockaddr_in*)cur->ai_addr;
                    addr = (const uint8_t*)(&in->sin_addr.s_addr);
   daf92:	6971      	ldr	r1, [r6, #20]
   daf94:	4638      	mov	r0, r7
   daf96:	3104      	adds	r1, #4
   daf98:	f7fe fe1d 	bl	d9bd6 <_ZN9IPAddressaSEPKh>
                    ok = true;
                    break;
   daf9c:	4641      	mov	r1, r8
   daf9e:	e7f3      	b.n	daf88 <_ZN5spark12NetworkClass7resolveEPKc+0x64>
                }
                case AF_INET6: {
                    if (!ipv6) {
   dafa0:	f1b9 0f00 	cmp.w	r9, #0
   dafa4:	d101      	bne.n	dafaa <_ZN5spark12NetworkClass7resolveEPKc+0x86>
                    auto in6 = (struct sockaddr_in6*)cur->ai_addr;
                    HAL_IPAddress a = {};
                    a.v = 6;
                    memcpy(a.ipv6, in6->sin6_addr.s6_addr, sizeof(a.ipv6));
                    addr = IPAddress(a);
                    ok = true;
   dafa6:	4649      	mov	r1, r9
   dafa8:	e7ee      	b.n	daf88 <_ZN5spark12NetworkClass7resolveEPKc+0x64>
                    auto in6 = (struct sockaddr_in6*)cur->ai_addr;
   dafaa:	6974      	ldr	r4, [r6, #20]
                    HAL_IPAddress a = {};
   dafac:	2210      	movs	r2, #16
   dafae:	a801      	add	r0, sp, #4
   dafb0:	f001 fc98 	bl	dc8e4 <memset>
                    a.v = 6;
   dafb4:	2306      	movs	r3, #6
   dafb6:	f88d 3014 	strb.w	r3, [sp, #20]
                    memcpy(a.ipv6, in6->sin6_addr.s6_addr, sizeof(a.ipv6));
   dafba:	ad01      	add	r5, sp, #4
   dafbc:	f104 0308 	add.w	r3, r4, #8
   dafc0:	3418      	adds	r4, #24
   dafc2:	6818      	ldr	r0, [r3, #0]
   dafc4:	6859      	ldr	r1, [r3, #4]
   dafc6:	462a      	mov	r2, r5
   dafc8:	c203      	stmia	r2!, {r0, r1}
   dafca:	3308      	adds	r3, #8
   dafcc:	42a3      	cmp	r3, r4
   dafce:	4615      	mov	r5, r2
   dafd0:	d1f7      	bne.n	dafc2 <_ZN5spark12NetworkClass7resolveEPKc+0x9e>
                    addr = IPAddress(a);
   dafd2:	a901      	add	r1, sp, #4
   dafd4:	a806      	add	r0, sp, #24
class IPAddress : public Printable {
   dafd6:	ad07      	add	r5, sp, #28
   dafd8:	f7fe fdde 	bl	d9b98 <_ZN9IPAddressC1ERK16_HAL_IPAddress_t>
   dafdc:	cd0f      	ldmia	r5!, {r0, r1, r2, r3}
   dafde:	1d3c      	adds	r4, r7, #4
   dafe0:	c40f      	stmia	r4!, {r0, r1, r2, r3}
   dafe2:	682b      	ldr	r3, [r5, #0]
   dafe4:	7023      	strb	r3, [r4, #0]
   dafe6:	e7de      	b.n	dafa6 <_ZN5spark12NetworkClass7resolveEPKc+0x82>
                    break;
                }
            }
        }
    }
    freeaddrinfo(ai);
   dafe8:	9800      	ldr	r0, [sp, #0]
   dafea:	f7fd fd1f 	bl	d8a2c <netdb_freeaddrinfo>
    return Cellular.resolve(name);
#endif // Wiring_Cellular

#endif // HAL_USE_INET_HAL_POSIX
    return addr;
}
   dafee:	4638      	mov	r0, r7
   daff0:	b015      	add	sp, #84	; 0x54
   daff2:	e8bd 83f0 	ldmia.w	sp!, {r4, r5, r6, r7, r8, r9, pc}
	...

000daff8 <_GLOBAL__sub_I__ZN5spark7NetworkE>:
   daff8:	4b02      	ldr	r3, [pc, #8]	; (db004 <_GLOBAL__sub_I__ZN5spark7NetworkE+0xc>)
   daffa:	4a03      	ldr	r2, [pc, #12]	; (db008 <_GLOBAL__sub_I__ZN5spark7NetworkE+0x10>)
   daffc:	601a      	str	r2, [r3, #0]
   daffe:	2200      	movs	r2, #0
   db000:	605a      	str	r2, [r3, #4]

} // spark
   db002:	4770      	bx	lr
   db004:	2003e59c 	.word	0x2003e59c
   db008:	000dd9cc 	.word	0x000dd9cc

000db00c <_ZN4PMIC4lockEv.constprop.0>:
    pmicWireInstance()->write(address);
    pmicWireInstance()->write(DATA);
    pmicWireInstance()->endTransmission(true);
}

bool PMIC::lock() {
   db00c:	b508      	push	{r3, lr}
            return &Wire1;
   db00e:	f000 ff91 	bl	dbf34 <_Z20__fetch_global_Wire1v>
    return pmicWireInstance()->lock();
}
   db012:	e8bd 4008 	ldmia.w	sp!, {r3, lr}
    return pmicWireInstance()->lock();
   db016:	f7fe bd39 	b.w	d9a8c <_ZN7TwoWire4lockEv>

000db01a <_ZN4PMICC1Eb>:
PMIC::PMIC(bool _lock) :
   db01a:	b510      	push	{r4, lr}
   db01c:	4604      	mov	r4, r0
    lock_(_lock)
   db01e:	7001      	strb	r1, [r0, #0]
    if (lock_) {
   db020:	b109      	cbz	r1, db026 <_ZN4PMICC1Eb+0xc>
        lock();
   db022:	f7ff fff3 	bl	db00c <_ZN4PMIC4lockEv.constprop.0>
}
   db026:	4620      	mov	r0, r4
   db028:	bd10      	pop	{r4, pc}

000db02a <_ZN4PMIC6unlockEv>:

bool PMIC::unlock() {
   db02a:	b508      	push	{r3, lr}
            return &Wire1;
   db02c:	f000 ff82 	bl	dbf34 <_Z20__fetch_global_Wire1v>
    return pmicWireInstance()->unlock();
}
   db030:	e8bd 4008 	ldmia.w	sp!, {r3, lr}
    return pmicWireInstance()->unlock();
   db034:	f7fe bd33 	b.w	d9a9e <_ZN7TwoWire6unlockEv>

000db038 <_ZN4PMICD1Ev>:
PMIC::~PMIC()
   db038:	b510      	push	{r4, lr}
    if (lock_) {
   db03a:	7803      	ldrb	r3, [r0, #0]
PMIC::~PMIC()
   db03c:	4604      	mov	r4, r0
    if (lock_) {
   db03e:	b10b      	cbz	r3, db044 <_ZN4PMICD1Ev+0xc>
        unlock();
   db040:	f7ff fff3 	bl	db02a <_ZN4PMIC6unlockEv>
}
   db044:	4620      	mov	r0, r4
   db046:	bd10      	pop	{r4, pc}

000db048 <_ZNSt10lock_guardI4PMICED1Ev>:
      ~lock_guard()
   db048:	b510      	push	{r4, lr}
   db04a:	4604      	mov	r4, r0
      { _M_device.unlock(); }
   db04c:	6800      	ldr	r0, [r0, #0]
   db04e:	f7ff ffec 	bl	db02a <_ZN4PMIC6unlockEv>
   db052:	4620      	mov	r0, r4
   db054:	bd10      	pop	{r4, pc}

000db056 <_ZN4PMIC12readRegisterEh>:
byte PMIC::readRegister(byte startAddress) {
   db056:	b530      	push	{r4, r5, lr}
   db058:	b087      	sub	sp, #28
   db05a:	460d      	mov	r5, r1
      explicit lock_guard(mutex_type& __m) : _M_device(__m)
   db05c:	9001      	str	r0, [sp, #4]
      { _M_device.lock(); }
   db05e:	f7ff ffd5 	bl	db00c <_ZN4PMIC4lockEv.constprop.0>
        timeout_{HAL_I2C_DEFAULT_TIMEOUT_MS} {
   db062:	236b      	movs	r3, #107	; 0x6b
   db064:	f88d 3008 	strb.w	r3, [sp, #8]
   db068:	2300      	movs	r3, #0
   db06a:	2401      	movs	r4, #1
   db06c:	9303      	str	r3, [sp, #12]
    timeout_ = ms;
   db06e:	230a      	movs	r3, #10
   db070:	9305      	str	r3, [sp, #20]
        timeout_{HAL_I2C_DEFAULT_TIMEOUT_MS} {
   db072:	f88d 4010 	strb.w	r4, [sp, #16]
            return &Wire1;
   db076:	f000 ff5d 	bl	dbf34 <_Z20__fetch_global_Wire1v>
    pmicWireInstance()->beginTransmission(config);
   db07a:	a902      	add	r1, sp, #8
   db07c:	f7fe fcea 	bl	d9a54 <_ZN7TwoWire17beginTransmissionERK16WireTransmission>
            return &Wire1;
   db080:	f000 ff58 	bl	dbf34 <_Z20__fetch_global_Wire1v>
    pmicWireInstance()->write(startAddress);
   db084:	6803      	ldr	r3, [r0, #0]
   db086:	4629      	mov	r1, r5
   db088:	689b      	ldr	r3, [r3, #8]
   db08a:	4798      	blx	r3
            return &Wire1;
   db08c:	f000 ff52 	bl	dbf34 <_Z20__fetch_global_Wire1v>
    pmicWireInstance()->endTransmission(true);
   db090:	4621      	mov	r1, r4
   db092:	f7fe fcf7 	bl	d9a84 <_ZN7TwoWire15endTransmissionEh>
    size_ = size;
   db096:	9403      	str	r4, [sp, #12]
            return &Wire1;
   db098:	f000 ff4c 	bl	dbf34 <_Z20__fetch_global_Wire1v>
    pmicWireInstance()->requestFrom(config);
   db09c:	a902      	add	r1, sp, #8
   db09e:	f7fe fca9 	bl	d99f4 <_ZN7TwoWire11requestFromERK16WireTransmission>
            return &Wire1;
   db0a2:	f000 ff47 	bl	dbf34 <_Z20__fetch_global_Wire1v>
    DATA = pmicWireInstance()->read();
   db0a6:	6803      	ldr	r3, [r0, #0]
   db0a8:	695b      	ldr	r3, [r3, #20]
   db0aa:	4798      	blx	r3
   db0ac:	4604      	mov	r4, r0
    std::lock_guard<PMIC> l(*this);
   db0ae:	a801      	add	r0, sp, #4
   db0b0:	f7ff ffca 	bl	db048 <_ZNSt10lock_guardI4PMICED1Ev>
}
   db0b4:	b2e0      	uxtb	r0, r4
   db0b6:	b007      	add	sp, #28
   db0b8:	bd30      	pop	{r4, r5, pc}

000db0ba <_ZN4PMIC13writeRegisterEhh>:
void PMIC::writeRegister(byte address, byte DATA) {
   db0ba:	b570      	push	{r4, r5, r6, lr}
   db0bc:	b086      	sub	sp, #24
   db0be:	4614      	mov	r4, r2
   db0c0:	460d      	mov	r5, r1
      explicit lock_guard(mutex_type& __m) : _M_device(__m)
   db0c2:	9001      	str	r0, [sp, #4]
      { _M_device.lock(); }
   db0c4:	f7ff ffa2 	bl	db00c <_ZN4PMIC4lockEv.constprop.0>
        timeout_{HAL_I2C_DEFAULT_TIMEOUT_MS} {
   db0c8:	236b      	movs	r3, #107	; 0x6b
   db0ca:	f88d 3008 	strb.w	r3, [sp, #8]
   db0ce:	2300      	movs	r3, #0
   db0d0:	9303      	str	r3, [sp, #12]
   db0d2:	2601      	movs	r6, #1
    timeout_ = ms;
   db0d4:	230a      	movs	r3, #10
   db0d6:	9305      	str	r3, [sp, #20]
        timeout_{HAL_I2C_DEFAULT_TIMEOUT_MS} {
   db0d8:	f88d 6010 	strb.w	r6, [sp, #16]
            return &Wire1;
   db0dc:	f000 ff2a 	bl	dbf34 <_Z20__fetch_global_Wire1v>
    pmicWireInstance()->beginTransmission(config);
   db0e0:	a902      	add	r1, sp, #8
   db0e2:	f7fe fcb7 	bl	d9a54 <_ZN7TwoWire17beginTransmissionERK16WireTransmission>
            return &Wire1;
   db0e6:	f000 ff25 	bl	dbf34 <_Z20__fetch_global_Wire1v>
    pmicWireInstance()->write(address);
   db0ea:	6803      	ldr	r3, [r0, #0]
   db0ec:	4629      	mov	r1, r5
   db0ee:	689b      	ldr	r3, [r3, #8]
   db0f0:	4798      	blx	r3
            return &Wire1;
   db0f2:	f000 ff1f 	bl	dbf34 <_Z20__fetch_global_Wire1v>
    pmicWireInstance()->write(DATA);
   db0f6:	6803      	ldr	r3, [r0, #0]
   db0f8:	4621      	mov	r1, r4
   db0fa:	689b      	ldr	r3, [r3, #8]
   db0fc:	4798      	blx	r3
            return &Wire1;
   db0fe:	f000 ff19 	bl	dbf34 <_Z20__fetch_global_Wire1v>
    pmicWireInstance()->endTransmission(true);
   db102:	4631      	mov	r1, r6
   db104:	f7fe fcbe 	bl	d9a84 <_ZN7TwoWire15endTransmissionEh>
    std::lock_guard<PMIC> l(*this);
   db108:	a801      	add	r0, sp, #4
   db10a:	f7ff ff9d 	bl	db048 <_ZNSt10lock_guardI4PMICED1Ev>
}
   db10e:	b006      	add	sp, #24
   db110:	bd70      	pop	{r4, r5, r6, pc}

000db112 <_ZN4PMIC14enableChargingEv>:
bool PMIC::enableCharging() {
   db112:	b513      	push	{r0, r1, r4, lr}
   db114:	4604      	mov	r4, r0
      explicit lock_guard(mutex_type& __m) : _M_device(__m)
   db116:	9001      	str	r0, [sp, #4]
      { _M_device.lock(); }
   db118:	f7ff ff78 	bl	db00c <_ZN4PMIC4lockEv.constprop.0>
    byte DATA = readRegister(POWERON_CONFIG_REGISTER);
   db11c:	2101      	movs	r1, #1
   db11e:	4620      	mov	r0, r4
   db120:	f7ff ff99 	bl	db056 <_ZN4PMIC12readRegisterEh>
    DATA = DATA & 0b11001111;
   db124:	f000 00cf 	and.w	r0, r0, #207	; 0xcf
    writeRegister(POWERON_CONFIG_REGISTER, DATA);
   db128:	f040 0210 	orr.w	r2, r0, #16
   db12c:	2101      	movs	r1, #1
   db12e:	4620      	mov	r0, r4
   db130:	f7ff ffc3 	bl	db0ba <_ZN4PMIC13writeRegisterEhh>
    std::lock_guard<PMIC> l(*this);
   db134:	a801      	add	r0, sp, #4
   db136:	f7ff ff87 	bl	db048 <_ZNSt10lock_guardI4PMICED1Ev>
}
   db13a:	2001      	movs	r0, #1
   db13c:	b002      	add	sp, #8
   db13e:	bd10      	pop	{r4, pc}

000db140 <_ZN4PMIC15disableChargingEv>:
bool PMIC::disableCharging() {
   db140:	b513      	push	{r0, r1, r4, lr}
   db142:	4604      	mov	r4, r0
      explicit lock_guard(mutex_type& __m) : _M_device(__m)
   db144:	9001      	str	r0, [sp, #4]
      { _M_device.lock(); }
   db146:	f7ff ff61 	bl	db00c <_ZN4PMIC4lockEv.constprop.0>
    byte DATA = readRegister(POWERON_CONFIG_REGISTER);
   db14a:	2101      	movs	r1, #1
   db14c:	4620      	mov	r0, r4
   db14e:	f7ff ff82 	bl	db056 <_ZN4PMIC12readRegisterEh>
    writeRegister(POWERON_CONFIG_REGISTER, (DATA & 0b11001111));
   db152:	2101      	movs	r1, #1
   db154:	f000 02cf 	and.w	r2, r0, #207	; 0xcf
   db158:	4620      	mov	r0, r4
   db15a:	f7ff ffae 	bl	db0ba <_ZN4PMIC13writeRegisterEhh>
    std::lock_guard<PMIC> l(*this);
   db15e:	a801      	add	r0, sp, #4
   db160:	f7ff ff72 	bl	db048 <_ZNSt10lock_guardI4PMICED1Ev>
}
   db164:	2001      	movs	r0, #1
   db166:	b002      	add	sp, #8
   db168:	bd10      	pop	{r4, pc}

000db16a <_ZN5Print5writeEPKhj>:

// Public Methods //////////////////////////////////////////////////////////////

/* default implementation: may be overridden */
size_t Print::write(const uint8_t *buffer, size_t size)
{
   db16a:	b5f8      	push	{r3, r4, r5, r6, r7, lr}
   db16c:	4606      	mov	r6, r0
   db16e:	460d      	mov	r5, r1
  size_t n = 0;
   db170:	188f      	adds	r7, r1, r2
   db172:	2400      	movs	r4, #0
  while (size--) {
   db174:	42bd      	cmp	r5, r7
   db176:	d00c      	beq.n	db192 <_ZN5Print5writeEPKhj+0x28>
     int chunk = write(*buffer++);
   db178:	6833      	ldr	r3, [r6, #0]
   db17a:	f815 1b01 	ldrb.w	r1, [r5], #1
   db17e:	689b      	ldr	r3, [r3, #8]
   db180:	4630      	mov	r0, r6
   db182:	4798      	blx	r3
     if (chunk>=0)
   db184:	1e03      	subs	r3, r0, #0
   db186:	db01      	blt.n	db18c <_ZN5Print5writeEPKhj+0x22>
         n += chunk;
   db188:	441c      	add	r4, r3
  while (size--) {
   db18a:	e7f3      	b.n	db174 <_ZN5Print5writeEPKhj+0xa>
     int chunk = write(*buffer++);
   db18c:	2c00      	cmp	r4, #0
   db18e:	bf08      	it	eq
   db190:	461c      	moveq	r4, r3
             n = chunk;
         break;
     }
  }
  return n;
}
   db192:	4620      	mov	r0, r4
   db194:	bdf8      	pop	{r3, r4, r5, r6, r7, pc}

000db196 <_ZN5Print5writeEPKc>:
    size_t write(const char *str) {
   db196:	b513      	push	{r0, r1, r4, lr}
   db198:	4604      	mov	r4, r0
    }
   db19a:	4608      	mov	r0, r1
      if (str == NULL) return 0;
   db19c:	b159      	cbz	r1, db1b6 <_ZN5Print5writeEPKc+0x20>
      return write((const uint8_t *)str, strlen(str));
   db19e:	9101      	str	r1, [sp, #4]
   db1a0:	f001 fc47 	bl	dca32 <strlen>
   db1a4:	6823      	ldr	r3, [r4, #0]
   db1a6:	9901      	ldr	r1, [sp, #4]
   db1a8:	68db      	ldr	r3, [r3, #12]
   db1aa:	4602      	mov	r2, r0
   db1ac:	4620      	mov	r0, r4
    }
   db1ae:	b002      	add	sp, #8
   db1b0:	e8bd 4010 	ldmia.w	sp!, {r4, lr}
      return write((const uint8_t *)str, strlen(str));
   db1b4:	4718      	bx	r3
    }
   db1b6:	b002      	add	sp, #8
   db1b8:	bd10      	pop	{r4, pc}

000db1ba <_ZN5Print5printEPKc>:

size_t Print::print(const char str[])
{
   db1ba:	b508      	push	{r3, lr}
  return write(str);
   db1bc:	f7ff ffeb 	bl	db196 <_ZN5Print5writeEPKc>
}
   db1c0:	bd08      	pop	{r3, pc}

000db1c2 <_ZN5Print5printEc>:

size_t Print::print(char c)
{
  return write(c);
   db1c2:	6803      	ldr	r3, [r0, #0]
   db1c4:	689b      	ldr	r3, [r3, #8]
   db1c6:	4718      	bx	r3

000db1c8 <_ZN5Print7printlnEv>:
{
  return print(reinterpret_cast<const char*>(str));
}

size_t Print::println(void)
{
   db1c8:	b538      	push	{r3, r4, r5, lr}
  size_t n = print('\r');
   db1ca:	210d      	movs	r1, #13
{
   db1cc:	4605      	mov	r5, r0
  size_t n = print('\r');
   db1ce:	f7ff fff8 	bl	db1c2 <_ZN5Print5printEc>
  n += print('\n');
   db1d2:	210a      	movs	r1, #10
  size_t n = print('\r');
   db1d4:	4604      	mov	r4, r0
  n += print('\n');
   db1d6:	4628      	mov	r0, r5
   db1d8:	f7ff fff3 	bl	db1c2 <_ZN5Print5printEc>
  return n;
}
   db1dc:	4420      	add	r0, r4
   db1de:	bd38      	pop	{r3, r4, r5, pc}

000db1e0 <_ZN5Print11printNumberEmh>:
  return println(reinterpret_cast<const char*>(str));
}

// Private Methods /////////////////////////////////////////////////////////////

size_t Print::printNumber(unsigned long n, uint8_t base) {
   db1e0:	b530      	push	{r4, r5, lr}
   db1e2:	b08b      	sub	sp, #44	; 0x2c
  char buf[8 * sizeof(n) + 1]; // Assumes 8-bit chars plus zero byte.
  char *str = &buf[sizeof(buf) - 1];

  *str = '\0';
   db1e4:	2300      	movs	r3, #0
   db1e6:	f88d 3024 	strb.w	r3, [sp, #36]	; 0x24

  // prevent crash if called with base == 1
  if (base < 2) base = 10;
   db1ea:	2a01      	cmp	r2, #1
   db1ec:	bf98      	it	ls
   db1ee:	220a      	movls	r2, #10
   db1f0:	ac09      	add	r4, sp, #36	; 0x24

  do {
   decltype(n) m = n;
   n /= base;
   db1f2:	460d      	mov	r5, r1
   db1f4:	fbb1 f1f2 	udiv	r1, r1, r2
   char c = m - base * n;
   db1f8:	fb01 5312 	mls	r3, r1, r2, r5
   db1fc:	f003 03ff 	and.w	r3, r3, #255	; 0xff
   *--str = c < 10 ? c + '0' : c + 'A' - 10;
   db200:	2b09      	cmp	r3, #9
   db202:	bf94      	ite	ls
   db204:	3330      	addls	r3, #48	; 0x30
   db206:	3337      	addhi	r3, #55	; 0x37
   db208:	b2db      	uxtb	r3, r3
  } while(n);
   db20a:	42aa      	cmp	r2, r5
   *--str = c < 10 ? c + '0' : c + 'A' - 10;
   db20c:	f804 3d01 	strb.w	r3, [r4, #-1]!
  } while(n);
   db210:	d9ef      	bls.n	db1f2 <_ZN5Print11printNumberEmh+0x12>

  return write(str);
   db212:	4621      	mov	r1, r4
   db214:	f7ff ffbf 	bl	db196 <_ZN5Print5writeEPKc>
}
   db218:	b00b      	add	sp, #44	; 0x2c
   db21a:	bd30      	pop	{r4, r5, pc}

000db21c <_ZN5Print7vprintfEbPKcSt9__va_list>:

  return n;
}

size_t Print::vprintf(bool newline, const char* format, va_list args)
{
   db21c:	e92d 41f0 	stmdb	sp!, {r4, r5, r6, r7, r8, lr}
   db220:	b086      	sub	sp, #24
   db222:	af00      	add	r7, sp, #0
   db224:	4605      	mov	r5, r0
   db226:	460e      	mov	r6, r1
    const int bufsize = 20;
    char test[bufsize];
    va_list args2;
    va_copy(args2, args);
    size_t n = vsnprintf(test, bufsize, format, args);
   db228:	1d38      	adds	r0, r7, #4
   db22a:	2114      	movs	r1, #20
{
   db22c:	4614      	mov	r4, r2
    va_copy(args2, args);
   db22e:	603b      	str	r3, [r7, #0]
    size_t n = vsnprintf(test, bufsize, format, args);
   db230:	f7fd fe46 	bl	d8ec0 <vsnprintf>

    if (n<bufsize)
   db234:	2813      	cmp	r0, #19
   db236:	d80e      	bhi.n	db256 <_ZN5Print7vprintfEbPKcSt9__va_list+0x3a>
  return write(str);
   db238:	1d39      	adds	r1, r7, #4
   db23a:	4628      	mov	r0, r5
   db23c:	f7ff ffab 	bl	db196 <_ZN5Print5writeEPKc>
   db240:	4604      	mov	r4, r0
    {
        char bigger[n+1];
        n = vsnprintf(bigger, n+1, format, args2);
        n = print(bigger);
    }
    if (newline)
   db242:	b11e      	cbz	r6, db24c <_ZN5Print7vprintfEbPKcSt9__va_list+0x30>
        n += println();
   db244:	4628      	mov	r0, r5
   db246:	f7ff ffbf 	bl	db1c8 <_ZN5Print7printlnEv>
   db24a:	4404      	add	r4, r0

    va_end(args2);
    return n;
}
   db24c:	4620      	mov	r0, r4
   db24e:	3718      	adds	r7, #24
   db250:	46bd      	mov	sp, r7
   db252:	e8bd 81f0 	ldmia.w	sp!, {r4, r5, r6, r7, r8, pc}
        char bigger[n+1];
   db256:	f100 0308 	add.w	r3, r0, #8
   db25a:	f023 0307 	bic.w	r3, r3, #7
        n = print(bigger);
   db25e:	46e8      	mov	r8, sp
        char bigger[n+1];
   db260:	ebad 0d03 	sub.w	sp, sp, r3
        n = vsnprintf(bigger, n+1, format, args2);
   db264:	4622      	mov	r2, r4
   db266:	1c41      	adds	r1, r0, #1
   db268:	683b      	ldr	r3, [r7, #0]
   db26a:	4668      	mov	r0, sp
   db26c:	f7fd fe28 	bl	d8ec0 <vsnprintf>
  return write(str);
   db270:	4669      	mov	r1, sp
   db272:	4628      	mov	r0, r5
   db274:	f7ff ff8f 	bl	db196 <_ZN5Print5writeEPKc>
   db278:	4604      	mov	r4, r0
   db27a:	46c5      	mov	sp, r8
   db27c:	e7e1      	b.n	db242 <_ZN5Print7vprintfEbPKcSt9__va_list+0x26>

000db27e <_Z6randomi>:
#include "spark_wiring_random.h"
#include <stdlib.h>

int random(int max)
{
   db27e:	b510      	push	{r4, lr}
  if (0 == max) {
   db280:	4604      	mov	r4, r0
   db282:	b128      	cbz	r0, db290 <_Z6randomi+0x12>
    return 0;
  }
  return rand() % max;
   db284:	f001 fb5a 	bl	dc93c <rand>
   db288:	fb90 f3f4 	sdiv	r3, r0, r4
   db28c:	fb03 0414 	mls	r4, r3, r4, r0
}
   db290:	4620      	mov	r0, r4
   db292:	bd10      	pop	{r4, pc}

000db294 <_Z6randomii>:

int random(int min, int max)
{
  if (min >= max) {
   db294:	4288      	cmp	r0, r1
{
   db296:	b510      	push	{r4, lr}
   db298:	4604      	mov	r4, r0
  if (min >= max) {
   db29a:	da03      	bge.n	db2a4 <_Z6randomii+0x10>
    return min;
  }
  return random(max - min) + min;
   db29c:	1a08      	subs	r0, r1, r0
   db29e:	f7ff ffee 	bl	db27e <_Z6randomi>
   db2a2:	4404      	add	r4, r0
}
   db2a4:	4620      	mov	r0, r4
   db2a6:	bd10      	pop	{r4, pc}

000db2a8 <_GLOBAL__sub_I_RGB>:
    _Function_base() : _M_manager(nullptr) { }
   db2a8:	4b01      	ldr	r3, [pc, #4]	; (db2b0 <_GLOBAL__sub_I_RGB+0x8>)
   db2aa:	2200      	movs	r2, #0
   db2ac:	609a      	str	r2, [r3, #8]
{
    RGBClass* const d = static_cast<RGBClass*>(data);
    if (d->changeHandler_) {
        d->changeHandler_(r, g, b);
    }
}
   db2ae:	4770      	bx	lr
   db2b0:	2003e5a4 	.word	0x2003e5a4

000db2b4 <_ZN8SPIClass4lockEv.isra.0>:
  }

  int lock()
  {
#if HAL_PLATFORM_SPI_HAL_THREAD_SAFETY
    return hal_spi_acquire(_spi, nullptr);
   db2b4:	2100      	movs	r1, #0
   db2b6:	f7fd bc01 	b.w	d8abc <hal_spi_acquire>

000db2ba <_ZN8SPIClass6unlockEv.isra.0>:
  }

  void unlock()
  {
#if HAL_PLATFORM_SPI_HAL_THREAD_SAFETY
    hal_spi_release(_spi, nullptr);
   db2ba:	2100      	movs	r1, #0
   db2bc:	f7fd bc06 	b.w	d8acc <hal_spi_release>

000db2c0 <_ZN8SPIClassC1E19hal_spi_interface_t>:
    }
    return particle::SPISettings(info->clock, info->bit_order, info->data_mode);
}
} // namespace

SPIClass::SPIClass(hal_spi_interface_t spi)
   db2c0:	b510      	push	{r4, lr}
   db2c2:	4604      	mov	r4, r0
   db2c4:	4608      	mov	r0, r1
{
    _spi = spi;
   db2c6:	7021      	strb	r1, [r4, #0]
    hal_spi_init(_spi);
   db2c8:	f7fd fbd8 	bl	d8a7c <hal_spi_init>
    _dividerReference = SPI_CLK_SYSTEM; // 0 indicates the system clock
   db2cc:	2300      	movs	r3, #0
   db2ce:	6063      	str	r3, [r4, #4]
}
   db2d0:	4620      	mov	r0, r4
   db2d2:	bd10      	pop	{r4, pc}

000db2d4 <_ZN8SPIClass5beginEv>:

void SPIClass::begin()
{
   db2d4:	b510      	push	{r4, lr}
   db2d6:	4604      	mov	r4, r0
    // TODO: Fetch default pin from HAL
    if (!lock())
   db2d8:	7800      	ldrb	r0, [r0, #0]
   db2da:	f7ff ffeb 	bl	db2b4 <_ZN8SPIClass4lockEv.isra.0>
   db2de:	b948      	cbnz	r0, db2f4 <_ZN8SPIClass5beginEv+0x20>
    {
        hal_spi_begin(_spi, SPI_DEFAULT_SS);
   db2e0:	7820      	ldrb	r0, [r4, #0]
   db2e2:	f64f 71ff 	movw	r1, #65535	; 0xffff
   db2e6:	f7fd fbb1 	bl	d8a4c <hal_spi_begin>
        unlock();
   db2ea:	7820      	ldrb	r0, [r4, #0]
    }
}
   db2ec:	e8bd 4010 	ldmia.w	sp!, {r4, lr}
        unlock();
   db2f0:	f7ff bfe3 	b.w	db2ba <_ZN8SPIClass6unlockEv.isra.0>
}
   db2f4:	bd10      	pop	{r4, pc}

000db2f6 <_ZN8SPIClass3endEv>:
        unlock();
    }
}

void SPIClass::end()
{
   db2f6:	b510      	push	{r4, lr}
   db2f8:	4604      	mov	r4, r0
    if (!lock())
   db2fa:	7800      	ldrb	r0, [r0, #0]
   db2fc:	f7ff ffda 	bl	db2b4 <_ZN8SPIClass4lockEv.isra.0>
   db300:	b938      	cbnz	r0, db312 <_ZN8SPIClass3endEv+0x1c>
    {
        hal_spi_end(_spi);
   db302:	7820      	ldrb	r0, [r4, #0]
   db304:	f7fd fbaa 	bl	d8a5c <hal_spi_end>
        unlock();
   db308:	7820      	ldrb	r0, [r4, #0]
    }
}
   db30a:	e8bd 4010 	ldmia.w	sp!, {r4, lr}
        unlock();
   db30e:	f7ff bfd4 	b.w	db2ba <_ZN8SPIClass6unlockEv.isra.0>
}
   db312:	bd10      	pop	{r4, pc}

000db314 <_ZN8SPIClass14endTransactionEv>:
}

void SPIClass::endTransaction()
{
    // Release peripheral
    unlock();
   db314:	7800      	ldrb	r0, [r0, #0]
   db316:	f7ff bfd0 	b.w	db2ba <_ZN8SPIClass6unlockEv.isra.0>
	...

000db31c <_ZN8SPIClass19computeClockDividerEjjRhRj>:
void SPIClass::computeClockDivider(unsigned reference, unsigned targetSpeed, uint8_t& divider,
                                   unsigned& clock)
{
    clock = reference;
    uint8_t scale = 0;
    clock >>= 1; // div2 is the first
   db31c:	0840      	lsrs	r0, r0, #1
{
   db31e:	b530      	push	{r4, r5, lr}
    clock >>= 1; // div2 is the first
   db320:	6018      	str	r0, [r3, #0]
   db322:	2400      	movs	r4, #0
    while (clock > targetSpeed && scale < 7)
   db324:	6818      	ldr	r0, [r3, #0]
   db326:	4288      	cmp	r0, r1
   db328:	b2e5      	uxtb	r5, r4
   db32a:	d906      	bls.n	db33a <_ZN8SPIClass19computeClockDividerEjjRhRj+0x1e>
   db32c:	3401      	adds	r4, #1
   db32e:	2c08      	cmp	r4, #8
   db330:	d002      	beq.n	db338 <_ZN8SPIClass19computeClockDividerEjjRhRj+0x1c>
    {
        clock >>= 1;
   db332:	0840      	lsrs	r0, r0, #1
   db334:	6018      	str	r0, [r3, #0]
    while (clock > targetSpeed && scale < 7)
   db336:	e7f5      	b.n	db324 <_ZN8SPIClass19computeClockDividerEjjRhRj+0x8>
   db338:	2507      	movs	r5, #7
        scale++;
    }
    divider = clock_divisors[scale];
   db33a:	4b02      	ldr	r3, [pc, #8]	; (db344 <_ZN8SPIClass19computeClockDividerEjjRhRj+0x28>)
   db33c:	5d5b      	ldrb	r3, [r3, r5]
   db33e:	7013      	strb	r3, [r2, #0]
}
   db340:	bd30      	pop	{r4, r5, pc}
   db342:	bf00      	nop
   db344:	000dda00 	.word	0x000dda00

000db348 <_ZN8SPIClass16beginTransactionERKN8particle11SPISettingsE>:
{
   db348:	e92d 43f0 	stmdb	sp!, {r4, r5, r6, r7, r8, r9, lr}
   db34c:	4606      	mov	r6, r0
   db34e:	b08f      	sub	sp, #60	; 0x3c
    CHECK(lock());
   db350:	7800      	ldrb	r0, [r0, #0]
{
   db352:	460c      	mov	r4, r1
    CHECK(lock());
   db354:	f7ff ffae 	bl	db2b4 <_ZN8SPIClass4lockEv.isra.0>
   db358:	2800      	cmp	r0, #0
   db35a:	db1b      	blt.n	db394 <_ZN8SPIClass16beginTransactionERKN8particle11SPISettingsE+0x4c>
    querySpiInfo(_spi, &spi_info);
   db35c:	7835      	ldrb	r5, [r6, #0]
    memset(info, 0, sizeof(hal_spi_info_t));
   db35e:	2214      	movs	r2, #20
   db360:	2100      	movs	r1, #0
   db362:	a809      	add	r0, sp, #36	; 0x24
   db364:	f001 fabe 	bl	dc8e4 <memset>
    info->version = HAL_SPI_INFO_VERSION_1;
   db368:	230b      	movs	r3, #11
    hal_spi_info(spi, info, nullptr);
   db36a:	2200      	movs	r2, #0
   db36c:	a909      	add	r1, sp, #36	; 0x24
   db36e:	4628      	mov	r0, r5
    info->version = HAL_SPI_INFO_VERSION_1;
   db370:	f8ad 3024 	strh.w	r3, [sp, #36]	; 0x24
    hal_spi_info(spi, info, nullptr);
   db374:	f7fd fb92 	bl	d8a9c <hal_spi_info>
    if (!info || !info->enabled || info->default_settings)
   db378:	f89d 302d 	ldrb.w	r3, [sp, #45]	; 0x2d
   db37c:	b113      	cbz	r3, db384 <_ZN8SPIClass16beginTransactionERKN8particle11SPISettingsE+0x3c>
   db37e:	f89d 502c 	ldrb.w	r5, [sp, #44]	; 0x2c
   db382:	b155      	cbz	r5, db39a <_ZN8SPIClass16beginTransactionERKN8particle11SPISettingsE+0x52>
  {
   db384:	2700      	movs	r7, #0
   db386:	46b9      	mov	r9, r7
   db388:	46b8      	mov	r8, r7
   db38a:	2501      	movs	r5, #1
    if (default_ && other.default_)
   db38c:	7923      	ldrb	r3, [r4, #4]
   db38e:	b15d      	cbz	r5, db3a8 <_ZN8SPIClass16beginTransactionERKN8particle11SPISettingsE+0x60>
   db390:	b1c3      	cbz	r3, db3c4 <_ZN8SPIClass16beginTransactionERKN8particle11SPISettingsE+0x7c>
    return 0;
   db392:	2000      	movs	r0, #0
}
   db394:	b00f      	add	sp, #60	; 0x3c
   db396:	e8bd 83f0 	ldmia.w	sp!, {r4, r5, r6, r7, r8, r9, pc}
    return particle::SPISettings(info->clock, info->bit_order, info->data_mode);
   db39a:	f8dd 8030 	ldr.w	r8, [sp, #48]	; 0x30
   db39e:	f89d 9034 	ldrb.w	r9, [sp, #52]	; 0x34
   db3a2:	f89d 7035 	ldrb.w	r7, [sp, #53]	; 0x35
  }
   db3a6:	e7f1      	b.n	db38c <_ZN8SPIClass16beginTransactionERKN8particle11SPISettingsE+0x44>
    if (default_ == other.default_ &&
   db3a8:	2b00      	cmp	r3, #0
   db3aa:	d135      	bne.n	db418 <_ZN8SPIClass16beginTransactionERKN8particle11SPISettingsE+0xd0>
   db3ac:	68a3      	ldr	r3, [r4, #8]
   db3ae:	4543      	cmp	r3, r8
   db3b0:	d108      	bne.n	db3c4 <_ZN8SPIClass16beginTransactionERKN8particle11SPISettingsE+0x7c>
        bitOrder_ == other.bitOrder_ &&
   db3b2:	f88d 9020 	strb.w	r9, [sp, #32]
   db3b6:	f88d 7021 	strb.w	r7, [sp, #33]	; 0x21
   db3ba:	f8bd 2020 	ldrh.w	r2, [sp, #32]
   db3be:	89a3      	ldrh	r3, [r4, #12]
   db3c0:	429a      	cmp	r2, r3
   db3c2:	d0e6      	beq.n	db392 <_ZN8SPIClass16beginTransactionERKN8particle11SPISettingsE+0x4a>
            uint8_t divisor = 0;
   db3c4:	2300      	movs	r3, #0
            computeClockDivider((unsigned int)spi_info.system_clock, settings.clock_, divisor,
   db3c6:	68a1      	ldr	r1, [r4, #8]
            uint8_t divisor = 0;
   db3c8:	f88d 300f 	strb.w	r3, [sp, #15]
            computeClockDivider((unsigned int)spi_info.system_clock, settings.clock_, divisor,
   db3cc:	980a      	ldr	r0, [sp, #40]	; 0x28
   db3ce:	ab04      	add	r3, sp, #16
   db3d0:	f10d 020f 	add.w	r2, sp, #15
   db3d4:	f7ff ffa2 	bl	db31c <_ZN8SPIClass19computeClockDividerEjjRhRj>
    if (default_ && other.default_)
   db3d8:	7921      	ldrb	r1, [r4, #4]
   db3da:	b985      	cbnz	r5, db3fe <_ZN8SPIClass16beginTransactionERKN8particle11SPISettingsE+0xb6>
    if (default_ == other.default_ &&
   db3dc:	b989      	cbnz	r1, db402 <_ZN8SPIClass16beginTransactionERKN8particle11SPISettingsE+0xba>
   db3de:	68a3      	ldr	r3, [r4, #8]
   db3e0:	4543      	cmp	r3, r8
   db3e2:	d30e      	bcc.n	db402 <_ZN8SPIClass16beginTransactionERKN8particle11SPISettingsE+0xba>
        bitOrder_ == other.bitOrder_ &&
   db3e4:	f88d 9020 	strb.w	r9, [sp, #32]
   db3e8:	f88d 7021 	strb.w	r7, [sp, #33]	; 0x21
   db3ec:	f8bd 2020 	ldrh.w	r2, [sp, #32]
   db3f0:	89a3      	ldrh	r3, [r4, #12]
   db3f2:	429a      	cmp	r2, r3
   db3f4:	d105      	bne.n	db402 <_ZN8SPIClass16beginTransactionERKN8particle11SPISettingsE+0xba>
            if (!(spi_settings <= settings && clock == spi_settings.clock_))
   db3f6:	9b04      	ldr	r3, [sp, #16]
   db3f8:	4543      	cmp	r3, r8
   db3fa:	d102      	bne.n	db402 <_ZN8SPIClass16beginTransactionERKN8particle11SPISettingsE+0xba>
   db3fc:	e7c9      	b.n	db392 <_ZN8SPIClass16beginTransactionERKN8particle11SPISettingsE+0x4a>
    if (default_ && other.default_)
   db3fe:	2900      	cmp	r1, #0
   db400:	d1f9      	bne.n	db3f6 <_ZN8SPIClass16beginTransactionERKN8particle11SPISettingsE+0xae>
                hal_spi_set_settings(_spi, settings.default_, divisor, settings.bitOrder_,
   db402:	2300      	movs	r3, #0
   db404:	9301      	str	r3, [sp, #4]
   db406:	7b63      	ldrb	r3, [r4, #13]
   db408:	9300      	str	r3, [sp, #0]
   db40a:	f89d 200f 	ldrb.w	r2, [sp, #15]
   db40e:	7b23      	ldrb	r3, [r4, #12]
            hal_spi_set_settings(_spi, settings.default_, 0, 0, 0, nullptr);
   db410:	7830      	ldrb	r0, [r6, #0]
   db412:	f7fd fb4b 	bl	d8aac <hal_spi_set_settings>
   db416:	e7bc      	b.n	db392 <_ZN8SPIClass16beginTransactionERKN8particle11SPISettingsE+0x4a>
   db418:	e9cd 5500 	strd	r5, r5, [sp]
   db41c:	462b      	mov	r3, r5
   db41e:	462a      	mov	r2, r5
   db420:	2101      	movs	r1, #1
   db422:	e7f5      	b.n	db410 <_ZN8SPIClass16beginTransactionERKN8particle11SPISettingsE+0xc8>

000db424 <_ZN8SPIClass8transferEh>:

    return clock;
}

byte SPIClass::transfer(byte _data)
{
   db424:	b508      	push	{r3, lr}
    return static_cast<byte>(hal_spi_transfer(_spi, _data));
   db426:	7800      	ldrb	r0, [r0, #0]
   db428:	f7fd fb20 	bl	d8a6c <hal_spi_transfer>
}
   db42c:	b2c0      	uxtb	r0, r0
   db42e:	bd08      	pop	{r3, pc}

000db430 <_ZN8SPIClass15attachInterruptEv>:
}

void SPIClass::attachInterrupt()
{
    // TODO: Implement
}
   db430:	4770      	bx	lr

000db432 <_ZN8SPIClass15detachInterruptEv>:
   db432:	4770      	bx	lr

000db434 <_ZN6StringD1Ev>:
	init();
	char buf[33];
	dtoa(value, decimalPlaces, buf);
        *this = buf;
}
String::~String()
   db434:	b510      	push	{r4, lr}
   db436:	4604      	mov	r4, r0
{
	free(buffer);
   db438:	6800      	ldr	r0, [r0, #0]
   db43a:	f7fd fd19 	bl	d8e70 <free>
}
   db43e:	4620      	mov	r0, r4
   db440:	bd10      	pop	{r4, pc}

000db442 <_ZN6String10invalidateEv>:
	len = 0;
	flags = 0;
}

void String::invalidate(void)
{
   db442:	b510      	push	{r4, lr}
   db444:	4604      	mov	r4, r0
	if (buffer) free(buffer);
   db446:	6800      	ldr	r0, [r0, #0]
   db448:	b108      	cbz	r0, db44e <_ZN6String10invalidateEv+0xc>
   db44a:	f7fd fd11 	bl	d8e70 <free>
	buffer = NULL;
   db44e:	2300      	movs	r3, #0
	capacity = len = 0;
   db450:	e9c4 3301 	strd	r3, r3, [r4, #4]
	buffer = NULL;
   db454:	6023      	str	r3, [r4, #0]
}
   db456:	bd10      	pop	{r4, pc}

000db458 <_ZN6String12changeBufferEj>:
	}
	return 0;
}

unsigned char String::changeBuffer(unsigned int maxStrLen)
{
   db458:	b538      	push	{r3, r4, r5, lr}
   db45a:	4604      	mov	r4, r0
   db45c:	460d      	mov	r5, r1
	char *newbuffer = (char *)realloc(buffer, maxStrLen + 1);
   db45e:	6800      	ldr	r0, [r0, #0]
   db460:	3101      	adds	r1, #1
   db462:	f7fd fd0d 	bl	d8e80 <realloc>
	if (newbuffer) {
   db466:	b110      	cbz	r0, db46e <_ZN6String12changeBufferEj+0x16>
		buffer = newbuffer;
		capacity = maxStrLen;
   db468:	e9c4 0500 	strd	r0, r5, [r4]
		return 1;
   db46c:	2001      	movs	r0, #1
	}
	return 0;
}
   db46e:	bd38      	pop	{r3, r4, r5, pc}

000db470 <_ZN6String7reserveEj>:
{
   db470:	b510      	push	{r4, lr}
	if (buffer && capacity >= size) return 1;
   db472:	6803      	ldr	r3, [r0, #0]
{
   db474:	4604      	mov	r4, r0
	if (buffer && capacity >= size) return 1;
   db476:	b123      	cbz	r3, db482 <_ZN6String7reserveEj+0x12>
   db478:	6843      	ldr	r3, [r0, #4]
   db47a:	428b      	cmp	r3, r1
   db47c:	d301      	bcc.n	db482 <_ZN6String7reserveEj+0x12>
   db47e:	2001      	movs	r0, #1
}
   db480:	bd10      	pop	{r4, pc}
	if (changeBuffer(size)) {
   db482:	4620      	mov	r0, r4
   db484:	f7ff ffe8 	bl	db458 <_ZN6String12changeBufferEj>
   db488:	2800      	cmp	r0, #0
   db48a:	d0f9      	beq.n	db480 <_ZN6String7reserveEj+0x10>
		if (len == 0) buffer[0] = 0;
   db48c:	68a3      	ldr	r3, [r4, #8]
   db48e:	2b00      	cmp	r3, #0
   db490:	d1f5      	bne.n	db47e <_ZN6String7reserveEj+0xe>
   db492:	6822      	ldr	r2, [r4, #0]
   db494:	7013      	strb	r3, [r2, #0]
   db496:	e7f2      	b.n	db47e <_ZN6String7reserveEj+0xe>

000db498 <_ZN6String4copyEPKcj>:
/*********************************************/
/*  Copy and Move                            */
/*********************************************/

String & String::copy(const char *cstr, unsigned int length)
{
   db498:	b537      	push	{r0, r1, r2, r4, r5, lr}
   db49a:	460d      	mov	r5, r1
	if (!reserve(length)) {
   db49c:	4611      	mov	r1, r2
   db49e:	9201      	str	r2, [sp, #4]
{
   db4a0:	4604      	mov	r4, r0
	if (!reserve(length)) {
   db4a2:	f7ff ffe5 	bl	db470 <_ZN6String7reserveEj>
   db4a6:	9a01      	ldr	r2, [sp, #4]
   db4a8:	b928      	cbnz	r0, db4b6 <_ZN6String4copyEPKcj+0x1e>
		invalidate();
   db4aa:	4620      	mov	r0, r4
   db4ac:	f7ff ffc9 	bl	db442 <_ZN6String10invalidateEv>
	}
	len = length;
	memcpy(buffer, cstr, length);
	buffer[len] = 0;
	return *this;
}
   db4b0:	4620      	mov	r0, r4
   db4b2:	b003      	add	sp, #12
   db4b4:	bd30      	pop	{r4, r5, pc}
	len = length;
   db4b6:	60a2      	str	r2, [r4, #8]
	memcpy(buffer, cstr, length);
   db4b8:	4629      	mov	r1, r5
   db4ba:	6820      	ldr	r0, [r4, #0]
   db4bc:	f001 f9ea 	bl	dc894 <memcpy>
	buffer[len] = 0;
   db4c0:	6822      	ldr	r2, [r4, #0]
   db4c2:	68a3      	ldr	r3, [r4, #8]
   db4c4:	2100      	movs	r1, #0
   db4c6:	54d1      	strb	r1, [r2, r3]
	return *this;
   db4c8:	e7f2      	b.n	db4b0 <_ZN6String4copyEPKcj+0x18>

000db4ca <_ZN6StringC1EPKc>:
	buffer = NULL;
   db4ca:	2300      	movs	r3, #0
String::String(const char *cstr)
   db4cc:	b513      	push	{r0, r1, r4, lr}
	capacity = 0;
   db4ce:	e9c0 3300 	strd	r3, r3, [r0]
String::String(const char *cstr)
   db4d2:	4604      	mov	r4, r0
	len = 0;
   db4d4:	6083      	str	r3, [r0, #8]
	flags = 0;
   db4d6:	7303      	strb	r3, [r0, #12]
	if (cstr) copy(cstr, strlen(cstr));
   db4d8:	b141      	cbz	r1, db4ec <_ZN6StringC1EPKc+0x22>
   db4da:	4608      	mov	r0, r1
   db4dc:	9101      	str	r1, [sp, #4]
   db4de:	f001 faa8 	bl	dca32 <strlen>
   db4e2:	9901      	ldr	r1, [sp, #4]
   db4e4:	4602      	mov	r2, r0
   db4e6:	4620      	mov	r0, r4
   db4e8:	f7ff ffd6 	bl	db498 <_ZN6String4copyEPKcj>
}
   db4ec:	4620      	mov	r0, r4
   db4ee:	b002      	add	sp, #8
   db4f0:	bd10      	pop	{r4, pc}

000db4f2 <_ZN6String4moveERS_>:
    return copy(reinterpret_cast<const char*>(pstr), length);
}

#ifdef __GXX_EXPERIMENTAL_CXX0X__
void String::move(String &rhs)
{
   db4f2:	b538      	push	{r3, r4, r5, lr}
   db4f4:	4605      	mov	r5, r0
	if (buffer) {
   db4f6:	6800      	ldr	r0, [r0, #0]
{
   db4f8:	460c      	mov	r4, r1
	if (buffer) {
   db4fa:	b168      	cbz	r0, db518 <_ZN6String4moveERS_+0x26>
		if (capacity >= rhs.len) {
   db4fc:	686a      	ldr	r2, [r5, #4]
   db4fe:	688b      	ldr	r3, [r1, #8]
   db500:	429a      	cmp	r2, r3
   db502:	d307      	bcc.n	db514 <_ZN6String4moveERS_+0x22>
			strcpy(buffer, rhs.buffer);
   db504:	6809      	ldr	r1, [r1, #0]
   db506:	f001 fa6e 	bl	dc9e6 <strcpy>
			len = rhs.len;
   db50a:	68a3      	ldr	r3, [r4, #8]
   db50c:	60ab      	str	r3, [r5, #8]
			rhs.len = 0;
   db50e:	2300      	movs	r3, #0
	buffer = rhs.buffer;
	capacity = rhs.capacity;
	len = rhs.len;
	rhs.buffer = NULL;
	rhs.capacity = 0;
	rhs.len = 0;
   db510:	60a3      	str	r3, [r4, #8]
}
   db512:	bd38      	pop	{r3, r4, r5, pc}
			free(buffer);
   db514:	f7fd fcac 	bl	d8e70 <free>
	buffer = rhs.buffer;
   db518:	6823      	ldr	r3, [r4, #0]
   db51a:	602b      	str	r3, [r5, #0]
	capacity = rhs.capacity;
   db51c:	6863      	ldr	r3, [r4, #4]
   db51e:	606b      	str	r3, [r5, #4]
	len = rhs.len;
   db520:	68a3      	ldr	r3, [r4, #8]
   db522:	60ab      	str	r3, [r5, #8]
	rhs.buffer = NULL;
   db524:	2300      	movs	r3, #0
	rhs.capacity = 0;
   db526:	e9c4 3300 	strd	r3, r3, [r4]
   db52a:	e7f1      	b.n	db510 <_ZN6String4moveERS_+0x1e>

000db52c <_ZN6StringC1EOS_>:
String::String(String &&rval)
   db52c:	b510      	push	{r4, lr}
	buffer = NULL;
   db52e:	2300      	movs	r3, #0
	capacity = 0;
   db530:	e9c0 3300 	strd	r3, r3, [r0]
String::String(String &&rval)
   db534:	4604      	mov	r4, r0
	len = 0;
   db536:	6083      	str	r3, [r0, #8]
	flags = 0;
   db538:	7303      	strb	r3, [r0, #12]
	move(rval);
   db53a:	f7ff ffda 	bl	db4f2 <_ZN6String4moveERS_>
}
   db53e:	4620      	mov	r0, r4
   db540:	bd10      	pop	{r4, pc}

000db542 <_ZN6StringaSERKS_>:
#endif

String & String::operator = (const String &rhs)
{
	if (this == &rhs) return *this;
   db542:	4288      	cmp	r0, r1
{
   db544:	b510      	push	{r4, lr}
   db546:	4604      	mov	r4, r0
	if (this == &rhs) return *this;
   db548:	d005      	beq.n	db556 <_ZN6StringaSERKS_+0x14>

	if (rhs.buffer) copy(rhs.buffer, rhs.len);
   db54a:	680b      	ldr	r3, [r1, #0]
   db54c:	b12b      	cbz	r3, db55a <_ZN6StringaSERKS_+0x18>
   db54e:	688a      	ldr	r2, [r1, #8]
   db550:	4619      	mov	r1, r3
   db552:	f7ff ffa1 	bl	db498 <_ZN6String4copyEPKcj>
	else invalidate();

	return *this;
}
   db556:	4620      	mov	r0, r4
   db558:	bd10      	pop	{r4, pc}
	else invalidate();
   db55a:	f7ff ff72 	bl	db442 <_ZN6String10invalidateEv>
   db55e:	e7fa      	b.n	db556 <_ZN6StringaSERKS_+0x14>

000db560 <_ZN6StringC1ERKS_>:
String::String(const String &value)
   db560:	b510      	push	{r4, lr}
	buffer = NULL;
   db562:	2300      	movs	r3, #0
String::String(const String &value)
   db564:	4604      	mov	r4, r0
	capacity = 0;
   db566:	e9c0 3300 	strd	r3, r3, [r0]
	len = 0;
   db56a:	6083      	str	r3, [r0, #8]
	flags = 0;
   db56c:	7303      	strb	r3, [r0, #12]
	*this = value;
   db56e:	f7ff ffe8 	bl	db542 <_ZN6StringaSERKS_>
}
   db572:	4620      	mov	r0, r4
   db574:	bd10      	pop	{r4, pc}

000db576 <_ZN6StringaSEPKc>:
	return *this;
}
#endif

String & String::operator = (const char *cstr)
{
   db576:	b513      	push	{r0, r1, r4, lr}
   db578:	4604      	mov	r4, r0
	if (cstr) copy(cstr, strlen(cstr));
   db57a:	b159      	cbz	r1, db594 <_ZN6StringaSEPKc+0x1e>
   db57c:	4608      	mov	r0, r1
   db57e:	9101      	str	r1, [sp, #4]
   db580:	f001 fa57 	bl	dca32 <strlen>
   db584:	9901      	ldr	r1, [sp, #4]
   db586:	4602      	mov	r2, r0
   db588:	4620      	mov	r0, r4
   db58a:	f7ff ff85 	bl	db498 <_ZN6String4copyEPKcj>
	else invalidate();

	return *this;
}
   db58e:	4620      	mov	r0, r4
   db590:	b002      	add	sp, #8
   db592:	bd10      	pop	{r4, pc}
	else invalidate();
   db594:	f7ff ff55 	bl	db442 <_ZN6String10invalidateEv>
   db598:	e7f9      	b.n	db58e <_ZN6StringaSEPKc+0x18>

000db59a <_ZNK6String6equalsEPKc>:
{
	return (len == s2.len && compareTo(s2) == 0);
}

unsigned char String::equals(const char *cstr) const
{
   db59a:	b508      	push	{r3, lr}
	if (len == 0) return (cstr == NULL || *cstr == 0);
   db59c:	6882      	ldr	r2, [r0, #8]
   db59e:	b93a      	cbnz	r2, db5b0 <_ZNK6String6equalsEPKc+0x16>
   db5a0:	b121      	cbz	r1, db5ac <_ZNK6String6equalsEPKc+0x12>
   db5a2:	7808      	ldrb	r0, [r1, #0]
	if (cstr == NULL) return buffer[0] == 0;
	return strcmp(buffer, cstr) == 0;
   db5a4:	fab0 f080 	clz	r0, r0
   db5a8:	0940      	lsrs	r0, r0, #5
   db5aa:	e000      	b.n	db5ae <_ZNK6String6equalsEPKc+0x14>
	if (len == 0) return (cstr == NULL || *cstr == 0);
   db5ac:	2001      	movs	r0, #1
}
   db5ae:	bd08      	pop	{r3, pc}
	if (cstr == NULL) return buffer[0] == 0;
   db5b0:	6800      	ldr	r0, [r0, #0]
   db5b2:	b909      	cbnz	r1, db5b8 <_ZNK6String6equalsEPKc+0x1e>
   db5b4:	7800      	ldrb	r0, [r0, #0]
   db5b6:	e7f5      	b.n	db5a4 <_ZNK6String6equalsEPKc+0xa>
	return strcmp(buffer, cstr) == 0;
   db5b8:	f001 fa0b 	bl	dc9d2 <strcmp>
   db5bc:	e7f2      	b.n	db5a4 <_ZNK6String6equalsEPKc+0xa>
	...

000db5c0 <_ZN6String6formatEPKcz>:
    StringPrintableHelper help(*this);
    printable.printTo(help);
}

String String::format(const char* fmt, ...)
{
   db5c0:	b40e      	push	{r1, r2, r3}
   db5c2:	b570      	push	{r4, r5, r6, lr}
   db5c4:	b087      	sub	sp, #28
   db5c6:	ad0b      	add	r5, sp, #44	; 0x2c
   db5c8:	4604      	mov	r4, r0
   db5ca:	f855 2b04 	ldr.w	r2, [r5], #4
    va_list marker;
    va_start(marker, fmt);
    const int bufsize = 5;
    char test[bufsize];
    size_t n = vsnprintf(test, bufsize, fmt, marker);
   db5ce:	9201      	str	r2, [sp, #4]
   db5d0:	462b      	mov	r3, r5
   db5d2:	2105      	movs	r1, #5
   db5d4:	a804      	add	r0, sp, #16
    va_start(marker, fmt);
   db5d6:	9503      	str	r5, [sp, #12]
    size_t n = vsnprintf(test, bufsize, fmt, marker);
   db5d8:	f7fd fc72 	bl	d8ec0 <vsnprintf>
    va_end(marker);

    String result;
   db5dc:	490b      	ldr	r1, [pc, #44]	; (db60c <_ZN6String6formatEPKcz+0x4c>)
    size_t n = vsnprintf(test, bufsize, fmt, marker);
   db5de:	4606      	mov	r6, r0
    String result;
   db5e0:	4620      	mov	r0, r4
   db5e2:	f7ff ff72 	bl	db4ca <_ZN6StringC1EPKc>
    result.reserve(n);  // internally adds +1 for null terminator
   db5e6:	4631      	mov	r1, r6
   db5e8:	4620      	mov	r0, r4
   db5ea:	f7ff ff41 	bl	db470 <_ZN6String7reserveEj>
    if (result.buffer) {
   db5ee:	6820      	ldr	r0, [r4, #0]
   db5f0:	b130      	cbz	r0, db600 <_ZN6String6formatEPKcz+0x40>
        va_start(marker, fmt);
        n = vsnprintf(result.buffer, n+1, fmt, marker);
   db5f2:	9a01      	ldr	r2, [sp, #4]
        va_start(marker, fmt);
   db5f4:	9503      	str	r5, [sp, #12]
        n = vsnprintf(result.buffer, n+1, fmt, marker);
   db5f6:	462b      	mov	r3, r5
   db5f8:	1c71      	adds	r1, r6, #1
   db5fa:	f7fd fc61 	bl	d8ec0 <vsnprintf>
        va_end(marker);
        result.len = n;
   db5fe:	60a0      	str	r0, [r4, #8]
    }
    return result;
}
   db600:	4620      	mov	r0, r4
   db602:	b007      	add	sp, #28
   db604:	e8bd 4070 	ldmia.w	sp!, {r4, r5, r6, lr}
   db608:	b003      	add	sp, #12
   db60a:	4770      	bx	lr
   db60c:	000dd935 	.word	0x000dd935

000db610 <_ZN17SystemSleepResult22freeWakeupSourceMemoryEv.isra.0>:
    operator SleepResult() {
        return toSleepResult();
    }

private:
    void freeWakeupSourceMemory() {
   db610:	b510      	push	{r4, lr}
   db612:	4604      	mov	r4, r0
        if (wakeupSource_) {
   db614:	6800      	ldr	r0, [r0, #0]
   db616:	b118      	cbz	r0, db620 <_ZN17SystemSleepResult22freeWakeupSourceMemoryEv.isra.0+0x10>
            free(wakeupSource_);
   db618:	f7fd fc2a 	bl	d8e70 <free>
            wakeupSource_ = nullptr;
   db61c:	2300      	movs	r3, #0
   db61e:	6023      	str	r3, [r4, #0]
        }
    }
   db620:	bd10      	pop	{r4, pc}

000db622 <_ZN17SystemSleepResultaSEOS_>:
    SystemSleepResult& operator=(SystemSleepResult&& result) {
   db622:	b538      	push	{r3, r4, r5, lr}
        error_ = result.error_;
   db624:	f9b1 3004 	ldrsh.w	r3, [r1, #4]
   db628:	8083      	strh	r3, [r0, #4]
        compatResult_ = result.compatResult_;
   db62a:	460b      	mov	r3, r1
    SystemSleepResult& operator=(SystemSleepResult&& result) {
   db62c:	460d      	mov	r5, r1
        compatResult_ = result.compatResult_;
   db62e:	f853 2f06 	ldr.w	r2, [r3, #6]!
   db632:	f8c0 2006 	str.w	r2, [r0, #6]
   db636:	889b      	ldrh	r3, [r3, #4]
   db638:	8143      	strh	r3, [r0, #10]
    SystemSleepResult& operator=(SystemSleepResult&& result) {
   db63a:	4604      	mov	r4, r0
        freeWakeupSourceMemory();
   db63c:	f7ff ffe8 	bl	db610 <_ZN17SystemSleepResult22freeWakeupSourceMemoryEv.isra.0>
        if (result.wakeupSource_) {
   db640:	682b      	ldr	r3, [r5, #0]
   db642:	b113      	cbz	r3, db64a <_ZN17SystemSleepResultaSEOS_+0x28>
            wakeupSource_ = result.wakeupSource_;
   db644:	6023      	str	r3, [r4, #0]
            result.wakeupSource_ = nullptr;
   db646:	2300      	movs	r3, #0
   db648:	602b      	str	r3, [r5, #0]
    }
   db64a:	4620      	mov	r0, r4
   db64c:	bd38      	pop	{r3, r4, r5, pc}
	...

000db650 <_ZN17SystemSleepResult16copyWakeupSourceEP24hal_wakeup_source_base_t>:

    int copyWakeupSource(hal_wakeup_source_base_t* source) {
   db650:	b538      	push	{r3, r4, r5, lr}
   db652:	460c      	mov	r4, r1
   db654:	4605      	mov	r5, r0
        freeWakeupSourceMemory();
   db656:	f7ff ffdb 	bl	db610 <_ZN17SystemSleepResult22freeWakeupSourceMemoryEv.isra.0>
        if (source) {
   db65a:	b144      	cbz	r4, db66e <_ZN17SystemSleepResult16copyWakeupSourceEP24hal_wakeup_source_base_t+0x1e>
            wakeupSource_ = (hal_wakeup_source_base_t*)malloc(source->size);
   db65c:	8820      	ldrh	r0, [r4, #0]
   db65e:	f7fd fbff 	bl	d8e60 <malloc>
   db662:	6028      	str	r0, [r5, #0]
            if (wakeupSource_) {
   db664:	b128      	cbz	r0, db672 <_ZN17SystemSleepResult16copyWakeupSourceEP24hal_wakeup_source_base_t+0x22>
                memcpy(wakeupSource_, source, source->size);
   db666:	8822      	ldrh	r2, [r4, #0]
   db668:	4621      	mov	r1, r4
   db66a:	f001 f913 	bl	dc894 <memcpy>
            } else {
                return SYSTEM_ERROR_NO_MEMORY;
            }
        }
        return SYSTEM_ERROR_NONE;
   db66e:	2000      	movs	r0, #0
    }
   db670:	bd38      	pop	{r3, r4, r5, pc}
                return SYSTEM_ERROR_NO_MEMORY;
   db672:	4801      	ldr	r0, [pc, #4]	; (db678 <_ZN17SystemSleepResult16copyWakeupSourceEP24hal_wakeup_source_base_t+0x28>)
   db674:	e7fc      	b.n	db670 <_ZN17SystemSleepResult16copyWakeupSourceEP24hal_wakeup_source_base_t+0x20>
   db676:	bf00      	nop
   db678:	fffffefc 	.word	0xfffffefc

000db67c <_ZN11SystemClass5sleepERKN8particle24SystemSleepConfigurationE>:
void SystemClass::enterSafeMode(SystemResetFlags flags)
{
    system_reset(SYSTEM_RESET_MODE_SAFE, 0, 0, flags.value(), nullptr);
}

SystemSleepResult SystemClass::sleep(const particle::SystemSleepConfiguration& config) {
   db67c:	b5f0      	push	{r4, r5, r6, r7, lr}
   db67e:	4d2d      	ldr	r5, [pc, #180]	; (db734 <_ZN11SystemClass5sleepERKN8particle24SystemSleepConfigurationE+0xb8>)
    }

    // It doesn't guarantee the combination of sleep mode and
    // wakeup sources that the platform supports.
    bool valid() const {
        if (!valid_) {
   db680:	7d0b      	ldrb	r3, [r1, #20]
   db682:	4604      	mov	r4, r0
   db684:	b08b      	sub	sp, #44	; 0x2c
   db686:	4608      	mov	r0, r1
   db688:	1daf      	adds	r7, r5, #6
   db68a:	2b00      	cmp	r3, #0
   db68c:	d038      	beq.n	db700 <_ZN11SystemClass5sleepERKN8particle24SystemSleepConfigurationE+0x84>
        return static_cast<SystemSleepMode>(config_->mode);
   db68e:	680b      	ldr	r3, [r1, #0]
            return valid_;
        }
        if (sleepMode() == SystemSleepMode::NONE) {
   db690:	791b      	ldrb	r3, [r3, #4]
   db692:	2b00      	cmp	r3, #0
   db694:	d034      	beq.n	db700 <_ZN11SystemClass5sleepERKN8particle24SystemSleepConfigurationE+0x84>
              error_(SYSTEM_ERROR_NONE) {
   db696:	2200      	movs	r2, #0
    SleepResult() {}
   db698:	4b27      	ldr	r3, [pc, #156]	; (db738 <_ZN11SystemClass5sleepERKN8particle24SystemSleepConfigurationE+0xbc>)
   db69a:	9304      	str	r3, [sp, #16]
    if (!config.valid()) {
        LOG(ERROR, "System sleep configuration is invalid.");
        System.systemSleepResult_ = SystemSleepResult(SYSTEM_ERROR_INVALID_ARGUMENT);
    } else {
        SystemSleepResult result;
        int ret = system_sleep_ext(config.halConfig(), result.halWakeupSource(), nullptr);
   db69c:	a902      	add	r1, sp, #8
   db69e:	3004      	adds	r0, #4
              error_(SYSTEM_ERROR_NONE) {
   db6a0:	9202      	str	r2, [sp, #8]
   db6a2:	f8ad 200c 	strh.w	r2, [sp, #12]
    SleepResult() {}
   db6a6:	f88d 200e 	strb.w	r2, [sp, #14]
   db6aa:	f7fd fb3f 	bl	d8d2c <system_sleep_ext>
        compatResult_ = result.compatResult_;
   db6ae:	f8dd 300e 	ldr.w	r3, [sp, #14]
   db6b2:	f8c5 3006 	str.w	r3, [r5, #6]
        result.setError(static_cast<system_error_t>(ret));
   db6b6:	b200      	sxth	r0, r0
   db6b8:	f8bd 3012 	ldrh.w	r3, [sp, #18]
        error_ = error;
   db6bc:	f8ad 000c 	strh.w	r0, [sp, #12]
        error_ = result.error_;
   db6c0:	80a8      	strh	r0, [r5, #4]
        copyWakeupSource(result.wakeupSource_);
   db6c2:	9902      	ldr	r1, [sp, #8]
        compatResult_ = result.compatResult_;
   db6c4:	80bb      	strh	r3, [r7, #4]
        copyWakeupSource(result.wakeupSource_);
   db6c6:	4628      	mov	r0, r5
   db6c8:	f7ff ffc2 	bl	db650 <_ZN17SystemSleepResult16copyWakeupSourceEP24hal_wakeup_source_base_t>
        freeWakeupSourceMemory();
   db6cc:	a802      	add	r0, sp, #8
   db6ce:	f7ff ff9f 	bl	db610 <_ZN17SystemSleepResult22freeWakeupSourceMemoryEv.isra.0>
              error_(SYSTEM_ERROR_NONE) {
   db6d2:	2300      	movs	r3, #0
   db6d4:	6023      	str	r3, [r4, #0]
   db6d6:	80a3      	strh	r3, [r4, #4]
    SleepResult() {}
   db6d8:	71a3      	strb	r3, [r4, #6]
   db6da:	8123      	strh	r3, [r4, #8]
   db6dc:	f64f 73ff 	movw	r3, #65535	; 0xffff
   db6e0:	8163      	strh	r3, [r4, #10]
        error_ = result.error_;
   db6e2:	f9b5 3004 	ldrsh.w	r3, [r5, #4]
   db6e6:	80a3      	strh	r3, [r4, #4]
        compatResult_ = result.compatResult_;
   db6e8:	683b      	ldr	r3, [r7, #0]
   db6ea:	f8c4 3006 	str.w	r3, [r4, #6]
   db6ee:	88bb      	ldrh	r3, [r7, #4]
        copyWakeupSource(result.wakeupSource_);
   db6f0:	6829      	ldr	r1, [r5, #0]
        compatResult_ = result.compatResult_;
   db6f2:	8163      	strh	r3, [r4, #10]
        copyWakeupSource(result.wakeupSource_);
   db6f4:	4620      	mov	r0, r4
   db6f6:	f7ff ffab 	bl	db650 <_ZN17SystemSleepResult16copyWakeupSourceEP24hal_wakeup_source_base_t>
        System.systemSleepResult_ = result;
    }
    return System.systemSleepResult_;
}
   db6fa:	4620      	mov	r0, r4
   db6fc:	b00b      	add	sp, #44	; 0x2c
   db6fe:	bdf0      	pop	{r4, r5, r6, r7, pc}
        LOG(ERROR, "System sleep configuration is invalid.");
   db700:	2600      	movs	r6, #0
   db702:	2320      	movs	r3, #32
   db704:	e9cd 3602 	strd	r3, r6, [sp, #8]
   db708:	4b0c      	ldr	r3, [pc, #48]	; (db73c <_ZN11SystemClass5sleepERKN8particle24SystemSleepConfigurationE+0xc0>)
   db70a:	9300      	str	r3, [sp, #0]
   db70c:	490c      	ldr	r1, [pc, #48]	; (db740 <_ZN11SystemClass5sleepERKN8particle24SystemSleepConfigurationE+0xc4>)
   db70e:	4633      	mov	r3, r6
   db710:	aa02      	add	r2, sp, #8
   db712:	2032      	movs	r0, #50	; 0x32
   db714:	f7fd fa7a 	bl	d8c0c <log_message>
    SleepResult() {}
   db718:	4b07      	ldr	r3, [pc, #28]	; (db738 <_ZN11SystemClass5sleepERKN8particle24SystemSleepConfigurationE+0xbc>)
   db71a:	9304      	str	r3, [sp, #16]
        System.systemSleepResult_ = SystemSleepResult(SYSTEM_ERROR_INVALID_ARGUMENT);
   db71c:	a902      	add	r1, sp, #8
        error_ = error;
   db71e:	f64f 63f2 	movw	r3, #65266	; 0xfef2
   db722:	4804      	ldr	r0, [pc, #16]	; (db734 <_ZN11SystemClass5sleepERKN8particle24SystemSleepConfigurationE+0xb8>)
              error_(SYSTEM_ERROR_NONE) {
   db724:	9602      	str	r6, [sp, #8]
    SleepResult() {}
   db726:	f88d 600e 	strb.w	r6, [sp, #14]
        error_ = error;
   db72a:	f8ad 300c 	strh.w	r3, [sp, #12]
   db72e:	f7ff ff78 	bl	db622 <_ZN17SystemSleepResultaSEOS_>
   db732:	e7cb      	b.n	db6cc <_ZN11SystemClass5sleepERKN8particle24SystemSleepConfigurationE+0x50>
   db734:	2003e5b4 	.word	0x2003e5b4
   db738:	ffff0000 	.word	0xffff0000
   db73c:	000dda0f 	.word	0x000dda0f
   db740:	000dda08 	.word	0x000dda08

000db744 <_GLOBAL__sub_I_System>:
} // namespace particle

// particle::Flag<TagT, ValueT>
template<typename TagT, typename ValueT>
inline particle::Flag<TagT, ValueT>::Flag(ValueT val) :
        val_(val) {
   db744:	4b05      	ldr	r3, [pc, #20]	; (db75c <_GLOBAL__sub_I_System+0x18>)
   db746:	2202      	movs	r2, #2
   db748:	601a      	str	r2, [r3, #0]
              error_(SYSTEM_ERROR_NONE) {
   db74a:	4b05      	ldr	r3, [pc, #20]	; (db760 <_GLOBAL__sub_I_System+0x1c>)
    SleepResult() {}
   db74c:	4a05      	ldr	r2, [pc, #20]	; (db764 <_GLOBAL__sub_I_System+0x20>)
   db74e:	609a      	str	r2, [r3, #8]
              error_(SYSTEM_ERROR_NONE) {
   db750:	2000      	movs	r0, #0
   db752:	6018      	str	r0, [r3, #0]
   db754:	8098      	strh	r0, [r3, #4]
    SleepResult() {}
   db756:	7198      	strb	r0, [r3, #6]

class SystemClass {
public:

    SystemClass(System_Mode_TypeDef mode = DEFAULT) {
        set_system_mode(mode);
   db758:	f7fd ba8a 	b.w	d8c70 <set_system_mode>
   db75c:	2003e5c0 	.word	0x2003e5c0
   db760:	2003e5b4 	.word	0x2003e5b4
   db764:	ffff0000 	.word	0xffff0000

000db768 <_ZN10CloudClass12syncTimeDoneEv.isra.0>:
    bool syncTimeDone(void)
   db768:	b508      	push	{r3, lr}
        return !spark_sync_time_pending(nullptr) || disconnected();
   db76a:	2000      	movs	r0, #0
   db76c:	f7fd fb00 	bl	d8d70 <spark_sync_time_pending>
   db770:	b128      	cbz	r0, db77e <_ZN10CloudClass12syncTimeDoneEv.isra.0+0x16>
    static bool connected(void) { return spark_cloud_flag_connected(); }
   db772:	f7fd faed 	bl	d8d50 <spark_cloud_flag_connected>
        return !spark_sync_time_pending(nullptr) || disconnected();
   db776:	f080 0001 	eor.w	r0, r0, #1
   db77a:	b2c0      	uxtb	r0, r0
    }
   db77c:	bd08      	pop	{r3, pc}
        return !spark_sync_time_pending(nullptr) || disconnected();
   db77e:	2001      	movs	r0, #1
   db780:	e7fc      	b.n	db77c <_ZN10CloudClass12syncTimeDoneEv.isra.0+0x14>

000db782 <_ZN9TimeClass7setTimeEx>:
    return !(dst_current_cache == 0);
}

/* set the given time as unix/rtc time */
void TimeClass::setTime(time_t t)
{
   db782:	b51f      	push	{r0, r1, r2, r3, r4, lr}
   db784:	4602      	mov	r2, r0
   db786:	460b      	mov	r3, r1
    struct timeval tv = {
        .tv_sec = t,
        .tv_usec = 0
    };
    if (!hal_rtc_set_time(&tv, nullptr)) {
   db788:	4668      	mov	r0, sp
    struct timeval tv = {
   db78a:	2100      	movs	r1, #0
    };
   db78c:	e9cd 2300 	strd	r2, r3, [sp]
    struct timeval tv = {
   db790:	e9cd 1102 	strd	r1, r1, [sp, #8]
    if (!hal_rtc_set_time(&tv, nullptr)) {
   db794:	f7fd f892 	bl	d88bc <hal_rtc_set_time>
   db798:	4602      	mov	r2, r0
   db79a:	b910      	cbnz	r0, db7a2 <_ZN9TimeClass7setTimeEx+0x20>
        system_notify_time_changed((uint32_t)time_changed_manually, nullptr, nullptr);
   db79c:	4601      	mov	r1, r0
   db79e:	f7fd fa9f 	bl	d8ce0 <system_notify_time_changed>
    }
}
   db7a2:	b005      	add	sp, #20
   db7a4:	f85d fb04 	ldr.w	pc, [sp], #4

000db7a8 <_ZN9TimeClass7timeStrEx>:

/* return string representation for the given time */
String TimeClass::timeStr(time_t t)
{
   db7a8:	b530      	push	{r4, r5, lr}
   db7aa:	4604      	mov	r4, r0
    t += time_zone_cache;
   db7ac:	4818      	ldr	r0, [pc, #96]	; (db810 <_ZN9TimeClass7timeStrEx+0x68>)
   db7ae:	e9d0 1000 	ldrd	r1, r0, [r0]
   db7b2:	1852      	adds	r2, r2, r1
   db7b4:	eb40 0303 	adc.w	r3, r0, r3
    t += dst_current_cache;
   db7b8:	4816      	ldr	r0, [pc, #88]	; (db814 <_ZN9TimeClass7timeStrEx+0x6c>)
   db7ba:	e9d0 1000 	ldrd	r1, r0, [r0]
   db7be:	1852      	adds	r2, r2, r1
{
   db7c0:	b093      	sub	sp, #76	; 0x4c
    t += dst_current_cache;
   db7c2:	eb40 0303 	adc.w	r3, r0, r3
   db7c6:	e9cd 2300 	strd	r2, r3, [sp]
    struct tm calendar_time = {};
   db7ca:	2224      	movs	r2, #36	; 0x24
   db7cc:	eb0d 0002 	add.w	r0, sp, r2
   db7d0:	2100      	movs	r1, #0
   db7d2:	f001 f887 	bl	dc8e4 <memset>
    localtime_r(&t, &calendar_time);
    char ascstr[26] = {};
   db7d6:	2500      	movs	r5, #0
    localtime_r(&t, &calendar_time);
   db7d8:	a909      	add	r1, sp, #36	; 0x24
   db7da:	4668      	mov	r0, sp
   db7dc:	f7fd fb98 	bl	d8f10 <localtime_r>
    char ascstr[26] = {};
   db7e0:	2216      	movs	r2, #22
   db7e2:	4629      	mov	r1, r5
   db7e4:	a803      	add	r0, sp, #12
   db7e6:	9502      	str	r5, [sp, #8]
   db7e8:	f001 f87c 	bl	dc8e4 <memset>
    asctime_r(&calendar_time, ascstr);
   db7ec:	a902      	add	r1, sp, #8
   db7ee:	a809      	add	r0, sp, #36	; 0x24
   db7f0:	f001 f812 	bl	dc818 <asctime_r>
    int len = strlen(ascstr);
   db7f4:	a802      	add	r0, sp, #8
   db7f6:	f001 f91c 	bl	dca32 <strlen>
    ascstr[len-1] = 0; // remove final newline
   db7fa:	ab12      	add	r3, sp, #72	; 0x48
   db7fc:	4418      	add	r0, r3
    return String(ascstr);
   db7fe:	a902      	add	r1, sp, #8
    ascstr[len-1] = 0; // remove final newline
   db800:	f800 5c41 	strb.w	r5, [r0, #-65]
    return String(ascstr);
   db804:	4620      	mov	r0, r4
   db806:	f7ff fe60 	bl	db4ca <_ZN6StringC1EPKc>
}
   db80a:	4620      	mov	r0, r4
   db80c:	b013      	add	sp, #76	; 0x4c
   db80e:	bd30      	pop	{r4, r5, pc}
   db810:	2003e5d8 	.word	0x2003e5d8
   db814:	2003e5d0 	.word	0x2003e5d0

000db818 <_ZN9TimeClass14timeFormatImplEP2tmPKci>:
    localtime_r(&t, &calendar_time);
    return timeFormatImpl(&calendar_time, format_spec, time_zone_cache + dst_current_cache);
}

String TimeClass::timeFormatImpl(tm* calendar_time, const char* format, int time_zone)
{
   db818:	e92d 4ff0 	stmdb	sp!, {r4, r5, r6, r7, r8, r9, sl, fp, lr}
   db81c:	b0a5      	sub	sp, #148	; 0x94
   db81e:	4607      	mov	r7, r0
   db820:	4688      	mov	r8, r1
    char format_str[64];
    // only copy up to n-1 to dest if no null terminator found
    strncpy(format_str, format, sizeof(format_str) - 1); // Flawfinder: ignore (ch42318)
   db822:	a814      	add	r0, sp, #80	; 0x50
{
   db824:	4611      	mov	r1, r2
    strncpy(format_str, format, sizeof(format_str) - 1); // Flawfinder: ignore (ch42318)
   db826:	223f      	movs	r2, #63	; 0x3f
{
   db828:	461d      	mov	r5, r3
    strncpy(format_str, format, sizeof(format_str) - 1); // Flawfinder: ignore (ch42318)
   db82a:	f001 f91c 	bl	dca66 <strncpy>
    format_str[sizeof(format_str) - 1] = '\0'; // ensure null termination
   db82e:	2300      	movs	r3, #0
    size_t len = strlen(format_str); // Flawfinder: ignore (ch42318)
   db830:	a814      	add	r0, sp, #80	; 0x50
    format_str[sizeof(format_str) - 1] = '\0'; // ensure null termination
   db832:	f88d 308f 	strb.w	r3, [sp, #143]	; 0x8f
    size_t len = strlen(format_str); // Flawfinder: ignore (ch42318)
   db836:	f001 f8fc 	bl	dca32 <strlen>
   db83a:	4604      	mov	r4, r0

    char time_zone_str[16];
    // while we are not using stdlib for managing the timezone, we have to do this manually
    if (!time_zone) {
   db83c:	bb5d      	cbnz	r5, db896 <_ZN9TimeClass14timeFormatImplEP2tmPKci+0x7e>
        strcpy(time_zone_str, "Z");
   db83e:	492a      	ldr	r1, [pc, #168]	; (db8e8 <_ZN9TimeClass14timeFormatImplEP2tmPKci+0xd0>)
   db840:	a803      	add	r0, sp, #12
   db842:	f001 f8d0 	bl	dc9e6 <strcpy>
   db846:	ae14      	add	r6, sp, #80	; 0x50
{
   db848:	2500      	movs	r5, #0
    else {
        snprintf(time_zone_str, sizeof(time_zone_str), "%+03d:%02u", time_zone/3600, abs(time_zone/60)%60);
    }

    // replace %z with the timezone
    for (size_t i=0; i<len-1; i++)
   db84a:	f104 3bff 	add.w	fp, r4, #4294967295	; 0xffffffff
   db84e:	45ab      	cmp	fp, r5
   db850:	d936      	bls.n	db8c0 <_ZN9TimeClass14timeFormatImplEP2tmPKci+0xa8>
    {
        if (format_str[i]=='%' && format_str[i+1]=='z')
   db852:	46b1      	mov	r9, r6
   db854:	f105 0a01 	add.w	sl, r5, #1
   db858:	f819 3b01 	ldrb.w	r3, [r9], #1
   db85c:	2b25      	cmp	r3, #37	; 0x25
   db85e:	d117      	bne.n	db890 <_ZN9TimeClass14timeFormatImplEP2tmPKci+0x78>
   db860:	7873      	ldrb	r3, [r6, #1]
   db862:	2b7a      	cmp	r3, #122	; 0x7a
   db864:	d114      	bne.n	db890 <_ZN9TimeClass14timeFormatImplEP2tmPKci+0x78>
        {
            size_t tzlen = strlen(time_zone_str);
   db866:	a803      	add	r0, sp, #12
   db868:	f001 f8e3 	bl	dca32 <strlen>
            memcpy(format_str+i+tzlen, format_str+i+2, len-i-1);    // +1 include the 0 char
   db86c:	ab14      	add	r3, sp, #80	; 0x50
            size_t tzlen = strlen(time_zone_str);
   db86e:	4604      	mov	r4, r0
            memcpy(format_str+i+tzlen, format_str+i+2, len-i-1);    // +1 include the 0 char
   db870:	1828      	adds	r0, r5, r0
   db872:	4418      	add	r0, r3
   db874:	ebab 0205 	sub.w	r2, fp, r5
   db878:	1cb1      	adds	r1, r6, #2
   db87a:	f001 f80b 	bl	dc894 <memcpy>
            memcpy(format_str+i, time_zone_str, tzlen);
   db87e:	4622      	mov	r2, r4
   db880:	a903      	add	r1, sp, #12
   db882:	4630      	mov	r0, r6
   db884:	f001 f806 	bl	dc894 <memcpy>
            len = strlen(format_str);
   db888:	a814      	add	r0, sp, #80	; 0x50
   db88a:	f001 f8d2 	bl	dca32 <strlen>
   db88e:	4604      	mov	r4, r0
    for (size_t i=0; i<len-1; i++)
   db890:	464e      	mov	r6, r9
   db892:	4655      	mov	r5, sl
   db894:	e7d9      	b.n	db84a <_ZN9TimeClass14timeFormatImplEP2tmPKci+0x32>
        snprintf(time_zone_str, sizeof(time_zone_str), "%+03d:%02u", time_zone/3600, abs(time_zone/60)%60);
   db896:	213c      	movs	r1, #60	; 0x3c
   db898:	fb95 f3f1 	sdiv	r3, r5, r1
   db89c:	2b00      	cmp	r3, #0
   db89e:	bfb8      	it	lt
   db8a0:	425b      	neglt	r3, r3
   db8a2:	fbb3 f2f1 	udiv	r2, r3, r1
   db8a6:	fb01 3312 	mls	r3, r1, r2, r3
   db8aa:	9300      	str	r3, [sp, #0]
   db8ac:	4a0f      	ldr	r2, [pc, #60]	; (db8ec <_ZN9TimeClass14timeFormatImplEP2tmPKci+0xd4>)
   db8ae:	f44f 6361 	mov.w	r3, #3600	; 0xe10
   db8b2:	2110      	movs	r1, #16
   db8b4:	a803      	add	r0, sp, #12
   db8b6:	fb95 f3f3 	sdiv	r3, r5, r3
   db8ba:	f7fd faf9 	bl	d8eb0 <snprintf>
   db8be:	e7c2      	b.n	db846 <_ZN9TimeClass14timeFormatImplEP2tmPKci+0x2e>
        }
    }

    char buf[50] = {};
   db8c0:	2100      	movs	r1, #0
   db8c2:	222e      	movs	r2, #46	; 0x2e
   db8c4:	a808      	add	r0, sp, #32
   db8c6:	9107      	str	r1, [sp, #28]
   db8c8:	f001 f80c 	bl	dc8e4 <memset>
    strftime(buf, sizeof(buf), format_str, calendar_time);
   db8cc:	4643      	mov	r3, r8
   db8ce:	aa14      	add	r2, sp, #80	; 0x50
   db8d0:	2132      	movs	r1, #50	; 0x32
   db8d2:	a807      	add	r0, sp, #28
   db8d4:	f7fd fb14 	bl	d8f00 <strftime>
    return String(buf);
   db8d8:	a907      	add	r1, sp, #28
   db8da:	4638      	mov	r0, r7
   db8dc:	f7ff fdf5 	bl	db4ca <_ZN6StringC1EPKc>
}
   db8e0:	4638      	mov	r0, r7
   db8e2:	b025      	add	sp, #148	; 0x94
   db8e4:	e8bd 8ff0 	ldmia.w	sp!, {r4, r5, r6, r7, r8, r9, sl, fp, pc}
   db8e8:	000dd48f 	.word	0x000dd48f
   db8ec:	000dd491 	.word	0x000dd491

000db8f0 <_ZN9TimeClass6formatExPKc>:
{
   db8f0:	b5f0      	push	{r4, r5, r6, r7, lr}
   db8f2:	b08d      	sub	sp, #52	; 0x34
   db8f4:	e9cd 2300 	strd	r2, r3, [sp]
   db8f8:	9d12      	ldr	r5, [sp, #72]	; 0x48
   db8fa:	4604      	mov	r4, r0
    if (format_spec == nullptr)
   db8fc:	b915      	cbnz	r5, db904 <_ZN9TimeClass6formatExPKc+0x14>
        format_spec = this->format_spec;
   db8fe:	4b19      	ldr	r3, [pc, #100]	; (db964 <_ZN9TimeClass6formatExPKc+0x74>)
   db900:	681d      	ldr	r5, [r3, #0]
    if (!format_spec || !strcmp(format_spec, TIME_FORMAT_DEFAULT)) {
   db902:	b12d      	cbz	r5, db910 <_ZN9TimeClass6formatExPKc+0x20>
   db904:	4b18      	ldr	r3, [pc, #96]	; (db968 <_ZN9TimeClass6formatExPKc+0x78>)
   db906:	4628      	mov	r0, r5
   db908:	6819      	ldr	r1, [r3, #0]
   db90a:	f001 f862 	bl	dc9d2 <strcmp>
   db90e:	b938      	cbnz	r0, db920 <_ZN9TimeClass6formatExPKc+0x30>
        return timeStr(t);
   db910:	e9dd 2300 	ldrd	r2, r3, [sp]
   db914:	4620      	mov	r0, r4
   db916:	f7ff ff47 	bl	db7a8 <_ZN9TimeClass7timeStrEx>
}
   db91a:	4620      	mov	r0, r4
   db91c:	b00d      	add	sp, #52	; 0x34
   db91e:	bdf0      	pop	{r4, r5, r6, r7, pc}
    t += time_zone_cache;
   db920:	4e12      	ldr	r6, [pc, #72]	; (db96c <_ZN9TimeClass6formatExPKc+0x7c>)
   db922:	9900      	ldr	r1, [sp, #0]
    t += dst_current_cache;
   db924:	4f12      	ldr	r7, [pc, #72]	; (db970 <_ZN9TimeClass6formatExPKc+0x80>)
    t += time_zone_cache;
   db926:	e9d6 3200 	ldrd	r3, r2, [r6]
   db92a:	185b      	adds	r3, r3, r1
   db92c:	9901      	ldr	r1, [sp, #4]
   db92e:	eb41 0202 	adc.w	r2, r1, r2
    t += dst_current_cache;
   db932:	e9d7 0100 	ldrd	r0, r1, [r7]
   db936:	181b      	adds	r3, r3, r0
   db938:	eb41 0202 	adc.w	r2, r1, r2
   db93c:	e9cd 3200 	strd	r3, r2, [sp]
    struct tm calendar_time = {};
   db940:	2100      	movs	r1, #0
   db942:	2224      	movs	r2, #36	; 0x24
   db944:	a803      	add	r0, sp, #12
   db946:	f000 ffcd 	bl	dc8e4 <memset>
    localtime_r(&t, &calendar_time);
   db94a:	a903      	add	r1, sp, #12
   db94c:	4668      	mov	r0, sp
   db94e:	f7fd fadf 	bl	d8f10 <localtime_r>
    return timeFormatImpl(&calendar_time, format_spec, time_zone_cache + dst_current_cache);
   db952:	6832      	ldr	r2, [r6, #0]
   db954:	683b      	ldr	r3, [r7, #0]
   db956:	a903      	add	r1, sp, #12
   db958:	4413      	add	r3, r2
   db95a:	4620      	mov	r0, r4
   db95c:	462a      	mov	r2, r5
   db95e:	f7ff ff5b 	bl	db818 <_ZN9TimeClass14timeFormatImplEP2tmPKci>
   db962:	e7da      	b.n	db91a <_ZN9TimeClass6formatExPKc+0x2a>
   db964:	2003e5c8 	.word	0x2003e5c8
   db968:	2003dcf0 	.word	0x2003dcf0
   db96c:	2003e5d8 	.word	0x2003e5d8
   db970:	2003e5d0 	.word	0x2003e5d0

000db974 <_ZN9TimeClass7isValidEv>:

bool TimeClass::isValid()
{
   db974:	b510      	push	{r4, lr}
    bool rtcstate = hal_rtc_time_is_valid(nullptr);
   db976:	2000      	movs	r0, #0
   db978:	f7fc ff90 	bl	d889c <hal_rtc_time_is_valid>
    if (rtcstate)
   db97c:	4604      	mov	r4, r0
   db97e:	b9a0      	cbnz	r0, db9aa <_ZN9TimeClass7isValidEv+0x36>
    }

    static System_Mode_TypeDef mode(void) {
        return system_mode();
   db980:	f7fd f96e 	bl	d8c60 <system_mode>
        return rtcstate;
    if (System.mode() == AUTOMATIC && system_thread_get_state(nullptr) == spark::feature::DISABLED)
   db984:	2801      	cmp	r0, #1
   db986:	d110      	bne.n	db9aa <_ZN9TimeClass7isValidEv+0x36>
   db988:	4620      	mov	r0, r4
   db98a:	f7fd f9a1 	bl	d8cd0 <system_thread_get_state>
   db98e:	b960      	cbnz	r0, db9aa <_ZN9TimeClass7isValidEv+0x36>
    {
        waitUntil(Particle.syncTimeDone);
   db990:	f7ff feea 	bl	db768 <_ZN10CloudClass12syncTimeDoneEv.isra.0>


    static uint32_t freeMemory();

    template<typename Condition, typename While> static bool waitConditionWhile(Condition _condition, While _while) {
        while (_while() && !_condition()) {
   db994:	b910      	cbnz	r0, db99c <_ZN9TimeClass7isValidEv+0x28>
            spark_process();
   db996:	f7fd f9d3 	bl	d8d40 <spark_process>
        while (_while() && !_condition()) {
   db99a:	e7f9      	b.n	db990 <_ZN9TimeClass7isValidEv+0x1c>
   db99c:	f7ff fee4 	bl	db768 <_ZN10CloudClass12syncTimeDoneEv.isra.0>
        return hal_rtc_time_is_valid(nullptr);
    }
    return rtcstate;
}
   db9a0:	e8bd 4010 	ldmia.w	sp!, {r4, lr}
        return hal_rtc_time_is_valid(nullptr);
   db9a4:	2000      	movs	r0, #0
   db9a6:	f7fc bf79 	b.w	d889c <hal_rtc_time_is_valid>
}
   db9aa:	4620      	mov	r0, r4
   db9ac:	bd10      	pop	{r4, pc}

000db9ae <_ZN9TimeClass3nowEv>:
{
   db9ae:	b51f      	push	{r0, r1, r2, r3, r4, lr}
    (void)isValid();
   db9b0:	f7ff ffe0 	bl	db974 <_ZN9TimeClass7isValidEv>
    struct timeval tv = {};
   db9b4:	2210      	movs	r2, #16
   db9b6:	2100      	movs	r1, #0
   db9b8:	4668      	mov	r0, sp
   db9ba:	f000 ff93 	bl	dc8e4 <memset>
    hal_rtc_get_time(&tv, nullptr);
   db9be:	2100      	movs	r1, #0
   db9c0:	4668      	mov	r0, sp
   db9c2:	f7fc ff73 	bl	d88ac <hal_rtc_get_time>
}
   db9c6:	9800      	ldr	r0, [sp, #0]
   db9c8:	b005      	add	sp, #20
   db9ca:	f85d fb04 	ldr.w	pc, [sp], #4
	...

000db9d0 <_GLOBAL__sub_I_TIME_FORMAT_DEFAULT>:
const char* TimeClass::format_spec = TIME_FORMAT_DEFAULT;
   db9d0:	4b02      	ldr	r3, [pc, #8]	; (db9dc <_GLOBAL__sub_I_TIME_FORMAT_DEFAULT+0xc>)
   db9d2:	681a      	ldr	r2, [r3, #0]
   db9d4:	4b02      	ldr	r3, [pc, #8]	; (db9e0 <_GLOBAL__sub_I_TIME_FORMAT_DEFAULT+0x10>)
   db9d6:	601a      	str	r2, [r3, #0]
{
  return isValid();
}


TimeClass Time;
   db9d8:	4770      	bx	lr
   db9da:	bf00      	nop
   db9dc:	2003dcf0 	.word	0x2003dcf0
   db9e0:	2003e5c8 	.word	0x2003e5c8

000db9e4 <_ZN11USARTSerialD1Ev>:
private:
  hal_usart_interface_t _serial;
  bool _blocking;
public:
  USARTSerial(hal_usart_interface_t serial, hal_usart_ring_buffer_t *rx_buffer, hal_usart_ring_buffer_t *tx_buffer);
  virtual ~USARTSerial() {};
   db9e4:	4770      	bx	lr

000db9e6 <_ZN11USARTSerial14blockOnOverrunEb>:
    hal_usart_half_duplex(_serial, Enable);
}

void USARTSerial::blockOnOverrun(bool block)
{
  _blocking = block;
   db9e6:	7441      	strb	r1, [r0, #17]
}
   db9e8:	4770      	bx	lr

000db9ea <__tcf_0>:
#endif

USARTSerial& __fetch_global_Serial1()
{
#if ((MODULE_FUNCTION == MOD_FUNC_USER_PART) || (MODULE_FUNCTION == MOD_FUNC_MONO_FIRMWARE))
	static USARTSerial serial1(HAL_USART_SERIAL1, &serial1_rx_buffer, &serial1_tx_buffer);
   db9ea:	4770      	bx	lr

000db9ec <_ZN11USARTSerial17availableForWriteEv>:
{
   db9ec:	b508      	push	{r3, lr}
  return std::max(0, (int)hal_usart_available_data_for_write(_serial));
   db9ee:	7c00      	ldrb	r0, [r0, #16]
   db9f0:	f7fd f8b4 	bl	d8b5c <hal_usart_available_data_for_write>
}
   db9f4:	ea20 70e0 	bic.w	r0, r0, r0, asr #31
   db9f8:	bd08      	pop	{r3, pc}

000db9fa <_ZN11USARTSerial9availableEv>:
{
   db9fa:	b508      	push	{r3, lr}
  return std::max(0, (int)hal_usart_available(_serial));
   db9fc:	7c00      	ldrb	r0, [r0, #16]
   db9fe:	f7fd f885 	bl	d8b0c <hal_usart_available>
}
   dba02:	ea20 70e0 	bic.w	r0, r0, r0, asr #31
   dba06:	bd08      	pop	{r3, pc}

000dba08 <_ZN11USARTSerial4peekEv>:
{
   dba08:	b508      	push	{r3, lr}
  return std::max(-1, (int)hal_usart_peek(_serial));
   dba0a:	7c00      	ldrb	r0, [r0, #16]
   dba0c:	f7fd f88e 	bl	d8b2c <hal_usart_peek>
}
   dba10:	ea40 70e0 	orr.w	r0, r0, r0, asr #31
   dba14:	bd08      	pop	{r3, pc}

000dba16 <_ZN11USARTSerial4readEv>:
{
   dba16:	b508      	push	{r3, lr}
  return std::max(-1, (int)hal_usart_read(_serial));
   dba18:	7c00      	ldrb	r0, [r0, #16]
   dba1a:	f7fd f87f 	bl	d8b1c <hal_usart_read>
}
   dba1e:	ea40 70e0 	orr.w	r0, r0, r0, asr #31
   dba22:	bd08      	pop	{r3, pc}

000dba24 <_ZN11USARTSerial5flushEv>:
  hal_usart_flush(_serial);
   dba24:	7c00      	ldrb	r0, [r0, #16]
   dba26:	f7fd b889 	b.w	d8b3c <hal_usart_flush>

000dba2a <_ZN11USARTSerial5writeEh>:
{
   dba2a:	b537      	push	{r0, r1, r2, r4, r5, lr}
  if (_blocking || hal_usart_available_data_for_write(_serial) > 0) {
   dba2c:	7c45      	ldrb	r5, [r0, #17]
{
   dba2e:	4604      	mov	r4, r0
  if (_blocking || hal_usart_available_data_for_write(_serial) > 0) {
   dba30:	b12d      	cbz	r5, dba3e <_ZN11USARTSerial5writeEh+0x14>
	  return hal_usart_write(_serial, c);
   dba32:	7c20      	ldrb	r0, [r4, #16]
}
   dba34:	b003      	add	sp, #12
   dba36:	e8bd 4030 	ldmia.w	sp!, {r4, r5, lr}
	  return hal_usart_write(_serial, c);
   dba3a:	f7fd b85f 	b.w	d8afc <hal_usart_write>
  if (_blocking || hal_usart_available_data_for_write(_serial) > 0) {
   dba3e:	7c00      	ldrb	r0, [r0, #16]
   dba40:	9101      	str	r1, [sp, #4]
   dba42:	f7fd f88b 	bl	d8b5c <hal_usart_available_data_for_write>
   dba46:	2800      	cmp	r0, #0
   dba48:	9901      	ldr	r1, [sp, #4]
   dba4a:	dcf2      	bgt.n	dba32 <_ZN11USARTSerial5writeEh+0x8>
}
   dba4c:	4628      	mov	r0, r5
   dba4e:	b003      	add	sp, #12
   dba50:	bd30      	pop	{r4, r5, pc}

000dba52 <_ZN11USARTSerialD0Ev>:
   dba52:	b510      	push	{r4, lr}
   dba54:	2114      	movs	r1, #20
   dba56:	4604      	mov	r4, r0
   dba58:	f000 fa90 	bl	dbf7c <_ZdlPvj>
   dba5c:	4620      	mov	r0, r4
   dba5e:	bd10      	pop	{r4, pc}

000dba60 <_ZN11USARTSerialC1E21hal_usart_interface_tP23hal_usart_ring_buffer_tS2_>:
USARTSerial::USARTSerial(hal_usart_interface_t serial, hal_usart_ring_buffer_t *rx_buffer, hal_usart_ring_buffer_t *tx_buffer)
   dba60:	b510      	push	{r4, lr}
   dba62:	f04f 0c00 	mov.w	ip, #0
   dba66:	4604      	mov	r4, r0
   dba68:	4608      	mov	r0, r1
   dba6a:	4611      	mov	r1, r2
   dba6c:	f44f 727a 	mov.w	r2, #1000	; 0x3e8
   dba70:	e9c4 c201 	strd	ip, r2, [r4, #4]
   dba74:	4a04      	ldr	r2, [pc, #16]	; (dba88 <_ZN11USARTSerialC1E21hal_usart_interface_tP23hal_usart_ring_buffer_tS2_+0x28>)
   dba76:	6022      	str	r2, [r4, #0]
  _blocking = true;
   dba78:	2201      	movs	r2, #1
  _serial = serial;
   dba7a:	7420      	strb	r0, [r4, #16]
  _blocking = true;
   dba7c:	7462      	strb	r2, [r4, #17]
  hal_usart_init(serial, rx_buffer, tx_buffer);
   dba7e:	461a      	mov	r2, r3
   dba80:	f7fd f82c 	bl	d8adc <hal_usart_init>
}
   dba84:	4620      	mov	r0, r4
   dba86:	bd10      	pop	{r4, pc}
   dba88:	000dda5c 	.word	0x000dda5c

000dba8c <_ZN11USARTSerial5beginEmm>:
  hal_usart_begin_config(_serial, baud, config, nullptr);
   dba8c:	7c00      	ldrb	r0, [r0, #16]
   dba8e:	2300      	movs	r3, #0
   dba90:	f7fd b86c 	b.w	d8b6c <hal_usart_begin_config>

000dba94 <_ZN11USARTSerial5beginEm>:
  begin(baud, SERIAL_8N1);
   dba94:	2200      	movs	r2, #0
   dba96:	f7ff bff9 	b.w	dba8c <_ZN11USARTSerial5beginEmm>

000dba9a <_ZN11USARTSerial3endEv>:
  hal_usart_end(_serial);
   dba9a:	7c00      	ldrb	r0, [r0, #16]
   dba9c:	f7fd b826 	b.w	d8aec <hal_usart_end>

000dbaa0 <_Z22__fetch_global_Serial1v>:
{
   dbaa0:	b513      	push	{r0, r1, r4, lr}
	static USARTSerial serial1(HAL_USART_SERIAL1, &serial1_rx_buffer, &serial1_tx_buffer);
   dbaa2:	4c0d      	ldr	r4, [pc, #52]	; (dbad8 <_Z22__fetch_global_Serial1v+0x38>)
   dbaa4:	7821      	ldrb	r1, [r4, #0]
   dbaa6:	f3bf 8f5b 	dmb	ish
   dbaaa:	f011 0101 	ands.w	r1, r1, #1
   dbaae:	d110      	bne.n	dbad2 <_Z22__fetch_global_Serial1v+0x32>
   dbab0:	4620      	mov	r0, r4
   dbab2:	9101      	str	r1, [sp, #4]
   dbab4:	f7f8 fb00 	bl	d40b8 <__cxa_guard_acquire>
   dbab8:	9901      	ldr	r1, [sp, #4]
   dbaba:	b150      	cbz	r0, dbad2 <_Z22__fetch_global_Serial1v+0x32>
   dbabc:	4b07      	ldr	r3, [pc, #28]	; (dbadc <_Z22__fetch_global_Serial1v+0x3c>)
   dbabe:	4a08      	ldr	r2, [pc, #32]	; (dbae0 <_Z22__fetch_global_Serial1v+0x40>)
   dbac0:	4808      	ldr	r0, [pc, #32]	; (dbae4 <_Z22__fetch_global_Serial1v+0x44>)
   dbac2:	f7ff ffcd 	bl	dba60 <_ZN11USARTSerialC1E21hal_usart_interface_tP23hal_usart_ring_buffer_tS2_>
   dbac6:	4620      	mov	r0, r4
   dbac8:	f7f8 fafb 	bl	d40c2 <__cxa_guard_release>
   dbacc:	4806      	ldr	r0, [pc, #24]	; (dbae8 <_Z22__fetch_global_Serial1v+0x48>)
   dbace:	f000 fec9 	bl	dc864 <atexit>
    serial1_tx_buffer = new hal_usart_ring_buffer_t();
  }
  static USARTSerial serial1(HAL_USART_SERIAL1, serial1_rx_buffer, serial1_tx_buffer);
#endif
	return serial1;
}
   dbad2:	4804      	ldr	r0, [pc, #16]	; (dbae4 <_Z22__fetch_global_Serial1v+0x44>)
   dbad4:	b002      	add	sp, #8
   dbad6:	bd10      	pop	{r4, pc}
   dbad8:	2003e5e0 	.word	0x2003e5e0
   dbadc:	2003e668 	.word	0x2003e668
   dbae0:	2003e5e4 	.word	0x2003e5e4
   dbae4:	2003e6ec 	.word	0x2003e6ec
   dbae8:	000db9eb 	.word	0x000db9eb

000dbaec <_ZN9USBSerial14blockOnOverrunEb>:
  HAL_USB_USART_Flush_Data(_serial);
}

void USBSerial::blockOnOverrun(bool block)
{
  _blocking = block;
   dbaec:	7441      	strb	r1, [r0, #17]
}
   dbaee:	4770      	bx	lr

000dbaf0 <__tcf_0>:
}

USBSerial& _fetch_usbserial()
{
  HAL_USB_USART_Config conf = acquireSerialBuffer();
	static USBSerial _usbserial(HAL_USB_USART_SERIAL, conf);
   dbaf0:	4770      	bx	lr

000dbaf2 <_ZN9USBSerialD1Ev>:
#include "usb_hal.h"
#include "system_task.h"
#include "spark_wiring_startup.h"
#include "concurrent_hal.h"

class USBSerial : public Stream
   dbaf2:	4770      	bx	lr

000dbaf4 <_ZN9USBSerial4readEv>:
{
   dbaf4:	b508      	push	{r3, lr}
	return std::max(-1, (int)HAL_USB_USART_Receive_Data(_serial, false));
   dbaf6:	2100      	movs	r1, #0
   dbaf8:	7c00      	ldrb	r0, [r0, #16]
   dbafa:	f7fd f867 	bl	d8bcc <HAL_USB_USART_Receive_Data>
}
   dbafe:	ea40 70e0 	orr.w	r0, r0, r0, asr #31
   dbb02:	bd08      	pop	{r3, pc}

000dbb04 <_ZN9USBSerial4peekEv>:
{
   dbb04:	b508      	push	{r3, lr}
	return std::max(-1, (int)HAL_USB_USART_Receive_Data(_serial, true));
   dbb06:	2101      	movs	r1, #1
   dbb08:	7c00      	ldrb	r0, [r0, #16]
   dbb0a:	f7fd f85f 	bl	d8bcc <HAL_USB_USART_Receive_Data>
}
   dbb0e:	ea40 70e0 	orr.w	r0, r0, r0, asr #31
   dbb12:	bd08      	pop	{r3, pc}

000dbb14 <_ZN9USBSerial17availableForWriteEv>:
{
   dbb14:	b508      	push	{r3, lr}
  return std::max(0, (int)HAL_USB_USART_Available_Data_For_Write(_serial));
   dbb16:	7c00      	ldrb	r0, [r0, #16]
   dbb18:	f7fd f850 	bl	d8bbc <HAL_USB_USART_Available_Data_For_Write>
}
   dbb1c:	ea20 70e0 	bic.w	r0, r0, r0, asr #31
   dbb20:	bd08      	pop	{r3, pc}

000dbb22 <_ZN9USBSerial9availableEv>:
{
   dbb22:	b508      	push	{r3, lr}
	return std::max(0, (int)HAL_USB_USART_Available_Data(_serial));
   dbb24:	7c00      	ldrb	r0, [r0, #16]
   dbb26:	f7fd f841 	bl	d8bac <HAL_USB_USART_Available_Data>
}
   dbb2a:	ea20 70e0 	bic.w	r0, r0, r0, asr #31
   dbb2e:	bd08      	pop	{r3, pc}

000dbb30 <_ZN9USBSerial5writeEh>:
{
   dbb30:	b513      	push	{r0, r1, r4, lr}
   dbb32:	4604      	mov	r4, r0
  if (HAL_USB_USART_Available_Data_For_Write(_serial) > 0 || _blocking) {
   dbb34:	7c00      	ldrb	r0, [r0, #16]
{
   dbb36:	9101      	str	r1, [sp, #4]
  if (HAL_USB_USART_Available_Data_For_Write(_serial) > 0 || _blocking) {
   dbb38:	f7fd f840 	bl	d8bbc <HAL_USB_USART_Available_Data_For_Write>
   dbb3c:	2800      	cmp	r0, #0
   dbb3e:	9901      	ldr	r1, [sp, #4]
   dbb40:	dc01      	bgt.n	dbb46 <_ZN9USBSerial5writeEh+0x16>
   dbb42:	7c60      	ldrb	r0, [r4, #17]
   dbb44:	b120      	cbz	r0, dbb50 <_ZN9USBSerial5writeEh+0x20>
    return std::max(0, (int)HAL_USB_USART_Send_Data(_serial, byte));
   dbb46:	7c20      	ldrb	r0, [r4, #16]
   dbb48:	f7fd f848 	bl	d8bdc <HAL_USB_USART_Send_Data>
   dbb4c:	ea20 70e0 	bic.w	r0, r0, r0, asr #31
}
   dbb50:	b002      	add	sp, #8
   dbb52:	bd10      	pop	{r4, pc}

000dbb54 <_ZN9USBSerial5flushEv>:
  HAL_USB_USART_Flush_Data(_serial);
   dbb54:	7c00      	ldrb	r0, [r0, #16]
   dbb56:	f7fd b849 	b.w	d8bec <HAL_USB_USART_Flush_Data>

000dbb5a <_ZN9USBSerialD0Ev>:
   dbb5a:	b510      	push	{r4, lr}
   dbb5c:	2114      	movs	r1, #20
   dbb5e:	4604      	mov	r4, r0
   dbb60:	f000 fa0c 	bl	dbf7c <_ZdlPvj>
   dbb64:	4620      	mov	r0, r4
   dbb66:	bd10      	pop	{r4, pc}

000dbb68 <_ZN9USBSerialC1E20HAL_USB_USART_SerialRK20HAL_USB_USART_Config>:
USBSerial::USBSerial(HAL_USB_USART_Serial serial, const HAL_USB_USART_Config& conf)
   dbb68:	b510      	push	{r4, lr}
   dbb6a:	f44f 737a 	mov.w	r3, #1000	; 0x3e8
   dbb6e:	4604      	mov	r4, r0
   dbb70:	4608      	mov	r0, r1
   dbb72:	2100      	movs	r1, #0
   dbb74:	e9c4 1301 	strd	r1, r3, [r4, #4]
   dbb78:	4b04      	ldr	r3, [pc, #16]	; (dbb8c <_ZN9USBSerialC1E20HAL_USB_USART_SerialRK20HAL_USB_USART_Config+0x24>)
   dbb7a:	6023      	str	r3, [r4, #0]
  _blocking = true;
   dbb7c:	2301      	movs	r3, #1
  _serial = serial;
   dbb7e:	7420      	strb	r0, [r4, #16]
  _blocking = true;
   dbb80:	7463      	strb	r3, [r4, #17]
  HAL_USB_USART_Init(_serial, &conf);
   dbb82:	4611      	mov	r1, r2
   dbb84:	f7fc fffa 	bl	d8b7c <HAL_USB_USART_Init>
}
   dbb88:	4620      	mov	r0, r4
   dbb8a:	bd10      	pop	{r4, pc}
   dbb8c:	000dda8c 	.word	0x000dda8c

000dbb90 <_ZN9USBSerial5beginEl>:
    HAL_USB_USART_Begin(_serial, speed, NULL);
   dbb90:	7c00      	ldrb	r0, [r0, #16]
   dbb92:	2200      	movs	r2, #0
   dbb94:	f7fc bffa 	b.w	d8b8c <HAL_USB_USART_Begin>

000dbb98 <_ZN9USBSerial3endEv>:
    HAL_USB_USART_End(_serial);
   dbb98:	7c00      	ldrb	r0, [r0, #16]
   dbb9a:	f7fc bfff 	b.w	d8b9c <HAL_USB_USART_End>

000dbb9e <_Z19acquireSerialBufferv>:
{
   dbb9e:	b510      	push	{r4, lr}
  HAL_USB_USART_Config conf = {0};
   dbba0:	2214      	movs	r2, #20
{
   dbba2:	4604      	mov	r4, r0
  HAL_USB_USART_Config conf = {0};
   dbba4:	2100      	movs	r1, #0
   dbba6:	f000 fe9d 	bl	dc8e4 <memset>
}
   dbbaa:	4620      	mov	r0, r4
   dbbac:	bd10      	pop	{r4, pc}
	...

000dbbb0 <_Z16_fetch_usbserialv>:
{
   dbbb0:	b510      	push	{r4, lr}
	static USBSerial _usbserial(HAL_USB_USART_SERIAL, conf);
   dbbb2:	4c0f      	ldr	r4, [pc, #60]	; (dbbf0 <_Z16_fetch_usbserialv+0x40>)
{
   dbbb4:	b088      	sub	sp, #32
  HAL_USB_USART_Config conf = acquireSerialBuffer();
   dbbb6:	a803      	add	r0, sp, #12
   dbbb8:	f7ff fff1 	bl	dbb9e <_Z19acquireSerialBufferv>
	static USBSerial _usbserial(HAL_USB_USART_SERIAL, conf);
   dbbbc:	7821      	ldrb	r1, [r4, #0]
   dbbbe:	f3bf 8f5b 	dmb	ish
   dbbc2:	f011 0101 	ands.w	r1, r1, #1
   dbbc6:	d10f      	bne.n	dbbe8 <_Z16_fetch_usbserialv+0x38>
   dbbc8:	4620      	mov	r0, r4
   dbbca:	9101      	str	r1, [sp, #4]
   dbbcc:	f7f8 fa74 	bl	d40b8 <__cxa_guard_acquire>
   dbbd0:	9901      	ldr	r1, [sp, #4]
   dbbd2:	b148      	cbz	r0, dbbe8 <_Z16_fetch_usbserialv+0x38>
   dbbd4:	aa03      	add	r2, sp, #12
   dbbd6:	4807      	ldr	r0, [pc, #28]	; (dbbf4 <_Z16_fetch_usbserialv+0x44>)
   dbbd8:	f7ff ffc6 	bl	dbb68 <_ZN9USBSerialC1E20HAL_USB_USART_SerialRK20HAL_USB_USART_Config>
   dbbdc:	4620      	mov	r0, r4
   dbbde:	f7f8 fa70 	bl	d40c2 <__cxa_guard_release>
   dbbe2:	4805      	ldr	r0, [pc, #20]	; (dbbf8 <_Z16_fetch_usbserialv+0x48>)
   dbbe4:	f000 fe3e 	bl	dc864 <atexit>
	return _usbserial;
}
   dbbe8:	4802      	ldr	r0, [pc, #8]	; (dbbf4 <_Z16_fetch_usbserialv+0x44>)
   dbbea:	b008      	add	sp, #32
   dbbec:	bd10      	pop	{r4, pc}
   dbbee:	bf00      	nop
   dbbf0:	2003e700 	.word	0x2003e700
   dbbf4:	2003e704 	.word	0x2003e704
   dbbf8:	000dbaf1 	.word	0x000dbaf1

000dbbfc <_ZZ21module_user_init_hookENUlP6_reentjmPvE_4_FUNES0_jmS1_>:

void module_user_init_hook()
{
#if HAL_PLATFORM_NEWLIB
    newlib_impure_ptr_callback([](struct _reent* r, size_t size, uint32_t version, void* ctx) -> void {
        _impure_ptr = r;
   dbbfc:	4b01      	ldr	r3, [pc, #4]	; (dbc04 <_ZZ21module_user_init_hookENUlP6_reentjmPvE_4_FUNES0_jmS1_+0x8>)
   dbbfe:	6018      	str	r0, [r3, #0]
    }, nullptr);
   dbc00:	4770      	bx	lr
   dbc02:	bf00      	nop
   dbc04:	2003dcf8 	.word	0x2003dcf8

000dbc08 <serialEventRun>:
{
   dbc08:	b508      	push	{r3, lr}
    if (serialEvent && Serial.available()>0)
   dbc0a:	4b0b      	ldr	r3, [pc, #44]	; (dbc38 <serialEventRun+0x30>)
   dbc0c:	b143      	cbz	r3, dbc20 <serialEventRun+0x18>
   dbc0e:	f7ff ffcf 	bl	dbbb0 <_Z16_fetch_usbserialv>
   dbc12:	6803      	ldr	r3, [r0, #0]
   dbc14:	691b      	ldr	r3, [r3, #16]
   dbc16:	4798      	blx	r3
   dbc18:	2800      	cmp	r0, #0
   dbc1a:	dd01      	ble.n	dbc20 <serialEventRun+0x18>
        serialEvent();
   dbc1c:	f3af 8000 	nop.w
    if (serialEvent1 && Serial1.available()>0)
   dbc20:	4b06      	ldr	r3, [pc, #24]	; (dbc3c <serialEventRun+0x34>)
   dbc22:	b143      	cbz	r3, dbc36 <serialEventRun+0x2e>
   dbc24:	f7ff ff3c 	bl	dbaa0 <_Z22__fetch_global_Serial1v>
   dbc28:	6803      	ldr	r3, [r0, #0]
   dbc2a:	691b      	ldr	r3, [r3, #16]
   dbc2c:	4798      	blx	r3
   dbc2e:	2800      	cmp	r0, #0
   dbc30:	dd01      	ble.n	dbc36 <serialEventRun+0x2e>
        serialEvent1();
   dbc32:	f3af 8000 	nop.w
}
   dbc36:	bd08      	pop	{r3, pc}
	...

000dbc40 <_post_loop>:
{
   dbc40:	b508      	push	{r3, lr}
	serialEventRun();
   dbc42:	f7ff ffe1 	bl	dbc08 <serialEventRun>
		return !timeout_fn;
	}

	static inline system_tick_t current_time()
	{
		return HAL_Timer_Get_Milli_Seconds();
   dbc46:	f7fc fe21 	bl	d888c <HAL_Timer_Get_Milli_Seconds>
	/**
	 * Lifesign that the application is still working normally.
	 */
	static void checkin()
	{
		last_checkin = current_time();
   dbc4a:	4b01      	ldr	r3, [pc, #4]	; (dbc50 <_post_loop+0x10>)
   dbc4c:	6018      	str	r0, [r3, #0]
}
   dbc4e:	bd08      	pop	{r3, pc}
   dbc50:	2003e720 	.word	0x2003e720

000dbc54 <_Z33system_initialize_user_backup_ramv>:
    memcpy(&link_global_retained_start, &link_global_retained_initial_values, len);
   dbc54:	4805      	ldr	r0, [pc, #20]	; (dbc6c <_Z33system_initialize_user_backup_ramv+0x18>)
   dbc56:	4a06      	ldr	r2, [pc, #24]	; (dbc70 <_Z33system_initialize_user_backup_ramv+0x1c>)
   dbc58:	4906      	ldr	r1, [pc, #24]	; (dbc74 <_Z33system_initialize_user_backup_ramv+0x20>)
{
   dbc5a:	b508      	push	{r3, lr}
    memcpy(&link_global_retained_start, &link_global_retained_initial_values, len);
   dbc5c:	1a12      	subs	r2, r2, r0
   dbc5e:	f000 fe19 	bl	dc894 <memcpy>
    __backup_sram_signature = signature;
   dbc62:	4b05      	ldr	r3, [pc, #20]	; (dbc78 <_Z33system_initialize_user_backup_ramv+0x24>)
   dbc64:	4a05      	ldr	r2, [pc, #20]	; (dbc7c <_Z33system_initialize_user_backup_ramv+0x28>)
   dbc66:	601a      	str	r2, [r3, #0]
}
   dbc68:	bd08      	pop	{r3, pc}
   dbc6a:	bf00      	nop
   dbc6c:	2003f400 	.word	0x2003f400
   dbc70:	2003f404 	.word	0x2003f404
   dbc74:	000ddc50 	.word	0x000ddc50
   dbc78:	2003f400 	.word	0x2003f400
   dbc7c:	9a271c1e 	.word	0x9a271c1e

000dbc80 <_Z27ctrl_request_custom_handlerP12ctrl_request>:
void __attribute((weak)) ctrl_request_custom_handler(ctrl_request* req) {
   dbc80:	b507      	push	{r0, r1, r2, lr}
    system_ctrl_set_result(req, SYSTEM_ERROR_NOT_SUPPORTED, nullptr, nullptr, nullptr);
   dbc82:	2300      	movs	r3, #0
   dbc84:	9300      	str	r3, [sp, #0]
   dbc86:	461a      	mov	r2, r3
   dbc88:	f06f 0177 	mvn.w	r1, #119	; 0x77
   dbc8c:	f7fd f83a 	bl	d8d04 <system_ctrl_set_result>
}
   dbc90:	b003      	add	sp, #12
   dbc92:	f85d fb04 	ldr.w	pc, [sp], #4
	...

000dbc98 <_ZL20ctrl_request_handlerP12ctrl_request>:
static void ctrl_request_handler(ctrl_request* req) {
   dbc98:	b507      	push	{r0, r1, r2, lr}
    switch (req->type) {
   dbc9a:	8843      	ldrh	r3, [r0, #2]
   dbc9c:	2b0a      	cmp	r3, #10
   dbc9e:	d008      	beq.n	dbcb2 <_ZL20ctrl_request_handlerP12ctrl_request+0x1a>
   dbca0:	2b50      	cmp	r3, #80	; 0x50
   dbca2:	d10b      	bne.n	dbcbc <_ZL20ctrl_request_handlerP12ctrl_request+0x24>
        if (log_process_ctrl_request_callback) {
   dbca4:	4b09      	ldr	r3, [pc, #36]	; (dbccc <_ZL20ctrl_request_handlerP12ctrl_request+0x34>)
   dbca6:	681b      	ldr	r3, [r3, #0]
   dbca8:	b14b      	cbz	r3, dbcbe <_ZL20ctrl_request_handlerP12ctrl_request+0x26>
}
   dbcaa:	b003      	add	sp, #12
   dbcac:	f85d eb04 	ldr.w	lr, [sp], #4
            log_process_ctrl_request_callback(req);
   dbcb0:	4718      	bx	r3
        ctrl_request_custom_handler(req);
   dbcb2:	f7ff ffe5 	bl	dbc80 <_Z27ctrl_request_custom_handlerP12ctrl_request>
}
   dbcb6:	b003      	add	sp, #12
   dbcb8:	f85d fb04 	ldr.w	pc, [sp], #4
        system_ctrl_set_result(req, SYSTEM_ERROR_NOT_SUPPORTED, nullptr, nullptr, nullptr);
   dbcbc:	2300      	movs	r3, #0
   dbcbe:	9300      	str	r3, [sp, #0]
   dbcc0:	461a      	mov	r2, r3
   dbcc2:	f06f 0177 	mvn.w	r1, #119	; 0x77
   dbcc6:	f7fd f81d 	bl	d8d04 <system_ctrl_set_result>
}
   dbcca:	e7f4      	b.n	dbcb6 <_ZL20ctrl_request_handlerP12ctrl_request+0x1e>
   dbccc:	2003e71c 	.word	0x2003e71c

000dbcd0 <module_user_init_hook>:
{
   dbcd0:	b510      	push	{r4, lr}
    newlib_impure_ptr_callback([](struct _reent* r, size_t size, uint32_t version, void* ctx) -> void {
   dbcd2:	4812      	ldr	r0, [pc, #72]	; (dbd1c <module_user_init_hook+0x4c>)
   dbcd4:	2100      	movs	r1, #0
   dbcd6:	f7fd f90b 	bl	d8ef0 <newlib_impure_ptr_callback>
#endif // HAL_PLATFORM_NEWLIB

#if HAL_PLATFORM_BACKUP_RAM
    backup_ram_was_valid_ = __backup_sram_signature == signature;
   dbcda:	4b11      	ldr	r3, [pc, #68]	; (dbd20 <module_user_init_hook+0x50>)
   dbcdc:	681a      	ldr	r2, [r3, #0]
   dbcde:	4b11      	ldr	r3, [pc, #68]	; (dbd24 <module_user_init_hook+0x54>)
   dbce0:	429a      	cmp	r2, r3
   dbce2:	4b11      	ldr	r3, [pc, #68]	; (dbd28 <module_user_init_hook+0x58>)
   dbce4:	bf0c      	ite	eq
   dbce6:	2201      	moveq	r2, #1
   dbce8:	2200      	movne	r2, #0
   dbcea:	701a      	strb	r2, [r3, #0]
    if (!backup_ram_was_valid_) {
   dbcec:	d001      	beq.n	dbcf2 <module_user_init_hook+0x22>
        system_initialize_user_backup_ram();
   dbcee:	f7ff ffb1 	bl	dbc54 <_Z33system_initialize_user_backup_ramv>
    }
#endif

#if HAL_PLATFORM_RNG
    // Initialize the default stdlib PRNG using hardware RNG as a seed
    const uint32_t seed = HAL_RNG_GetRandomNumber();
   dbcf2:	f7fc fdbb 	bl	d886c <HAL_RNG_GetRandomNumber>
   dbcf6:	4604      	mov	r4, r0
    srand(seed);
   dbcf8:	f000 fdfc 	bl	dc8f4 <srand>

    // If the user defines random_seed_from_cloud, call it with a seed value
    // generated by a hardware RNG as well.
    if (random_seed_from_cloud) {
   dbcfc:	4b0b      	ldr	r3, [pc, #44]	; (dbd2c <module_user_init_hook+0x5c>)
   dbcfe:	b113      	cbz	r3, dbd06 <module_user_init_hook+0x36>
        random_seed_from_cloud(seed);
   dbd00:	4620      	mov	r0, r4
   dbd02:	f3af 8000 	nop.w
    }
#endif
    // Register the random_seed_from_cloud handler
    spark_set_random_seed_from_cloud_handler(&random_seed_from_cloud, nullptr);
   dbd06:	2100      	movs	r1, #0
   dbd08:	4808      	ldr	r0, [pc, #32]	; (dbd2c <module_user_init_hook+0x5c>)
   dbd0a:	f7fd f841 	bl	d8d90 <spark_set_random_seed_from_cloud_handler>

    // Register application handler for the control requests
    system_ctrl_set_app_request_handler(ctrl_request_handler, nullptr);
}
   dbd0e:	e8bd 4010 	ldmia.w	sp!, {r4, lr}
    system_ctrl_set_app_request_handler(ctrl_request_handler, nullptr);
   dbd12:	4807      	ldr	r0, [pc, #28]	; (dbd30 <module_user_init_hook+0x60>)
   dbd14:	2100      	movs	r1, #0
   dbd16:	f7fc bfeb 	b.w	d8cf0 <system_ctrl_set_app_request_handler>
   dbd1a:	bf00      	nop
   dbd1c:	000dbbfd 	.word	0x000dbbfd
   dbd20:	2003f400 	.word	0x2003f400
   dbd24:	9a271c1e 	.word	0x9a271c1e
   dbd28:	2003e718 	.word	0x2003e718
   dbd2c:	00000000 	.word	0x00000000
   dbd30:	000dbc99 	.word	0x000dbc99

000dbd34 <spark_protocol_instance>:
extern "C" {
#endif

DYNALIB_BEGIN(communication)

DYNALIB_FN(0, communication, spark_protocol_instance, ProtocolFacade*(void))
   dbd34:	b508      	push	{r3, lr}
   dbd36:	4b02      	ldr	r3, [pc, #8]	; (dbd40 <spark_protocol_instance+0xc>)
   dbd38:	681b      	ldr	r3, [r3, #0]
   dbd3a:	681b      	ldr	r3, [r3, #0]
   dbd3c:	9301      	str	r3, [sp, #4]
   dbd3e:	bd08      	pop	{r3, pc}
   dbd40:	0003025c 	.word	0x0003025c

000dbd44 <spark_protocol_set_product_id>:
DYNALIB_FN(1, communication, spark_protocol_set_product_id, void(ProtocolFacade*, product_id_t, unsigned, void*))
   dbd44:	b508      	push	{r3, lr}
   dbd46:	4b02      	ldr	r3, [pc, #8]	; (dbd50 <spark_protocol_set_product_id+0xc>)
   dbd48:	681b      	ldr	r3, [r3, #0]
   dbd4a:	685b      	ldr	r3, [r3, #4]
   dbd4c:	9301      	str	r3, [sp, #4]
   dbd4e:	bd08      	pop	{r3, pc}
   dbd50:	0003025c 	.word	0x0003025c

000dbd54 <spark_protocol_set_product_firmware_version>:
DYNALIB_FN(2, communication, spark_protocol_set_product_firmware_version, void(ProtocolFacade*, product_firmware_version_t, unsigned, void*))
   dbd54:	b508      	push	{r3, lr}
   dbd56:	4b02      	ldr	r3, [pc, #8]	; (dbd60 <spark_protocol_set_product_firmware_version+0xc>)
   dbd58:	681b      	ldr	r3, [r3, #0]
   dbd5a:	689b      	ldr	r3, [r3, #8]
   dbd5c:	9301      	str	r3, [sp, #4]
   dbd5e:	bd08      	pop	{r3, pc}
   dbd60:	0003025c 	.word	0x0003025c

000dbd64 <pinAvailable>:
/*
 * @brief Perform safety check on desired pin to see if it's already
 * being used.  Return 0 if used, otherwise return 1 if available.
 */
bool pinAvailable(uint16_t pin) {
  if (pin >= TOTAL_PINS) {
   dbd64:	2823      	cmp	r0, #35	; 0x23
bool pinAvailable(uint16_t pin) {
   dbd66:	b513      	push	{r0, r1, r4, lr}
  if (pin >= TOTAL_PINS) {
   dbd68:	d902      	bls.n	dbd70 <pinAvailable+0xc>
    return false;
   dbd6a:	2000      	movs	r0, #0
    return false; // 'pin' is used
  }
#endif

  return true; // 'pin' is available
}
   dbd6c:	b002      	add	sp, #8
   dbd6e:	bd10      	pop	{r4, pc}
  if((pin == SCK || pin == MOSI || pin == MISO) && hal_spi_is_enabled(SPI.interface()) == true)
   dbd70:	f1a0 030b 	sub.w	r3, r0, #11
   dbd74:	2b02      	cmp	r3, #2
   dbd76:	d81a      	bhi.n	dbdae <pinAvailable+0x4a>

template <hal_spi_interface_t Interface>
class SpiProxy {
public:
    static SPIClass& instance() {
        static SPIClass instance(Interface);
   dbd78:	4c17      	ldr	r4, [pc, #92]	; (dbdd8 <pinAvailable+0x74>)
   dbd7a:	7821      	ldrb	r1, [r4, #0]
   dbd7c:	f3bf 8f5b 	dmb	ish
   dbd80:	f011 0101 	ands.w	r1, r1, #1
   dbd84:	d10b      	bne.n	dbd9e <pinAvailable+0x3a>
   dbd86:	4620      	mov	r0, r4
   dbd88:	9101      	str	r1, [sp, #4]
   dbd8a:	f7f8 f995 	bl	d40b8 <__cxa_guard_acquire>
   dbd8e:	9901      	ldr	r1, [sp, #4]
   dbd90:	b128      	cbz	r0, dbd9e <pinAvailable+0x3a>
   dbd92:	4812      	ldr	r0, [pc, #72]	; (dbddc <pinAvailable+0x78>)
   dbd94:	f7ff fa94 	bl	db2c0 <_ZN8SPIClassC1E19hal_spi_interface_t>
   dbd98:	4620      	mov	r0, r4
   dbd9a:	f7f8 f992 	bl	d40c2 <__cxa_guard_release>
   dbd9e:	4b0f      	ldr	r3, [pc, #60]	; (dbddc <pinAvailable+0x78>)
   dbda0:	7818      	ldrb	r0, [r3, #0]
   dbda2:	f7fc fe73 	bl	d8a8c <hal_spi_is_enabled>
   dbda6:	2800      	cmp	r0, #0
   dbda8:	d1df      	bne.n	dbd6a <pinAvailable+0x6>
  return true; // 'pin' is available
   dbdaa:	2001      	movs	r0, #1
   dbdac:	e7de      	b.n	dbd6c <pinAvailable+0x8>
  if((pin == SCL || pin == SDA) && hal_i2c_is_enabled(Wire.interface(), nullptr) == true)
   dbdae:	2801      	cmp	r0, #1
   dbdb0:	d809      	bhi.n	dbdc6 <pinAvailable+0x62>
   dbdb2:	f000 f89b 	bl	dbeec <_Z19__fetch_global_Wirev>
   dbdb6:	2100      	movs	r1, #0
   dbdb8:	7c00      	ldrb	r0, [r0, #16]
   dbdba:	f7fc fe07 	bl	d89cc <hal_i2c_is_enabled>
  if((pin == RX || pin == TX) && hal_usart_is_enabled(Serial1.interface()) == true)
   dbdbe:	f080 0001 	eor.w	r0, r0, #1
   dbdc2:	b2c0      	uxtb	r0, r0
   dbdc4:	e7d2      	b.n	dbd6c <pinAvailable+0x8>
   dbdc6:	3809      	subs	r0, #9
   dbdc8:	2801      	cmp	r0, #1
   dbdca:	d8ee      	bhi.n	dbdaa <pinAvailable+0x46>
   dbdcc:	f7ff fe68 	bl	dbaa0 <_Z22__fetch_global_Serial1v>
   dbdd0:	7c00      	ldrb	r0, [r0, #16]
   dbdd2:	f7fc febb 	bl	d8b4c <hal_usart_is_enabled>
   dbdd6:	e7f2      	b.n	dbdbe <pinAvailable+0x5a>
   dbdd8:	2003e2fc 	.word	0x2003e2fc
   dbddc:	2003e300 	.word	0x2003e300

000dbde0 <pinMode>:
  if(pin >= TOTAL_PINS || setMode == PIN_MODE_NONE )
   dbde0:	2823      	cmp	r0, #35	; 0x23
{
   dbde2:	b538      	push	{r3, r4, r5, lr}
   dbde4:	4604      	mov	r4, r0
   dbde6:	460d      	mov	r5, r1
  if(pin >= TOTAL_PINS || setMode == PIN_MODE_NONE )
   dbde8:	d80a      	bhi.n	dbe00 <pinMode+0x20>
   dbdea:	29ff      	cmp	r1, #255	; 0xff
   dbdec:	d008      	beq.n	dbe00 <pinMode+0x20>
  if( !pinAvailable(pin) ) {
   dbdee:	f7ff ffb9 	bl	dbd64 <pinAvailable>
   dbdf2:	b128      	cbz	r0, dbe00 <pinMode+0x20>
  HAL_Pin_Mode(pin, setMode);
   dbdf4:	4629      	mov	r1, r5
   dbdf6:	4620      	mov	r0, r4
}
   dbdf8:	e8bd 4038 	ldmia.w	sp!, {r3, r4, r5, lr}
  HAL_Pin_Mode(pin, setMode);
   dbdfc:	f7fc bd6e 	b.w	d88dc <HAL_Pin_Mode>
}
   dbe00:	bd38      	pop	{r3, r4, r5, pc}

000dbe02 <digitalWrite>:

/*
 * @brief Sets a GPIO pin to HIGH or LOW.
 */
void digitalWrite(pin_t pin, uint8_t value)
{
   dbe02:	b538      	push	{r3, r4, r5, lr}
   dbe04:	4604      	mov	r4, r0
   dbe06:	460d      	mov	r5, r1
    PinMode mode = HAL_Get_Pin_Mode(pin);
   dbe08:	f7fc fd70 	bl	d88ec <HAL_Get_Pin_Mode>
    if (mode==PIN_MODE_NONE || is_input_mode(mode))
   dbe0c:	28ff      	cmp	r0, #255	; 0xff
   dbe0e:	d010      	beq.n	dbe32 <digitalWrite+0x30>
            mode == INPUT_PULLDOWN ||
   dbe10:	2806      	cmp	r0, #6
   dbe12:	d804      	bhi.n	dbe1e <digitalWrite+0x1c>
   dbe14:	234d      	movs	r3, #77	; 0x4d
   dbe16:	fa23 f000 	lsr.w	r0, r3, r0
   dbe1a:	07c3      	lsls	r3, r0, #31
   dbe1c:	d409      	bmi.n	dbe32 <digitalWrite+0x30>
        return;
  // Safety check
  if( !pinAvailable(pin) ) {
   dbe1e:	4620      	mov	r0, r4
   dbe20:	f7ff ffa0 	bl	dbd64 <pinAvailable>
   dbe24:	b128      	cbz	r0, dbe32 <digitalWrite+0x30>
    return;
  }

  HAL_GPIO_Write(pin, value);
   dbe26:	4629      	mov	r1, r5
   dbe28:	4620      	mov	r0, r4
}
   dbe2a:	e8bd 4038 	ldmia.w	sp!, {r3, r4, r5, lr}
  HAL_GPIO_Write(pin, value);
   dbe2e:	f7fc bd65 	b.w	d88fc <HAL_GPIO_Write>
}
   dbe32:	bd38      	pop	{r3, r4, r5, pc}

000dbe34 <digitalRead>:

/*
 * @brief Reads the value of a GPIO pin. Should return either 1 (HIGH) or 0 (LOW).
 */
int32_t digitalRead(pin_t pin)
{
   dbe34:	b510      	push	{r4, lr}
   dbe36:	4604      	mov	r4, r0
    PinMode mode = HAL_Get_Pin_Mode(pin);
   dbe38:	f7fc fd58 	bl	d88ec <HAL_Get_Pin_Mode>
    return mode == AF_OUTPUT_PUSHPULL ||
   dbe3c:	1f03      	subs	r3, r0, #4
    if (is_af_output_mode(mode))
   dbe3e:	b2db      	uxtb	r3, r3
   dbe40:	2b01      	cmp	r3, #1
   dbe42:	d908      	bls.n	dbe56 <digitalRead+0x22>
        return LOW;

    // Safety check
    if( !pinAvailable(pin) ) {
   dbe44:	4620      	mov	r0, r4
   dbe46:	f7ff ff8d 	bl	dbd64 <pinAvailable>
   dbe4a:	b120      	cbz	r0, dbe56 <digitalRead+0x22>
      return LOW;
    }

    return HAL_GPIO_Read(pin);
   dbe4c:	4620      	mov	r0, r4
}
   dbe4e:	e8bd 4010 	ldmia.w	sp!, {r4, lr}
    return HAL_GPIO_Read(pin);
   dbe52:	f7fc bd5b 	b.w	d890c <HAL_GPIO_Read>
}
   dbe56:	2000      	movs	r0, #0
   dbe58:	bd10      	pop	{r4, pc}

000dbe5a <analogRead>:
 * Note: ADC is 12-bit. Currently it returns 0-4095
 */
int32_t analogRead(pin_t pin)
{
  // Allow people to use 0-7 to define analog pins by checking to see if the values are too low.
  if(pin < FIRST_ANALOG_PIN)
   dbe5a:	280d      	cmp	r0, #13
{
   dbe5c:	b510      	push	{r4, lr}
   dbe5e:	4604      	mov	r4, r0
  {
    pin = pin + FIRST_ANALOG_PIN;
   dbe60:	bf9c      	itt	ls
   dbe62:	340e      	addls	r4, #14
   dbe64:	b2a4      	uxthls	r4, r4
  }

  // Safety check
  if( !pinAvailable(pin) ) {
   dbe66:	4620      	mov	r0, r4
   dbe68:	f7ff ff7c 	bl	dbd64 <pinAvailable>
   dbe6c:	b150      	cbz	r0, dbe84 <analogRead+0x2a>
    return LOW;
  }

  if(HAL_Validate_Pin_Function(pin, PF_ADC)!=PF_ADC)
   dbe6e:	2103      	movs	r1, #3
   dbe70:	4620      	mov	r0, r4
   dbe72:	f7fc fd2b 	bl	d88cc <HAL_Validate_Pin_Function>
   dbe76:	2803      	cmp	r0, #3
   dbe78:	d104      	bne.n	dbe84 <analogRead+0x2a>
  {
    return LOW;
  }

  return hal_adc_read(pin);
   dbe7a:	4620      	mov	r0, r4
}
   dbe7c:	e8bd 4010 	ldmia.w	sp!, {r4, lr}
  return hal_adc_read(pin);
   dbe80:	f7fc bd5c 	b.w	d893c <hal_adc_read>
}
   dbe84:	2000      	movs	r0, #0
   dbe86:	bd10      	pop	{r4, pc}

000dbe88 <__tcf_0>:
}
#endif

TwoWire& __fetch_global_Wire()
{
	static TwoWire wire(HAL_I2C_INTERFACE1, acquireWireBuffer());
   dbe88:	4770      	bx	lr

000dbe8a <__tcf_1>:
   dbe8a:	4770      	bx	lr

000dbe8c <_Z17acquireWireBufferv>:
{
   dbe8c:	b538      	push	{r3, r4, r5, lr}
	hal_i2c_config_t config = {
   dbe8e:	2300      	movs	r3, #0
   dbe90:	2520      	movs	r5, #32
   dbe92:	8043      	strh	r3, [r0, #2]
   dbe94:	2314      	movs	r3, #20
{
   dbe96:	4604      	mov	r4, r0
	hal_i2c_config_t config = {
   dbe98:	8003      	strh	r3, [r0, #0]
   dbe9a:	6085      	str	r5, [r0, #8]
   dbe9c:	6105      	str	r5, [r0, #16]
		.rx_buffer = new (std::nothrow) uint8_t[I2C_BUFFER_LENGTH],
   dbe9e:	4906      	ldr	r1, [pc, #24]	; (dbeb8 <_Z17acquireWireBufferv+0x2c>)
   dbea0:	4628      	mov	r0, r5
   dbea2:	f000 f86f 	bl	dbf84 <_ZnajRKSt9nothrow_t>
		.tx_buffer = new (std::nothrow) uint8_t[I2C_BUFFER_LENGTH],
   dbea6:	4904      	ldr	r1, [pc, #16]	; (dbeb8 <_Z17acquireWireBufferv+0x2c>)
	};
   dbea8:	6060      	str	r0, [r4, #4]
		.tx_buffer = new (std::nothrow) uint8_t[I2C_BUFFER_LENGTH],
   dbeaa:	4628      	mov	r0, r5
   dbeac:	f000 f86a 	bl	dbf84 <_ZnajRKSt9nothrow_t>
	};
   dbeb0:	60e0      	str	r0, [r4, #12]
}
   dbeb2:	4620      	mov	r0, r4
   dbeb4:	bd38      	pop	{r3, r4, r5, pc}
   dbeb6:	bf00      	nop
   dbeb8:	000ddab4 	.word	0x000ddab4

000dbebc <_Z18acquireWire1Bufferv>:
   dbebc:	b538      	push	{r3, r4, r5, lr}
   dbebe:	2300      	movs	r3, #0
   dbec0:	2520      	movs	r5, #32
   dbec2:	8043      	strh	r3, [r0, #2]
   dbec4:	2314      	movs	r3, #20
   dbec6:	4604      	mov	r4, r0
   dbec8:	8003      	strh	r3, [r0, #0]
   dbeca:	6085      	str	r5, [r0, #8]
   dbecc:	6105      	str	r5, [r0, #16]
   dbece:	4906      	ldr	r1, [pc, #24]	; (dbee8 <_Z18acquireWire1Bufferv+0x2c>)
   dbed0:	4628      	mov	r0, r5
   dbed2:	f000 f857 	bl	dbf84 <_ZnajRKSt9nothrow_t>
   dbed6:	4904      	ldr	r1, [pc, #16]	; (dbee8 <_Z18acquireWire1Bufferv+0x2c>)
   dbed8:	6060      	str	r0, [r4, #4]
   dbeda:	4628      	mov	r0, r5
   dbedc:	f000 f852 	bl	dbf84 <_ZnajRKSt9nothrow_t>
   dbee0:	60e0      	str	r0, [r4, #12]
   dbee2:	4620      	mov	r0, r4
   dbee4:	bd38      	pop	{r3, r4, r5, pc}
   dbee6:	bf00      	nop
   dbee8:	000ddab4 	.word	0x000ddab4

000dbeec <_Z19__fetch_global_Wirev>:
{
   dbeec:	b530      	push	{r4, r5, lr}
	static TwoWire wire(HAL_I2C_INTERFACE1, acquireWireBuffer());
   dbeee:	4d0e      	ldr	r5, [pc, #56]	; (dbf28 <_Z19__fetch_global_Wirev+0x3c>)
   dbef0:	7829      	ldrb	r1, [r5, #0]
   dbef2:	f3bf 8f5b 	dmb	ish
   dbef6:	f011 0401 	ands.w	r4, r1, #1
{
   dbefa:	b087      	sub	sp, #28
	static TwoWire wire(HAL_I2C_INTERFACE1, acquireWireBuffer());
   dbefc:	d111      	bne.n	dbf22 <_Z19__fetch_global_Wirev+0x36>
   dbefe:	4628      	mov	r0, r5
   dbf00:	f7f8 f8da 	bl	d40b8 <__cxa_guard_acquire>
   dbf04:	b168      	cbz	r0, dbf22 <_Z19__fetch_global_Wirev+0x36>
   dbf06:	a801      	add	r0, sp, #4
   dbf08:	f7ff ffc0 	bl	dbe8c <_Z17acquireWireBufferv>
   dbf0c:	aa01      	add	r2, sp, #4
   dbf0e:	4621      	mov	r1, r4
   dbf10:	4806      	ldr	r0, [pc, #24]	; (dbf2c <_Z19__fetch_global_Wirev+0x40>)
   dbf12:	f7fd fd57 	bl	d99c4 <_ZN7TwoWireC1E19hal_i2c_interface_tRK16hal_i2c_config_t>
   dbf16:	4628      	mov	r0, r5
   dbf18:	f7f8 f8d3 	bl	d40c2 <__cxa_guard_release>
   dbf1c:	4804      	ldr	r0, [pc, #16]	; (dbf30 <_Z19__fetch_global_Wirev+0x44>)
   dbf1e:	f000 fca1 	bl	dc864 <atexit>
	return wire;
}
   dbf22:	4802      	ldr	r0, [pc, #8]	; (dbf2c <_Z19__fetch_global_Wirev+0x40>)
   dbf24:	b007      	add	sp, #28
   dbf26:	bd30      	pop	{r4, r5, pc}
   dbf28:	2003e724 	.word	0x2003e724
   dbf2c:	2003e72c 	.word	0x2003e72c
   dbf30:	000dbe89 	.word	0x000dbe89

000dbf34 <_Z20__fetch_global_Wire1v>:

#if Wiring_Wire1
TwoWire& __fetch_global_Wire1()
{
   dbf34:	b510      	push	{r4, lr}
	static TwoWire wire(HAL_I2C_INTERFACE2, acquireWire1Buffer());
   dbf36:	4c0e      	ldr	r4, [pc, #56]	; (dbf70 <_Z20__fetch_global_Wire1v+0x3c>)
   dbf38:	7823      	ldrb	r3, [r4, #0]
   dbf3a:	f3bf 8f5b 	dmb	ish
   dbf3e:	07db      	lsls	r3, r3, #31
{
   dbf40:	b086      	sub	sp, #24
	static TwoWire wire(HAL_I2C_INTERFACE2, acquireWire1Buffer());
   dbf42:	d411      	bmi.n	dbf68 <_Z20__fetch_global_Wire1v+0x34>
   dbf44:	4620      	mov	r0, r4
   dbf46:	f7f8 f8b7 	bl	d40b8 <__cxa_guard_acquire>
   dbf4a:	b168      	cbz	r0, dbf68 <_Z20__fetch_global_Wire1v+0x34>
   dbf4c:	a801      	add	r0, sp, #4
   dbf4e:	f7ff ffb5 	bl	dbebc <_Z18acquireWire1Bufferv>
   dbf52:	aa01      	add	r2, sp, #4
   dbf54:	2101      	movs	r1, #1
   dbf56:	4807      	ldr	r0, [pc, #28]	; (dbf74 <_Z20__fetch_global_Wire1v+0x40>)
   dbf58:	f7fd fd34 	bl	d99c4 <_ZN7TwoWireC1E19hal_i2c_interface_tRK16hal_i2c_config_t>
   dbf5c:	4620      	mov	r0, r4
   dbf5e:	f7f8 f8b0 	bl	d40c2 <__cxa_guard_release>
   dbf62:	4805      	ldr	r0, [pc, #20]	; (dbf78 <_Z20__fetch_global_Wire1v+0x44>)
   dbf64:	f000 fc7e 	bl	dc864 <atexit>
	return wire;
}
   dbf68:	4802      	ldr	r0, [pc, #8]	; (dbf74 <_Z20__fetch_global_Wire1v+0x40>)
   dbf6a:	b006      	add	sp, #24
   dbf6c:	bd10      	pop	{r4, pc}
   dbf6e:	bf00      	nop
   dbf70:	2003e728 	.word	0x2003e728
   dbf74:	2003e740 	.word	0x2003e740
   dbf78:	000dbe8b 	.word	0x000dbe8b

000dbf7c <_ZdlPvj>:
   dbf7c:	f7f8 b88f 	b.w	d409e <_ZdlPv>

000dbf80 <_ZnwjRKSt9nothrow_t>:
   dbf80:	f7f8 b889 	b.w	d4096 <_Znwj>

000dbf84 <_ZnajRKSt9nothrow_t>:
   dbf84:	f7f8 b889 	b.w	d409a <_Znaj>

000dbf88 <_ZSt17__throw_bad_allocv>:
   dbf88:	b508      	push	{r3, lr}
   dbf8a:	f7fc ffa1 	bl	d8ed0 <abort>

000dbf8e <_ZSt20__throw_length_errorPKc>:
   dbf8e:	b508      	push	{r3, lr}
   dbf90:	f7fc ff9e 	bl	d8ed0 <abort>

000dbf94 <_ZSt25__throw_bad_function_callv>:
   dbf94:	b508      	push	{r3, lr}
   dbf96:	f7fc ff9b 	bl	d8ed0 <abort>
	...

000dbf9c <__aeabi_drsub>:
   dbf9c:	f081 4100 	eor.w	r1, r1, #2147483648	; 0x80000000
   dbfa0:	e002      	b.n	dbfa8 <__adddf3>
   dbfa2:	bf00      	nop

000dbfa4 <__aeabi_dsub>:
   dbfa4:	f083 4300 	eor.w	r3, r3, #2147483648	; 0x80000000

000dbfa8 <__adddf3>:
   dbfa8:	b530      	push	{r4, r5, lr}
   dbfaa:	ea4f 0441 	mov.w	r4, r1, lsl #1
   dbfae:	ea4f 0543 	mov.w	r5, r3, lsl #1
   dbfb2:	ea94 0f05 	teq	r4, r5
   dbfb6:	bf08      	it	eq
   dbfb8:	ea90 0f02 	teqeq	r0, r2
   dbfbc:	bf1f      	itttt	ne
   dbfbe:	ea54 0c00 	orrsne.w	ip, r4, r0
   dbfc2:	ea55 0c02 	orrsne.w	ip, r5, r2
   dbfc6:	ea7f 5c64 	mvnsne.w	ip, r4, asr #21
   dbfca:	ea7f 5c65 	mvnsne.w	ip, r5, asr #21
   dbfce:	f000 80e2 	beq.w	dc196 <__adddf3+0x1ee>
   dbfd2:	ea4f 5454 	mov.w	r4, r4, lsr #21
   dbfd6:	ebd4 5555 	rsbs	r5, r4, r5, lsr #21
   dbfda:	bfb8      	it	lt
   dbfdc:	426d      	neglt	r5, r5
   dbfde:	dd0c      	ble.n	dbffa <__adddf3+0x52>
   dbfe0:	442c      	add	r4, r5
   dbfe2:	ea80 0202 	eor.w	r2, r0, r2
   dbfe6:	ea81 0303 	eor.w	r3, r1, r3
   dbfea:	ea82 0000 	eor.w	r0, r2, r0
   dbfee:	ea83 0101 	eor.w	r1, r3, r1
   dbff2:	ea80 0202 	eor.w	r2, r0, r2
   dbff6:	ea81 0303 	eor.w	r3, r1, r3
   dbffa:	2d36      	cmp	r5, #54	; 0x36
   dbffc:	bf88      	it	hi
   dbffe:	bd30      	pophi	{r4, r5, pc}
   dc000:	f011 4f00 	tst.w	r1, #2147483648	; 0x80000000
   dc004:	ea4f 3101 	mov.w	r1, r1, lsl #12
   dc008:	f44f 1c80 	mov.w	ip, #1048576	; 0x100000
   dc00c:	ea4c 3111 	orr.w	r1, ip, r1, lsr #12
   dc010:	d002      	beq.n	dc018 <__adddf3+0x70>
   dc012:	4240      	negs	r0, r0
   dc014:	eb61 0141 	sbc.w	r1, r1, r1, lsl #1
   dc018:	f013 4f00 	tst.w	r3, #2147483648	; 0x80000000
   dc01c:	ea4f 3303 	mov.w	r3, r3, lsl #12
   dc020:	ea4c 3313 	orr.w	r3, ip, r3, lsr #12
   dc024:	d002      	beq.n	dc02c <__adddf3+0x84>
   dc026:	4252      	negs	r2, r2
   dc028:	eb63 0343 	sbc.w	r3, r3, r3, lsl #1
   dc02c:	ea94 0f05 	teq	r4, r5
   dc030:	f000 80a7 	beq.w	dc182 <__adddf3+0x1da>
   dc034:	f1a4 0401 	sub.w	r4, r4, #1
   dc038:	f1d5 0e20 	rsbs	lr, r5, #32
   dc03c:	db0d      	blt.n	dc05a <__adddf3+0xb2>
   dc03e:	fa02 fc0e 	lsl.w	ip, r2, lr
   dc042:	fa22 f205 	lsr.w	r2, r2, r5
   dc046:	1880      	adds	r0, r0, r2
   dc048:	f141 0100 	adc.w	r1, r1, #0
   dc04c:	fa03 f20e 	lsl.w	r2, r3, lr
   dc050:	1880      	adds	r0, r0, r2
   dc052:	fa43 f305 	asr.w	r3, r3, r5
   dc056:	4159      	adcs	r1, r3
   dc058:	e00e      	b.n	dc078 <__adddf3+0xd0>
   dc05a:	f1a5 0520 	sub.w	r5, r5, #32
   dc05e:	f10e 0e20 	add.w	lr, lr, #32
   dc062:	2a01      	cmp	r2, #1
   dc064:	fa03 fc0e 	lsl.w	ip, r3, lr
   dc068:	bf28      	it	cs
   dc06a:	f04c 0c02 	orrcs.w	ip, ip, #2
   dc06e:	fa43 f305 	asr.w	r3, r3, r5
   dc072:	18c0      	adds	r0, r0, r3
   dc074:	eb51 71e3 	adcs.w	r1, r1, r3, asr #31
   dc078:	f001 4500 	and.w	r5, r1, #2147483648	; 0x80000000
   dc07c:	d507      	bpl.n	dc08e <__adddf3+0xe6>
   dc07e:	f04f 0e00 	mov.w	lr, #0
   dc082:	f1dc 0c00 	rsbs	ip, ip, #0
   dc086:	eb7e 0000 	sbcs.w	r0, lr, r0
   dc08a:	eb6e 0101 	sbc.w	r1, lr, r1
   dc08e:	f5b1 1f80 	cmp.w	r1, #1048576	; 0x100000
   dc092:	d31b      	bcc.n	dc0cc <__adddf3+0x124>
   dc094:	f5b1 1f00 	cmp.w	r1, #2097152	; 0x200000
   dc098:	d30c      	bcc.n	dc0b4 <__adddf3+0x10c>
   dc09a:	0849      	lsrs	r1, r1, #1
   dc09c:	ea5f 0030 	movs.w	r0, r0, rrx
   dc0a0:	ea4f 0c3c 	mov.w	ip, ip, rrx
   dc0a4:	f104 0401 	add.w	r4, r4, #1
   dc0a8:	ea4f 5244 	mov.w	r2, r4, lsl #21
   dc0ac:	f512 0f80 	cmn.w	r2, #4194304	; 0x400000
   dc0b0:	f080 809a 	bcs.w	dc1e8 <__adddf3+0x240>
   dc0b4:	f1bc 4f00 	cmp.w	ip, #2147483648	; 0x80000000
   dc0b8:	bf08      	it	eq
   dc0ba:	ea5f 0c50 	movseq.w	ip, r0, lsr #1
   dc0be:	f150 0000 	adcs.w	r0, r0, #0
   dc0c2:	eb41 5104 	adc.w	r1, r1, r4, lsl #20
   dc0c6:	ea41 0105 	orr.w	r1, r1, r5
   dc0ca:	bd30      	pop	{r4, r5, pc}
   dc0cc:	ea5f 0c4c 	movs.w	ip, ip, lsl #1
   dc0d0:	4140      	adcs	r0, r0
   dc0d2:	eb41 0101 	adc.w	r1, r1, r1
   dc0d6:	3c01      	subs	r4, #1
   dc0d8:	bf28      	it	cs
   dc0da:	f5b1 1f80 	cmpcs.w	r1, #1048576	; 0x100000
   dc0de:	d2e9      	bcs.n	dc0b4 <__adddf3+0x10c>
   dc0e0:	f091 0f00 	teq	r1, #0
   dc0e4:	bf04      	itt	eq
   dc0e6:	4601      	moveq	r1, r0
   dc0e8:	2000      	moveq	r0, #0
   dc0ea:	fab1 f381 	clz	r3, r1
   dc0ee:	bf08      	it	eq
   dc0f0:	3320      	addeq	r3, #32
   dc0f2:	f1a3 030b 	sub.w	r3, r3, #11
   dc0f6:	f1b3 0220 	subs.w	r2, r3, #32
   dc0fa:	da0c      	bge.n	dc116 <__adddf3+0x16e>
   dc0fc:	320c      	adds	r2, #12
   dc0fe:	dd08      	ble.n	dc112 <__adddf3+0x16a>
   dc100:	f102 0c14 	add.w	ip, r2, #20
   dc104:	f1c2 020c 	rsb	r2, r2, #12
   dc108:	fa01 f00c 	lsl.w	r0, r1, ip
   dc10c:	fa21 f102 	lsr.w	r1, r1, r2
   dc110:	e00c      	b.n	dc12c <__adddf3+0x184>
   dc112:	f102 0214 	add.w	r2, r2, #20
   dc116:	bfd8      	it	le
   dc118:	f1c2 0c20 	rsble	ip, r2, #32
   dc11c:	fa01 f102 	lsl.w	r1, r1, r2
   dc120:	fa20 fc0c 	lsr.w	ip, r0, ip
   dc124:	bfdc      	itt	le
   dc126:	ea41 010c 	orrle.w	r1, r1, ip
   dc12a:	4090      	lslle	r0, r2
   dc12c:	1ae4      	subs	r4, r4, r3
   dc12e:	bfa2      	ittt	ge
   dc130:	eb01 5104 	addge.w	r1, r1, r4, lsl #20
   dc134:	4329      	orrge	r1, r5
   dc136:	bd30      	popge	{r4, r5, pc}
   dc138:	ea6f 0404 	mvn.w	r4, r4
   dc13c:	3c1f      	subs	r4, #31
   dc13e:	da1c      	bge.n	dc17a <__adddf3+0x1d2>
   dc140:	340c      	adds	r4, #12
   dc142:	dc0e      	bgt.n	dc162 <__adddf3+0x1ba>
   dc144:	f104 0414 	add.w	r4, r4, #20
   dc148:	f1c4 0220 	rsb	r2, r4, #32
   dc14c:	fa20 f004 	lsr.w	r0, r0, r4
   dc150:	fa01 f302 	lsl.w	r3, r1, r2
   dc154:	ea40 0003 	orr.w	r0, r0, r3
   dc158:	fa21 f304 	lsr.w	r3, r1, r4
   dc15c:	ea45 0103 	orr.w	r1, r5, r3
   dc160:	bd30      	pop	{r4, r5, pc}
   dc162:	f1c4 040c 	rsb	r4, r4, #12
   dc166:	f1c4 0220 	rsb	r2, r4, #32
   dc16a:	fa20 f002 	lsr.w	r0, r0, r2
   dc16e:	fa01 f304 	lsl.w	r3, r1, r4
   dc172:	ea40 0003 	orr.w	r0, r0, r3
   dc176:	4629      	mov	r1, r5
   dc178:	bd30      	pop	{r4, r5, pc}
   dc17a:	fa21 f004 	lsr.w	r0, r1, r4
   dc17e:	4629      	mov	r1, r5
   dc180:	bd30      	pop	{r4, r5, pc}
   dc182:	f094 0f00 	teq	r4, #0
   dc186:	f483 1380 	eor.w	r3, r3, #1048576	; 0x100000
   dc18a:	bf06      	itte	eq
   dc18c:	f481 1180 	eoreq.w	r1, r1, #1048576	; 0x100000
   dc190:	3401      	addeq	r4, #1
   dc192:	3d01      	subne	r5, #1
   dc194:	e74e      	b.n	dc034 <__adddf3+0x8c>
   dc196:	ea7f 5c64 	mvns.w	ip, r4, asr #21
   dc19a:	bf18      	it	ne
   dc19c:	ea7f 5c65 	mvnsne.w	ip, r5, asr #21
   dc1a0:	d029      	beq.n	dc1f6 <__adddf3+0x24e>
   dc1a2:	ea94 0f05 	teq	r4, r5
   dc1a6:	bf08      	it	eq
   dc1a8:	ea90 0f02 	teqeq	r0, r2
   dc1ac:	d005      	beq.n	dc1ba <__adddf3+0x212>
   dc1ae:	ea54 0c00 	orrs.w	ip, r4, r0
   dc1b2:	bf04      	itt	eq
   dc1b4:	4619      	moveq	r1, r3
   dc1b6:	4610      	moveq	r0, r2
   dc1b8:	bd30      	pop	{r4, r5, pc}
   dc1ba:	ea91 0f03 	teq	r1, r3
   dc1be:	bf1e      	ittt	ne
   dc1c0:	2100      	movne	r1, #0
   dc1c2:	2000      	movne	r0, #0
   dc1c4:	bd30      	popne	{r4, r5, pc}
   dc1c6:	ea5f 5c54 	movs.w	ip, r4, lsr #21
   dc1ca:	d105      	bne.n	dc1d8 <__adddf3+0x230>
   dc1cc:	0040      	lsls	r0, r0, #1
   dc1ce:	4149      	adcs	r1, r1
   dc1d0:	bf28      	it	cs
   dc1d2:	f041 4100 	orrcs.w	r1, r1, #2147483648	; 0x80000000
   dc1d6:	bd30      	pop	{r4, r5, pc}
   dc1d8:	f514 0480 	adds.w	r4, r4, #4194304	; 0x400000
   dc1dc:	bf3c      	itt	cc
   dc1de:	f501 1180 	addcc.w	r1, r1, #1048576	; 0x100000
   dc1e2:	bd30      	popcc	{r4, r5, pc}
   dc1e4:	f001 4500 	and.w	r5, r1, #2147483648	; 0x80000000
   dc1e8:	f045 41fe 	orr.w	r1, r5, #2130706432	; 0x7f000000
   dc1ec:	f441 0170 	orr.w	r1, r1, #15728640	; 0xf00000
   dc1f0:	f04f 0000 	mov.w	r0, #0
   dc1f4:	bd30      	pop	{r4, r5, pc}
   dc1f6:	ea7f 5c64 	mvns.w	ip, r4, asr #21
   dc1fa:	bf1a      	itte	ne
   dc1fc:	4619      	movne	r1, r3
   dc1fe:	4610      	movne	r0, r2
   dc200:	ea7f 5c65 	mvnseq.w	ip, r5, asr #21
   dc204:	bf1c      	itt	ne
   dc206:	460b      	movne	r3, r1
   dc208:	4602      	movne	r2, r0
   dc20a:	ea50 3401 	orrs.w	r4, r0, r1, lsl #12
   dc20e:	bf06      	itte	eq
   dc210:	ea52 3503 	orrseq.w	r5, r2, r3, lsl #12
   dc214:	ea91 0f03 	teqeq	r1, r3
   dc218:	f441 2100 	orrne.w	r1, r1, #524288	; 0x80000
   dc21c:	bd30      	pop	{r4, r5, pc}
   dc21e:	bf00      	nop

000dc220 <__aeabi_ui2d>:
   dc220:	f090 0f00 	teq	r0, #0
   dc224:	bf04      	itt	eq
   dc226:	2100      	moveq	r1, #0
   dc228:	4770      	bxeq	lr
   dc22a:	b530      	push	{r4, r5, lr}
   dc22c:	f44f 6480 	mov.w	r4, #1024	; 0x400
   dc230:	f104 0432 	add.w	r4, r4, #50	; 0x32
   dc234:	f04f 0500 	mov.w	r5, #0
   dc238:	f04f 0100 	mov.w	r1, #0
   dc23c:	e750      	b.n	dc0e0 <__adddf3+0x138>
   dc23e:	bf00      	nop

000dc240 <__aeabi_i2d>:
   dc240:	f090 0f00 	teq	r0, #0
   dc244:	bf04      	itt	eq
   dc246:	2100      	moveq	r1, #0
   dc248:	4770      	bxeq	lr
   dc24a:	b530      	push	{r4, r5, lr}
   dc24c:	f44f 6480 	mov.w	r4, #1024	; 0x400
   dc250:	f104 0432 	add.w	r4, r4, #50	; 0x32
   dc254:	f010 4500 	ands.w	r5, r0, #2147483648	; 0x80000000
   dc258:	bf48      	it	mi
   dc25a:	4240      	negmi	r0, r0
   dc25c:	f04f 0100 	mov.w	r1, #0
   dc260:	e73e      	b.n	dc0e0 <__adddf3+0x138>
   dc262:	bf00      	nop

000dc264 <__aeabi_f2d>:
   dc264:	0042      	lsls	r2, r0, #1
   dc266:	ea4f 01e2 	mov.w	r1, r2, asr #3
   dc26a:	ea4f 0131 	mov.w	r1, r1, rrx
   dc26e:	ea4f 7002 	mov.w	r0, r2, lsl #28
   dc272:	bf1f      	itttt	ne
   dc274:	f012 437f 	andsne.w	r3, r2, #4278190080	; 0xff000000
   dc278:	f093 4f7f 	teqne	r3, #4278190080	; 0xff000000
   dc27c:	f081 5160 	eorne.w	r1, r1, #939524096	; 0x38000000
   dc280:	4770      	bxne	lr
   dc282:	f032 427f 	bics.w	r2, r2, #4278190080	; 0xff000000
   dc286:	bf08      	it	eq
   dc288:	4770      	bxeq	lr
   dc28a:	f093 4f7f 	teq	r3, #4278190080	; 0xff000000
   dc28e:	bf04      	itt	eq
   dc290:	f441 2100 	orreq.w	r1, r1, #524288	; 0x80000
   dc294:	4770      	bxeq	lr
   dc296:	b530      	push	{r4, r5, lr}
   dc298:	f44f 7460 	mov.w	r4, #896	; 0x380
   dc29c:	f001 4500 	and.w	r5, r1, #2147483648	; 0x80000000
   dc2a0:	f021 4100 	bic.w	r1, r1, #2147483648	; 0x80000000
   dc2a4:	e71c      	b.n	dc0e0 <__adddf3+0x138>
   dc2a6:	bf00      	nop

000dc2a8 <__aeabi_ul2d>:
   dc2a8:	ea50 0201 	orrs.w	r2, r0, r1
   dc2ac:	bf08      	it	eq
   dc2ae:	4770      	bxeq	lr
   dc2b0:	b530      	push	{r4, r5, lr}
   dc2b2:	f04f 0500 	mov.w	r5, #0
   dc2b6:	e00a      	b.n	dc2ce <__aeabi_l2d+0x16>

000dc2b8 <__aeabi_l2d>:
   dc2b8:	ea50 0201 	orrs.w	r2, r0, r1
   dc2bc:	bf08      	it	eq
   dc2be:	4770      	bxeq	lr
   dc2c0:	b530      	push	{r4, r5, lr}
   dc2c2:	f011 4500 	ands.w	r5, r1, #2147483648	; 0x80000000
   dc2c6:	d502      	bpl.n	dc2ce <__aeabi_l2d+0x16>
   dc2c8:	4240      	negs	r0, r0
   dc2ca:	eb61 0141 	sbc.w	r1, r1, r1, lsl #1
   dc2ce:	f44f 6480 	mov.w	r4, #1024	; 0x400
   dc2d2:	f104 0432 	add.w	r4, r4, #50	; 0x32
   dc2d6:	ea5f 5c91 	movs.w	ip, r1, lsr #22
   dc2da:	f43f aed8 	beq.w	dc08e <__adddf3+0xe6>
   dc2de:	f04f 0203 	mov.w	r2, #3
   dc2e2:	ea5f 0cdc 	movs.w	ip, ip, lsr #3
   dc2e6:	bf18      	it	ne
   dc2e8:	3203      	addne	r2, #3
   dc2ea:	ea5f 0cdc 	movs.w	ip, ip, lsr #3
   dc2ee:	bf18      	it	ne
   dc2f0:	3203      	addne	r2, #3
   dc2f2:	eb02 02dc 	add.w	r2, r2, ip, lsr #3
   dc2f6:	f1c2 0320 	rsb	r3, r2, #32
   dc2fa:	fa00 fc03 	lsl.w	ip, r0, r3
   dc2fe:	fa20 f002 	lsr.w	r0, r0, r2
   dc302:	fa01 fe03 	lsl.w	lr, r1, r3
   dc306:	ea40 000e 	orr.w	r0, r0, lr
   dc30a:	fa21 f102 	lsr.w	r1, r1, r2
   dc30e:	4414      	add	r4, r2
   dc310:	e6bd      	b.n	dc08e <__adddf3+0xe6>
   dc312:	bf00      	nop

000dc314 <__aeabi_dmul>:
   dc314:	b570      	push	{r4, r5, r6, lr}
   dc316:	f04f 0cff 	mov.w	ip, #255	; 0xff
   dc31a:	f44c 6ce0 	orr.w	ip, ip, #1792	; 0x700
   dc31e:	ea1c 5411 	ands.w	r4, ip, r1, lsr #20
   dc322:	bf1d      	ittte	ne
   dc324:	ea1c 5513 	andsne.w	r5, ip, r3, lsr #20
   dc328:	ea94 0f0c 	teqne	r4, ip
   dc32c:	ea95 0f0c 	teqne	r5, ip
   dc330:	f000 f8de 	bleq	dc4f0 <__aeabi_dmul+0x1dc>
   dc334:	442c      	add	r4, r5
   dc336:	ea81 0603 	eor.w	r6, r1, r3
   dc33a:	ea21 514c 	bic.w	r1, r1, ip, lsl #21
   dc33e:	ea23 534c 	bic.w	r3, r3, ip, lsl #21
   dc342:	ea50 3501 	orrs.w	r5, r0, r1, lsl #12
   dc346:	bf18      	it	ne
   dc348:	ea52 3503 	orrsne.w	r5, r2, r3, lsl #12
   dc34c:	f441 1180 	orr.w	r1, r1, #1048576	; 0x100000
   dc350:	f443 1380 	orr.w	r3, r3, #1048576	; 0x100000
   dc354:	d038      	beq.n	dc3c8 <__aeabi_dmul+0xb4>
   dc356:	fba0 ce02 	umull	ip, lr, r0, r2
   dc35a:	f04f 0500 	mov.w	r5, #0
   dc35e:	fbe1 e502 	umlal	lr, r5, r1, r2
   dc362:	f006 4200 	and.w	r2, r6, #2147483648	; 0x80000000
   dc366:	fbe0 e503 	umlal	lr, r5, r0, r3
   dc36a:	f04f 0600 	mov.w	r6, #0
   dc36e:	fbe1 5603 	umlal	r5, r6, r1, r3
   dc372:	f09c 0f00 	teq	ip, #0
   dc376:	bf18      	it	ne
   dc378:	f04e 0e01 	orrne.w	lr, lr, #1
   dc37c:	f1a4 04ff 	sub.w	r4, r4, #255	; 0xff
   dc380:	f5b6 7f00 	cmp.w	r6, #512	; 0x200
   dc384:	f564 7440 	sbc.w	r4, r4, #768	; 0x300
   dc388:	d204      	bcs.n	dc394 <__aeabi_dmul+0x80>
   dc38a:	ea5f 0e4e 	movs.w	lr, lr, lsl #1
   dc38e:	416d      	adcs	r5, r5
   dc390:	eb46 0606 	adc.w	r6, r6, r6
   dc394:	ea42 21c6 	orr.w	r1, r2, r6, lsl #11
   dc398:	ea41 5155 	orr.w	r1, r1, r5, lsr #21
   dc39c:	ea4f 20c5 	mov.w	r0, r5, lsl #11
   dc3a0:	ea40 505e 	orr.w	r0, r0, lr, lsr #21
   dc3a4:	ea4f 2ece 	mov.w	lr, lr, lsl #11
   dc3a8:	f1b4 0cfd 	subs.w	ip, r4, #253	; 0xfd
   dc3ac:	bf88      	it	hi
   dc3ae:	f5bc 6fe0 	cmphi.w	ip, #1792	; 0x700
   dc3b2:	d81e      	bhi.n	dc3f2 <__aeabi_dmul+0xde>
   dc3b4:	f1be 4f00 	cmp.w	lr, #2147483648	; 0x80000000
   dc3b8:	bf08      	it	eq
   dc3ba:	ea5f 0e50 	movseq.w	lr, r0, lsr #1
   dc3be:	f150 0000 	adcs.w	r0, r0, #0
   dc3c2:	eb41 5104 	adc.w	r1, r1, r4, lsl #20
   dc3c6:	bd70      	pop	{r4, r5, r6, pc}
   dc3c8:	f006 4600 	and.w	r6, r6, #2147483648	; 0x80000000
   dc3cc:	ea46 0101 	orr.w	r1, r6, r1
   dc3d0:	ea40 0002 	orr.w	r0, r0, r2
   dc3d4:	ea81 0103 	eor.w	r1, r1, r3
   dc3d8:	ebb4 045c 	subs.w	r4, r4, ip, lsr #1
   dc3dc:	bfc2      	ittt	gt
   dc3de:	ebd4 050c 	rsbsgt	r5, r4, ip
   dc3e2:	ea41 5104 	orrgt.w	r1, r1, r4, lsl #20
   dc3e6:	bd70      	popgt	{r4, r5, r6, pc}
   dc3e8:	f441 1180 	orr.w	r1, r1, #1048576	; 0x100000
   dc3ec:	f04f 0e00 	mov.w	lr, #0
   dc3f0:	3c01      	subs	r4, #1
   dc3f2:	f300 80ab 	bgt.w	dc54c <__aeabi_dmul+0x238>
   dc3f6:	f114 0f36 	cmn.w	r4, #54	; 0x36
   dc3fa:	bfde      	ittt	le
   dc3fc:	2000      	movle	r0, #0
   dc3fe:	f001 4100 	andle.w	r1, r1, #2147483648	; 0x80000000
   dc402:	bd70      	pople	{r4, r5, r6, pc}
   dc404:	f1c4 0400 	rsb	r4, r4, #0
   dc408:	3c20      	subs	r4, #32
   dc40a:	da35      	bge.n	dc478 <__aeabi_dmul+0x164>
   dc40c:	340c      	adds	r4, #12
   dc40e:	dc1b      	bgt.n	dc448 <__aeabi_dmul+0x134>
   dc410:	f104 0414 	add.w	r4, r4, #20
   dc414:	f1c4 0520 	rsb	r5, r4, #32
   dc418:	fa00 f305 	lsl.w	r3, r0, r5
   dc41c:	fa20 f004 	lsr.w	r0, r0, r4
   dc420:	fa01 f205 	lsl.w	r2, r1, r5
   dc424:	ea40 0002 	orr.w	r0, r0, r2
   dc428:	f001 4200 	and.w	r2, r1, #2147483648	; 0x80000000
   dc42c:	f021 4100 	bic.w	r1, r1, #2147483648	; 0x80000000
   dc430:	eb10 70d3 	adds.w	r0, r0, r3, lsr #31
   dc434:	fa21 f604 	lsr.w	r6, r1, r4
   dc438:	eb42 0106 	adc.w	r1, r2, r6
   dc43c:	ea5e 0e43 	orrs.w	lr, lr, r3, lsl #1
   dc440:	bf08      	it	eq
   dc442:	ea20 70d3 	biceq.w	r0, r0, r3, lsr #31
   dc446:	bd70      	pop	{r4, r5, r6, pc}
   dc448:	f1c4 040c 	rsb	r4, r4, #12
   dc44c:	f1c4 0520 	rsb	r5, r4, #32
   dc450:	fa00 f304 	lsl.w	r3, r0, r4
   dc454:	fa20 f005 	lsr.w	r0, r0, r5
   dc458:	fa01 f204 	lsl.w	r2, r1, r4
   dc45c:	ea40 0002 	orr.w	r0, r0, r2
   dc460:	f001 4100 	and.w	r1, r1, #2147483648	; 0x80000000
   dc464:	eb10 70d3 	adds.w	r0, r0, r3, lsr #31
   dc468:	f141 0100 	adc.w	r1, r1, #0
   dc46c:	ea5e 0e43 	orrs.w	lr, lr, r3, lsl #1
   dc470:	bf08      	it	eq
   dc472:	ea20 70d3 	biceq.w	r0, r0, r3, lsr #31
   dc476:	bd70      	pop	{r4, r5, r6, pc}
   dc478:	f1c4 0520 	rsb	r5, r4, #32
   dc47c:	fa00 f205 	lsl.w	r2, r0, r5
   dc480:	ea4e 0e02 	orr.w	lr, lr, r2
   dc484:	fa20 f304 	lsr.w	r3, r0, r4
   dc488:	fa01 f205 	lsl.w	r2, r1, r5
   dc48c:	ea43 0302 	orr.w	r3, r3, r2
   dc490:	fa21 f004 	lsr.w	r0, r1, r4
   dc494:	f001 4100 	and.w	r1, r1, #2147483648	; 0x80000000
   dc498:	fa21 f204 	lsr.w	r2, r1, r4
   dc49c:	ea20 0002 	bic.w	r0, r0, r2
   dc4a0:	eb00 70d3 	add.w	r0, r0, r3, lsr #31
   dc4a4:	ea5e 0e43 	orrs.w	lr, lr, r3, lsl #1
   dc4a8:	bf08      	it	eq
   dc4aa:	ea20 70d3 	biceq.w	r0, r0, r3, lsr #31
   dc4ae:	bd70      	pop	{r4, r5, r6, pc}
   dc4b0:	f094 0f00 	teq	r4, #0
   dc4b4:	d10f      	bne.n	dc4d6 <__aeabi_dmul+0x1c2>
   dc4b6:	f001 4600 	and.w	r6, r1, #2147483648	; 0x80000000
   dc4ba:	0040      	lsls	r0, r0, #1
   dc4bc:	eb41 0101 	adc.w	r1, r1, r1
   dc4c0:	f411 1f80 	tst.w	r1, #1048576	; 0x100000
   dc4c4:	bf08      	it	eq
   dc4c6:	3c01      	subeq	r4, #1
   dc4c8:	d0f7      	beq.n	dc4ba <__aeabi_dmul+0x1a6>
   dc4ca:	ea41 0106 	orr.w	r1, r1, r6
   dc4ce:	f095 0f00 	teq	r5, #0
   dc4d2:	bf18      	it	ne
   dc4d4:	4770      	bxne	lr
   dc4d6:	f003 4600 	and.w	r6, r3, #2147483648	; 0x80000000
   dc4da:	0052      	lsls	r2, r2, #1
   dc4dc:	eb43 0303 	adc.w	r3, r3, r3
   dc4e0:	f413 1f80 	tst.w	r3, #1048576	; 0x100000
   dc4e4:	bf08      	it	eq
   dc4e6:	3d01      	subeq	r5, #1
   dc4e8:	d0f7      	beq.n	dc4da <__aeabi_dmul+0x1c6>
   dc4ea:	ea43 0306 	orr.w	r3, r3, r6
   dc4ee:	4770      	bx	lr
   dc4f0:	ea94 0f0c 	teq	r4, ip
   dc4f4:	ea0c 5513 	and.w	r5, ip, r3, lsr #20
   dc4f8:	bf18      	it	ne
   dc4fa:	ea95 0f0c 	teqne	r5, ip
   dc4fe:	d00c      	beq.n	dc51a <__aeabi_dmul+0x206>
   dc500:	ea50 0641 	orrs.w	r6, r0, r1, lsl #1
   dc504:	bf18      	it	ne
   dc506:	ea52 0643 	orrsne.w	r6, r2, r3, lsl #1
   dc50a:	d1d1      	bne.n	dc4b0 <__aeabi_dmul+0x19c>
   dc50c:	ea81 0103 	eor.w	r1, r1, r3
   dc510:	f001 4100 	and.w	r1, r1, #2147483648	; 0x80000000
   dc514:	f04f 0000 	mov.w	r0, #0
   dc518:	bd70      	pop	{r4, r5, r6, pc}
   dc51a:	ea50 0641 	orrs.w	r6, r0, r1, lsl #1
   dc51e:	bf06      	itte	eq
   dc520:	4610      	moveq	r0, r2
   dc522:	4619      	moveq	r1, r3
   dc524:	ea52 0643 	orrsne.w	r6, r2, r3, lsl #1
   dc528:	d019      	beq.n	dc55e <__aeabi_dmul+0x24a>
   dc52a:	ea94 0f0c 	teq	r4, ip
   dc52e:	d102      	bne.n	dc536 <__aeabi_dmul+0x222>
   dc530:	ea50 3601 	orrs.w	r6, r0, r1, lsl #12
   dc534:	d113      	bne.n	dc55e <__aeabi_dmul+0x24a>
   dc536:	ea95 0f0c 	teq	r5, ip
   dc53a:	d105      	bne.n	dc548 <__aeabi_dmul+0x234>
   dc53c:	ea52 3603 	orrs.w	r6, r2, r3, lsl #12
   dc540:	bf1c      	itt	ne
   dc542:	4610      	movne	r0, r2
   dc544:	4619      	movne	r1, r3
   dc546:	d10a      	bne.n	dc55e <__aeabi_dmul+0x24a>
   dc548:	ea81 0103 	eor.w	r1, r1, r3
   dc54c:	f001 4100 	and.w	r1, r1, #2147483648	; 0x80000000
   dc550:	f041 41fe 	orr.w	r1, r1, #2130706432	; 0x7f000000
   dc554:	f441 0170 	orr.w	r1, r1, #15728640	; 0xf00000
   dc558:	f04f 0000 	mov.w	r0, #0
   dc55c:	bd70      	pop	{r4, r5, r6, pc}
   dc55e:	f041 41fe 	orr.w	r1, r1, #2130706432	; 0x7f000000
   dc562:	f441 0178 	orr.w	r1, r1, #16252928	; 0xf80000
   dc566:	bd70      	pop	{r4, r5, r6, pc}

000dc568 <__aeabi_ddiv>:
   dc568:	b570      	push	{r4, r5, r6, lr}
   dc56a:	f04f 0cff 	mov.w	ip, #255	; 0xff
   dc56e:	f44c 6ce0 	orr.w	ip, ip, #1792	; 0x700
   dc572:	ea1c 5411 	ands.w	r4, ip, r1, lsr #20
   dc576:	bf1d      	ittte	ne
   dc578:	ea1c 5513 	andsne.w	r5, ip, r3, lsr #20
   dc57c:	ea94 0f0c 	teqne	r4, ip
   dc580:	ea95 0f0c 	teqne	r5, ip
   dc584:	f000 f8a7 	bleq	dc6d6 <__aeabi_ddiv+0x16e>
   dc588:	eba4 0405 	sub.w	r4, r4, r5
   dc58c:	ea81 0e03 	eor.w	lr, r1, r3
   dc590:	ea52 3503 	orrs.w	r5, r2, r3, lsl #12
   dc594:	ea4f 3101 	mov.w	r1, r1, lsl #12
   dc598:	f000 8088 	beq.w	dc6ac <__aeabi_ddiv+0x144>
   dc59c:	ea4f 3303 	mov.w	r3, r3, lsl #12
   dc5a0:	f04f 5580 	mov.w	r5, #268435456	; 0x10000000
   dc5a4:	ea45 1313 	orr.w	r3, r5, r3, lsr #4
   dc5a8:	ea43 6312 	orr.w	r3, r3, r2, lsr #24
   dc5ac:	ea4f 2202 	mov.w	r2, r2, lsl #8
   dc5b0:	ea45 1511 	orr.w	r5, r5, r1, lsr #4
   dc5b4:	ea45 6510 	orr.w	r5, r5, r0, lsr #24
   dc5b8:	ea4f 2600 	mov.w	r6, r0, lsl #8
   dc5bc:	f00e 4100 	and.w	r1, lr, #2147483648	; 0x80000000
   dc5c0:	429d      	cmp	r5, r3
   dc5c2:	bf08      	it	eq
   dc5c4:	4296      	cmpeq	r6, r2
   dc5c6:	f144 04fd 	adc.w	r4, r4, #253	; 0xfd
   dc5ca:	f504 7440 	add.w	r4, r4, #768	; 0x300
   dc5ce:	d202      	bcs.n	dc5d6 <__aeabi_ddiv+0x6e>
   dc5d0:	085b      	lsrs	r3, r3, #1
   dc5d2:	ea4f 0232 	mov.w	r2, r2, rrx
   dc5d6:	1ab6      	subs	r6, r6, r2
   dc5d8:	eb65 0503 	sbc.w	r5, r5, r3
   dc5dc:	085b      	lsrs	r3, r3, #1
   dc5de:	ea4f 0232 	mov.w	r2, r2, rrx
   dc5e2:	f44f 1080 	mov.w	r0, #1048576	; 0x100000
   dc5e6:	f44f 2c00 	mov.w	ip, #524288	; 0x80000
   dc5ea:	ebb6 0e02 	subs.w	lr, r6, r2
   dc5ee:	eb75 0e03 	sbcs.w	lr, r5, r3
   dc5f2:	bf22      	ittt	cs
   dc5f4:	1ab6      	subcs	r6, r6, r2
   dc5f6:	4675      	movcs	r5, lr
   dc5f8:	ea40 000c 	orrcs.w	r0, r0, ip
   dc5fc:	085b      	lsrs	r3, r3, #1
   dc5fe:	ea4f 0232 	mov.w	r2, r2, rrx
   dc602:	ebb6 0e02 	subs.w	lr, r6, r2
   dc606:	eb75 0e03 	sbcs.w	lr, r5, r3
   dc60a:	bf22      	ittt	cs
   dc60c:	1ab6      	subcs	r6, r6, r2
   dc60e:	4675      	movcs	r5, lr
   dc610:	ea40 005c 	orrcs.w	r0, r0, ip, lsr #1
   dc614:	085b      	lsrs	r3, r3, #1
   dc616:	ea4f 0232 	mov.w	r2, r2, rrx
   dc61a:	ebb6 0e02 	subs.w	lr, r6, r2
   dc61e:	eb75 0e03 	sbcs.w	lr, r5, r3
   dc622:	bf22      	ittt	cs
   dc624:	1ab6      	subcs	r6, r6, r2
   dc626:	4675      	movcs	r5, lr
   dc628:	ea40 009c 	orrcs.w	r0, r0, ip, lsr #2
   dc62c:	085b      	lsrs	r3, r3, #1
   dc62e:	ea4f 0232 	mov.w	r2, r2, rrx
   dc632:	ebb6 0e02 	subs.w	lr, r6, r2
   dc636:	eb75 0e03 	sbcs.w	lr, r5, r3
   dc63a:	bf22      	ittt	cs
   dc63c:	1ab6      	subcs	r6, r6, r2
   dc63e:	4675      	movcs	r5, lr
   dc640:	ea40 00dc 	orrcs.w	r0, r0, ip, lsr #3
   dc644:	ea55 0e06 	orrs.w	lr, r5, r6
   dc648:	d018      	beq.n	dc67c <__aeabi_ddiv+0x114>
   dc64a:	ea4f 1505 	mov.w	r5, r5, lsl #4
   dc64e:	ea45 7516 	orr.w	r5, r5, r6, lsr #28
   dc652:	ea4f 1606 	mov.w	r6, r6, lsl #4
   dc656:	ea4f 03c3 	mov.w	r3, r3, lsl #3
   dc65a:	ea43 7352 	orr.w	r3, r3, r2, lsr #29
   dc65e:	ea4f 02c2 	mov.w	r2, r2, lsl #3
   dc662:	ea5f 1c1c 	movs.w	ip, ip, lsr #4
   dc666:	d1c0      	bne.n	dc5ea <__aeabi_ddiv+0x82>
   dc668:	f411 1f80 	tst.w	r1, #1048576	; 0x100000
   dc66c:	d10b      	bne.n	dc686 <__aeabi_ddiv+0x11e>
   dc66e:	ea41 0100 	orr.w	r1, r1, r0
   dc672:	f04f 0000 	mov.w	r0, #0
   dc676:	f04f 4c00 	mov.w	ip, #2147483648	; 0x80000000
   dc67a:	e7b6      	b.n	dc5ea <__aeabi_ddiv+0x82>
   dc67c:	f411 1f80 	tst.w	r1, #1048576	; 0x100000
   dc680:	bf04      	itt	eq
   dc682:	4301      	orreq	r1, r0
   dc684:	2000      	moveq	r0, #0
   dc686:	f1b4 0cfd 	subs.w	ip, r4, #253	; 0xfd
   dc68a:	bf88      	it	hi
   dc68c:	f5bc 6fe0 	cmphi.w	ip, #1792	; 0x700
   dc690:	f63f aeaf 	bhi.w	dc3f2 <__aeabi_dmul+0xde>
   dc694:	ebb5 0c03 	subs.w	ip, r5, r3
   dc698:	bf04      	itt	eq
   dc69a:	ebb6 0c02 	subseq.w	ip, r6, r2
   dc69e:	ea5f 0c50 	movseq.w	ip, r0, lsr #1
   dc6a2:	f150 0000 	adcs.w	r0, r0, #0
   dc6a6:	eb41 5104 	adc.w	r1, r1, r4, lsl #20
   dc6aa:	bd70      	pop	{r4, r5, r6, pc}
   dc6ac:	f00e 4e00 	and.w	lr, lr, #2147483648	; 0x80000000
   dc6b0:	ea4e 3111 	orr.w	r1, lr, r1, lsr #12
   dc6b4:	eb14 045c 	adds.w	r4, r4, ip, lsr #1
   dc6b8:	bfc2      	ittt	gt
   dc6ba:	ebd4 050c 	rsbsgt	r5, r4, ip
   dc6be:	ea41 5104 	orrgt.w	r1, r1, r4, lsl #20
   dc6c2:	bd70      	popgt	{r4, r5, r6, pc}
   dc6c4:	f441 1180 	orr.w	r1, r1, #1048576	; 0x100000
   dc6c8:	f04f 0e00 	mov.w	lr, #0
   dc6cc:	3c01      	subs	r4, #1
   dc6ce:	e690      	b.n	dc3f2 <__aeabi_dmul+0xde>
   dc6d0:	ea45 0e06 	orr.w	lr, r5, r6
   dc6d4:	e68d      	b.n	dc3f2 <__aeabi_dmul+0xde>
   dc6d6:	ea0c 5513 	and.w	r5, ip, r3, lsr #20
   dc6da:	ea94 0f0c 	teq	r4, ip
   dc6de:	bf08      	it	eq
   dc6e0:	ea95 0f0c 	teqeq	r5, ip
   dc6e4:	f43f af3b 	beq.w	dc55e <__aeabi_dmul+0x24a>
   dc6e8:	ea94 0f0c 	teq	r4, ip
   dc6ec:	d10a      	bne.n	dc704 <__aeabi_ddiv+0x19c>
   dc6ee:	ea50 3401 	orrs.w	r4, r0, r1, lsl #12
   dc6f2:	f47f af34 	bne.w	dc55e <__aeabi_dmul+0x24a>
   dc6f6:	ea95 0f0c 	teq	r5, ip
   dc6fa:	f47f af25 	bne.w	dc548 <__aeabi_dmul+0x234>
   dc6fe:	4610      	mov	r0, r2
   dc700:	4619      	mov	r1, r3
   dc702:	e72c      	b.n	dc55e <__aeabi_dmul+0x24a>
   dc704:	ea95 0f0c 	teq	r5, ip
   dc708:	d106      	bne.n	dc718 <__aeabi_ddiv+0x1b0>
   dc70a:	ea52 3503 	orrs.w	r5, r2, r3, lsl #12
   dc70e:	f43f aefd 	beq.w	dc50c <__aeabi_dmul+0x1f8>
   dc712:	4610      	mov	r0, r2
   dc714:	4619      	mov	r1, r3
   dc716:	e722      	b.n	dc55e <__aeabi_dmul+0x24a>
   dc718:	ea50 0641 	orrs.w	r6, r0, r1, lsl #1
   dc71c:	bf18      	it	ne
   dc71e:	ea52 0643 	orrsne.w	r6, r2, r3, lsl #1
   dc722:	f47f aec5 	bne.w	dc4b0 <__aeabi_dmul+0x19c>
   dc726:	ea50 0441 	orrs.w	r4, r0, r1, lsl #1
   dc72a:	f47f af0d 	bne.w	dc548 <__aeabi_dmul+0x234>
   dc72e:	ea52 0543 	orrs.w	r5, r2, r3, lsl #1
   dc732:	f47f aeeb 	bne.w	dc50c <__aeabi_dmul+0x1f8>
   dc736:	e712      	b.n	dc55e <__aeabi_dmul+0x24a>

000dc738 <__aeabi_d2uiz>:
   dc738:	004a      	lsls	r2, r1, #1
   dc73a:	d211      	bcs.n	dc760 <__aeabi_d2uiz+0x28>
   dc73c:	f512 1200 	adds.w	r2, r2, #2097152	; 0x200000
   dc740:	d211      	bcs.n	dc766 <__aeabi_d2uiz+0x2e>
   dc742:	d50d      	bpl.n	dc760 <__aeabi_d2uiz+0x28>
   dc744:	f46f 7378 	mvn.w	r3, #992	; 0x3e0
   dc748:	ebb3 5262 	subs.w	r2, r3, r2, asr #21
   dc74c:	d40e      	bmi.n	dc76c <__aeabi_d2uiz+0x34>
   dc74e:	ea4f 23c1 	mov.w	r3, r1, lsl #11
   dc752:	f043 4300 	orr.w	r3, r3, #2147483648	; 0x80000000
   dc756:	ea43 5350 	orr.w	r3, r3, r0, lsr #21
   dc75a:	fa23 f002 	lsr.w	r0, r3, r2
   dc75e:	4770      	bx	lr
   dc760:	f04f 0000 	mov.w	r0, #0
   dc764:	4770      	bx	lr
   dc766:	ea50 3001 	orrs.w	r0, r0, r1, lsl #12
   dc76a:	d102      	bne.n	dc772 <__aeabi_d2uiz+0x3a>
   dc76c:	f04f 30ff 	mov.w	r0, #4294967295	; 0xffffffff
   dc770:	4770      	bx	lr
   dc772:	f04f 0000 	mov.w	r0, #0
   dc776:	4770      	bx	lr

000dc778 <__aeabi_d2f>:
   dc778:	ea4f 0241 	mov.w	r2, r1, lsl #1
   dc77c:	f1b2 43e0 	subs.w	r3, r2, #1879048192	; 0x70000000
   dc780:	bf24      	itt	cs
   dc782:	f5b3 1c00 	subscs.w	ip, r3, #2097152	; 0x200000
   dc786:	f1dc 5cfe 	rsbscs	ip, ip, #532676608	; 0x1fc00000
   dc78a:	d90d      	bls.n	dc7a8 <__aeabi_d2f+0x30>
   dc78c:	f001 4c00 	and.w	ip, r1, #2147483648	; 0x80000000
   dc790:	ea4f 02c0 	mov.w	r2, r0, lsl #3
   dc794:	ea4c 7050 	orr.w	r0, ip, r0, lsr #29
   dc798:	f1b2 4f00 	cmp.w	r2, #2147483648	; 0x80000000
   dc79c:	eb40 0083 	adc.w	r0, r0, r3, lsl #2
   dc7a0:	bf08      	it	eq
   dc7a2:	f020 0001 	biceq.w	r0, r0, #1
   dc7a6:	4770      	bx	lr
   dc7a8:	f011 4f80 	tst.w	r1, #1073741824	; 0x40000000
   dc7ac:	d121      	bne.n	dc7f2 <__aeabi_d2f+0x7a>
   dc7ae:	f113 7238 	adds.w	r2, r3, #48234496	; 0x2e00000
   dc7b2:	bfbc      	itt	lt
   dc7b4:	f001 4000 	andlt.w	r0, r1, #2147483648	; 0x80000000
   dc7b8:	4770      	bxlt	lr
   dc7ba:	f441 1180 	orr.w	r1, r1, #1048576	; 0x100000
   dc7be:	ea4f 5252 	mov.w	r2, r2, lsr #21
   dc7c2:	f1c2 0218 	rsb	r2, r2, #24
   dc7c6:	f1c2 0c20 	rsb	ip, r2, #32
   dc7ca:	fa10 f30c 	lsls.w	r3, r0, ip
   dc7ce:	fa20 f002 	lsr.w	r0, r0, r2
   dc7d2:	bf18      	it	ne
   dc7d4:	f040 0001 	orrne.w	r0, r0, #1
   dc7d8:	ea4f 23c1 	mov.w	r3, r1, lsl #11
   dc7dc:	ea4f 23d3 	mov.w	r3, r3, lsr #11
   dc7e0:	fa03 fc0c 	lsl.w	ip, r3, ip
   dc7e4:	ea40 000c 	orr.w	r0, r0, ip
   dc7e8:	fa23 f302 	lsr.w	r3, r3, r2
   dc7ec:	ea4f 0343 	mov.w	r3, r3, lsl #1
   dc7f0:	e7cc      	b.n	dc78c <__aeabi_d2f+0x14>
   dc7f2:	ea7f 5362 	mvns.w	r3, r2, asr #21
   dc7f6:	d107      	bne.n	dc808 <__aeabi_d2f+0x90>
   dc7f8:	ea50 3301 	orrs.w	r3, r0, r1, lsl #12
   dc7fc:	bf1e      	ittt	ne
   dc7fe:	f04f 40fe 	movne.w	r0, #2130706432	; 0x7f000000
   dc802:	f440 0040 	orrne.w	r0, r0, #12582912	; 0xc00000
   dc806:	4770      	bxne	lr
   dc808:	f001 4000 	and.w	r0, r1, #2147483648	; 0x80000000
   dc80c:	f040 40fe 	orr.w	r0, r0, #2130706432	; 0x7f000000
   dc810:	f440 0000 	orr.w	r0, r0, #8388608	; 0x800000
   dc814:	4770      	bx	lr
   dc816:	bf00      	nop

000dc818 <asctime_r>:
   dc818:	b510      	push	{r4, lr}
   dc81a:	460c      	mov	r4, r1
   dc81c:	6941      	ldr	r1, [r0, #20]
   dc81e:	6903      	ldr	r3, [r0, #16]
   dc820:	6982      	ldr	r2, [r0, #24]
   dc822:	b086      	sub	sp, #24
   dc824:	f201 716c 	addw	r1, r1, #1900	; 0x76c
   dc828:	9104      	str	r1, [sp, #16]
   dc82a:	6801      	ldr	r1, [r0, #0]
   dc82c:	9103      	str	r1, [sp, #12]
   dc82e:	6841      	ldr	r1, [r0, #4]
   dc830:	9102      	str	r1, [sp, #8]
   dc832:	6881      	ldr	r1, [r0, #8]
   dc834:	9101      	str	r1, [sp, #4]
   dc836:	68c1      	ldr	r1, [r0, #12]
   dc838:	9100      	str	r1, [sp, #0]
   dc83a:	4907      	ldr	r1, [pc, #28]	; (dc858 <asctime_r+0x40>)
   dc83c:	eb03 0343 	add.w	r3, r3, r3, lsl #1
   dc840:	440b      	add	r3, r1
   dc842:	4906      	ldr	r1, [pc, #24]	; (dc85c <asctime_r+0x44>)
   dc844:	eb02 0242 	add.w	r2, r2, r2, lsl #1
   dc848:	440a      	add	r2, r1
   dc84a:	4620      	mov	r0, r4
   dc84c:	4904      	ldr	r1, [pc, #16]	; (dc860 <asctime_r+0x48>)
   dc84e:	f7fc fb1f 	bl	d8e90 <siprintf>
   dc852:	4620      	mov	r0, r4
   dc854:	b006      	add	sp, #24
   dc856:	bd10      	pop	{r4, pc}
   dc858:	000ddaea 	.word	0x000ddaea
   dc85c:	000ddad5 	.word	0x000ddad5
   dc860:	000ddab5 	.word	0x000ddab5

000dc864 <atexit>:
   dc864:	2300      	movs	r3, #0
   dc866:	4601      	mov	r1, r0
   dc868:	461a      	mov	r2, r3
   dc86a:	4618      	mov	r0, r3
   dc86c:	f000 b9d2 	b.w	dcc14 <__register_exitproc>

000dc870 <gmtime>:
   dc870:	b538      	push	{r3, r4, r5, lr}
   dc872:	4b07      	ldr	r3, [pc, #28]	; (dc890 <gmtime+0x20>)
   dc874:	681d      	ldr	r5, [r3, #0]
   dc876:	6beb      	ldr	r3, [r5, #60]	; 0x3c
   dc878:	4604      	mov	r4, r0
   dc87a:	b91b      	cbnz	r3, dc884 <gmtime+0x14>
   dc87c:	2024      	movs	r0, #36	; 0x24
   dc87e:	f7fc faef 	bl	d8e60 <malloc>
   dc882:	63e8      	str	r0, [r5, #60]	; 0x3c
   dc884:	6be9      	ldr	r1, [r5, #60]	; 0x3c
   dc886:	4620      	mov	r0, r4
   dc888:	e8bd 4038 	ldmia.w	sp!, {r3, r4, r5, lr}
   dc88c:	f7fc bb48 	b.w	d8f20 <gmtime_r>
   dc890:	2003dcf8 	.word	0x2003dcf8

000dc894 <memcpy>:
   dc894:	440a      	add	r2, r1
   dc896:	4291      	cmp	r1, r2
   dc898:	f100 33ff 	add.w	r3, r0, #4294967295	; 0xffffffff
   dc89c:	d100      	bne.n	dc8a0 <memcpy+0xc>
   dc89e:	4770      	bx	lr
   dc8a0:	b510      	push	{r4, lr}
   dc8a2:	f811 4b01 	ldrb.w	r4, [r1], #1
   dc8a6:	f803 4f01 	strb.w	r4, [r3, #1]!
   dc8aa:	4291      	cmp	r1, r2
   dc8ac:	d1f9      	bne.n	dc8a2 <memcpy+0xe>
   dc8ae:	bd10      	pop	{r4, pc}

000dc8b0 <memmove>:
   dc8b0:	4288      	cmp	r0, r1
   dc8b2:	b510      	push	{r4, lr}
   dc8b4:	eb01 0402 	add.w	r4, r1, r2
   dc8b8:	d902      	bls.n	dc8c0 <memmove+0x10>
   dc8ba:	4284      	cmp	r4, r0
   dc8bc:	4623      	mov	r3, r4
   dc8be:	d807      	bhi.n	dc8d0 <memmove+0x20>
   dc8c0:	1e43      	subs	r3, r0, #1
   dc8c2:	42a1      	cmp	r1, r4
   dc8c4:	d008      	beq.n	dc8d8 <memmove+0x28>
   dc8c6:	f811 2b01 	ldrb.w	r2, [r1], #1
   dc8ca:	f803 2f01 	strb.w	r2, [r3, #1]!
   dc8ce:	e7f8      	b.n	dc8c2 <memmove+0x12>
   dc8d0:	4402      	add	r2, r0
   dc8d2:	4601      	mov	r1, r0
   dc8d4:	428a      	cmp	r2, r1
   dc8d6:	d100      	bne.n	dc8da <memmove+0x2a>
   dc8d8:	bd10      	pop	{r4, pc}
   dc8da:	f813 4d01 	ldrb.w	r4, [r3, #-1]!
   dc8de:	f802 4d01 	strb.w	r4, [r2, #-1]!
   dc8e2:	e7f7      	b.n	dc8d4 <memmove+0x24>

000dc8e4 <memset>:
   dc8e4:	4402      	add	r2, r0
   dc8e6:	4603      	mov	r3, r0
   dc8e8:	4293      	cmp	r3, r2
   dc8ea:	d100      	bne.n	dc8ee <memset+0xa>
   dc8ec:	4770      	bx	lr
   dc8ee:	f803 1b01 	strb.w	r1, [r3], #1
   dc8f2:	e7f9      	b.n	dc8e8 <memset+0x4>

000dc8f4 <srand>:
   dc8f4:	b538      	push	{r3, r4, r5, lr}
   dc8f6:	4b0d      	ldr	r3, [pc, #52]	; (dc92c <srand+0x38>)
   dc8f8:	681d      	ldr	r5, [r3, #0]
   dc8fa:	6bab      	ldr	r3, [r5, #56]	; 0x38
   dc8fc:	4604      	mov	r4, r0
   dc8fe:	b97b      	cbnz	r3, dc920 <srand+0x2c>
   dc900:	2018      	movs	r0, #24
   dc902:	f7fc faad 	bl	d8e60 <malloc>
   dc906:	4a0a      	ldr	r2, [pc, #40]	; (dc930 <srand+0x3c>)
   dc908:	4b0a      	ldr	r3, [pc, #40]	; (dc934 <srand+0x40>)
   dc90a:	63a8      	str	r0, [r5, #56]	; 0x38
   dc90c:	e9c0 2300 	strd	r2, r3, [r0]
   dc910:	4b09      	ldr	r3, [pc, #36]	; (dc938 <srand+0x44>)
   dc912:	6083      	str	r3, [r0, #8]
   dc914:	230b      	movs	r3, #11
   dc916:	8183      	strh	r3, [r0, #12]
   dc918:	2201      	movs	r2, #1
   dc91a:	2300      	movs	r3, #0
   dc91c:	e9c0 2304 	strd	r2, r3, [r0, #16]
   dc920:	6bab      	ldr	r3, [r5, #56]	; 0x38
   dc922:	2200      	movs	r2, #0
   dc924:	611c      	str	r4, [r3, #16]
   dc926:	615a      	str	r2, [r3, #20]
   dc928:	bd38      	pop	{r3, r4, r5, pc}
   dc92a:	bf00      	nop
   dc92c:	2003dcf8 	.word	0x2003dcf8
   dc930:	abcd330e 	.word	0xabcd330e
   dc934:	e66d1234 	.word	0xe66d1234
   dc938:	0005deec 	.word	0x0005deec

000dc93c <rand>:
   dc93c:	4b13      	ldr	r3, [pc, #76]	; (dc98c <rand+0x50>)
   dc93e:	b510      	push	{r4, lr}
   dc940:	681c      	ldr	r4, [r3, #0]
   dc942:	6ba3      	ldr	r3, [r4, #56]	; 0x38
   dc944:	b97b      	cbnz	r3, dc966 <rand+0x2a>
   dc946:	2018      	movs	r0, #24
   dc948:	f7fc fa8a 	bl	d8e60 <malloc>
   dc94c:	4a10      	ldr	r2, [pc, #64]	; (dc990 <rand+0x54>)
   dc94e:	4b11      	ldr	r3, [pc, #68]	; (dc994 <rand+0x58>)
   dc950:	63a0      	str	r0, [r4, #56]	; 0x38
   dc952:	e9c0 2300 	strd	r2, r3, [r0]
   dc956:	4b10      	ldr	r3, [pc, #64]	; (dc998 <rand+0x5c>)
   dc958:	6083      	str	r3, [r0, #8]
   dc95a:	230b      	movs	r3, #11
   dc95c:	8183      	strh	r3, [r0, #12]
   dc95e:	2201      	movs	r2, #1
   dc960:	2300      	movs	r3, #0
   dc962:	e9c0 2304 	strd	r2, r3, [r0, #16]
   dc966:	6ba1      	ldr	r1, [r4, #56]	; 0x38
   dc968:	480c      	ldr	r0, [pc, #48]	; (dc99c <rand+0x60>)
   dc96a:	690a      	ldr	r2, [r1, #16]
   dc96c:	694b      	ldr	r3, [r1, #20]
   dc96e:	4c0c      	ldr	r4, [pc, #48]	; (dc9a0 <rand+0x64>)
   dc970:	4350      	muls	r0, r2
   dc972:	fb04 0003 	mla	r0, r4, r3, r0
   dc976:	fba2 3404 	umull	r3, r4, r2, r4
   dc97a:	1c5a      	adds	r2, r3, #1
   dc97c:	4404      	add	r4, r0
   dc97e:	f144 0000 	adc.w	r0, r4, #0
   dc982:	e9c1 2004 	strd	r2, r0, [r1, #16]
   dc986:	f020 4000 	bic.w	r0, r0, #2147483648	; 0x80000000
   dc98a:	bd10      	pop	{r4, pc}
   dc98c:	2003dcf8 	.word	0x2003dcf8
   dc990:	abcd330e 	.word	0xabcd330e
   dc994:	e66d1234 	.word	0xe66d1234
   dc998:	0005deec 	.word	0x0005deec
   dc99c:	5851f42d 	.word	0x5851f42d
   dc9a0:	4c957f2d 	.word	0x4c957f2d

000dc9a4 <strchr>:
   dc9a4:	b2c9      	uxtb	r1, r1
   dc9a6:	4603      	mov	r3, r0
   dc9a8:	f810 2b01 	ldrb.w	r2, [r0], #1
   dc9ac:	b11a      	cbz	r2, dc9b6 <strchr+0x12>
   dc9ae:	428a      	cmp	r2, r1
   dc9b0:	d1f9      	bne.n	dc9a6 <strchr+0x2>
   dc9b2:	4618      	mov	r0, r3
   dc9b4:	4770      	bx	lr
   dc9b6:	2900      	cmp	r1, #0
   dc9b8:	bf18      	it	ne
   dc9ba:	2300      	movne	r3, #0
   dc9bc:	e7f9      	b.n	dc9b2 <strchr+0xe>

000dc9be <strchrnul>:
   dc9be:	b510      	push	{r4, lr}
   dc9c0:	4604      	mov	r4, r0
   dc9c2:	f7ff ffef 	bl	dc9a4 <strchr>
   dc9c6:	b918      	cbnz	r0, dc9d0 <strchrnul+0x12>
   dc9c8:	4620      	mov	r0, r4
   dc9ca:	f000 f832 	bl	dca32 <strlen>
   dc9ce:	4420      	add	r0, r4
   dc9d0:	bd10      	pop	{r4, pc}

000dc9d2 <strcmp>:
   dc9d2:	f810 2b01 	ldrb.w	r2, [r0], #1
   dc9d6:	f811 3b01 	ldrb.w	r3, [r1], #1
   dc9da:	2a01      	cmp	r2, #1
   dc9dc:	bf28      	it	cs
   dc9de:	429a      	cmpcs	r2, r3
   dc9e0:	d0f7      	beq.n	dc9d2 <strcmp>
   dc9e2:	1ad0      	subs	r0, r2, r3
   dc9e4:	4770      	bx	lr

000dc9e6 <strcpy>:
   dc9e6:	4603      	mov	r3, r0
   dc9e8:	f811 2b01 	ldrb.w	r2, [r1], #1
   dc9ec:	f803 2b01 	strb.w	r2, [r3], #1
   dc9f0:	2a00      	cmp	r2, #0
   dc9f2:	d1f9      	bne.n	dc9e8 <strcpy+0x2>
   dc9f4:	4770      	bx	lr
	...

000dc9f8 <strdup>:
   dc9f8:	4b02      	ldr	r3, [pc, #8]	; (dca04 <strdup+0xc>)
   dc9fa:	4601      	mov	r1, r0
   dc9fc:	6818      	ldr	r0, [r3, #0]
   dc9fe:	f000 b803 	b.w	dca08 <_strdup_r>
   dca02:	bf00      	nop
   dca04:	2003dcf8 	.word	0x2003dcf8

000dca08 <_strdup_r>:
   dca08:	b537      	push	{r0, r1, r2, r4, r5, lr}
   dca0a:	4604      	mov	r4, r0
   dca0c:	4608      	mov	r0, r1
   dca0e:	460d      	mov	r5, r1
   dca10:	f000 f80f 	bl	dca32 <strlen>
   dca14:	1c42      	adds	r2, r0, #1
   dca16:	4611      	mov	r1, r2
   dca18:	4620      	mov	r0, r4
   dca1a:	9201      	str	r2, [sp, #4]
   dca1c:	f7fc fa60 	bl	d8ee0 <_malloc_r>
   dca20:	4604      	mov	r4, r0
   dca22:	b118      	cbz	r0, dca2c <_strdup_r+0x24>
   dca24:	9a01      	ldr	r2, [sp, #4]
   dca26:	4629      	mov	r1, r5
   dca28:	f7ff ff34 	bl	dc894 <memcpy>
   dca2c:	4620      	mov	r0, r4
   dca2e:	b003      	add	sp, #12
   dca30:	bd30      	pop	{r4, r5, pc}

000dca32 <strlen>:
   dca32:	4603      	mov	r3, r0
   dca34:	f813 2b01 	ldrb.w	r2, [r3], #1
   dca38:	2a00      	cmp	r2, #0
   dca3a:	d1fb      	bne.n	dca34 <strlen+0x2>
   dca3c:	1a18      	subs	r0, r3, r0
   dca3e:	3801      	subs	r0, #1
   dca40:	4770      	bx	lr

000dca42 <strncmp>:
   dca42:	b510      	push	{r4, lr}
   dca44:	b16a      	cbz	r2, dca62 <strncmp+0x20>
   dca46:	3901      	subs	r1, #1
   dca48:	1884      	adds	r4, r0, r2
   dca4a:	f810 3b01 	ldrb.w	r3, [r0], #1
   dca4e:	f811 2f01 	ldrb.w	r2, [r1, #1]!
   dca52:	4293      	cmp	r3, r2
   dca54:	d103      	bne.n	dca5e <strncmp+0x1c>
   dca56:	42a0      	cmp	r0, r4
   dca58:	d001      	beq.n	dca5e <strncmp+0x1c>
   dca5a:	2b00      	cmp	r3, #0
   dca5c:	d1f5      	bne.n	dca4a <strncmp+0x8>
   dca5e:	1a98      	subs	r0, r3, r2
   dca60:	bd10      	pop	{r4, pc}
   dca62:	4610      	mov	r0, r2
   dca64:	e7fc      	b.n	dca60 <strncmp+0x1e>

000dca66 <strncpy>:
   dca66:	b510      	push	{r4, lr}
   dca68:	3901      	subs	r1, #1
   dca6a:	4603      	mov	r3, r0
   dca6c:	b132      	cbz	r2, dca7c <strncpy+0x16>
   dca6e:	f811 4f01 	ldrb.w	r4, [r1, #1]!
   dca72:	f803 4b01 	strb.w	r4, [r3], #1
   dca76:	3a01      	subs	r2, #1
   dca78:	2c00      	cmp	r4, #0
   dca7a:	d1f7      	bne.n	dca6c <strncpy+0x6>
   dca7c:	441a      	add	r2, r3
   dca7e:	2100      	movs	r1, #0
   dca80:	4293      	cmp	r3, r2
   dca82:	d100      	bne.n	dca86 <strncpy+0x20>
   dca84:	bd10      	pop	{r4, pc}
   dca86:	f803 1b01 	strb.w	r1, [r3], #1
   dca8a:	e7f9      	b.n	dca80 <strncpy+0x1a>

000dca8c <strrchr>:
   dca8c:	b538      	push	{r3, r4, r5, lr}
   dca8e:	4603      	mov	r3, r0
   dca90:	460c      	mov	r4, r1
   dca92:	b969      	cbnz	r1, dcab0 <strrchr+0x24>
   dca94:	e8bd 4038 	ldmia.w	sp!, {r3, r4, r5, lr}
   dca98:	f7ff bf84 	b.w	dc9a4 <strchr>
   dca9c:	1c43      	adds	r3, r0, #1
   dca9e:	4605      	mov	r5, r0
   dcaa0:	4621      	mov	r1, r4
   dcaa2:	4618      	mov	r0, r3
   dcaa4:	f7ff ff7e 	bl	dc9a4 <strchr>
   dcaa8:	2800      	cmp	r0, #0
   dcaaa:	d1f7      	bne.n	dca9c <strrchr+0x10>
   dcaac:	4628      	mov	r0, r5
   dcaae:	bd38      	pop	{r3, r4, r5, pc}
   dcab0:	2500      	movs	r5, #0
   dcab2:	e7f5      	b.n	dcaa0 <strrchr+0x14>

000dcab4 <__strtok_r>:
   dcab4:	b5f0      	push	{r4, r5, r6, r7, lr}
   dcab6:	b908      	cbnz	r0, dcabc <__strtok_r+0x8>
   dcab8:	6810      	ldr	r0, [r2, #0]
   dcaba:	b188      	cbz	r0, dcae0 <__strtok_r+0x2c>
   dcabc:	4604      	mov	r4, r0
   dcabe:	4620      	mov	r0, r4
   dcac0:	f814 5b01 	ldrb.w	r5, [r4], #1
   dcac4:	460f      	mov	r7, r1
   dcac6:	f817 6b01 	ldrb.w	r6, [r7], #1
   dcaca:	b91e      	cbnz	r6, dcad4 <__strtok_r+0x20>
   dcacc:	b965      	cbnz	r5, dcae8 <__strtok_r+0x34>
   dcace:	6015      	str	r5, [r2, #0]
   dcad0:	4628      	mov	r0, r5
   dcad2:	e005      	b.n	dcae0 <__strtok_r+0x2c>
   dcad4:	42b5      	cmp	r5, r6
   dcad6:	d1f6      	bne.n	dcac6 <__strtok_r+0x12>
   dcad8:	2b00      	cmp	r3, #0
   dcada:	d1f0      	bne.n	dcabe <__strtok_r+0xa>
   dcadc:	6014      	str	r4, [r2, #0]
   dcade:	7003      	strb	r3, [r0, #0]
   dcae0:	bdf0      	pop	{r4, r5, r6, r7, pc}
   dcae2:	461c      	mov	r4, r3
   dcae4:	e00c      	b.n	dcb00 <__strtok_r+0x4c>
   dcae6:	b915      	cbnz	r5, dcaee <__strtok_r+0x3a>
   dcae8:	f814 3b01 	ldrb.w	r3, [r4], #1
   dcaec:	460e      	mov	r6, r1
   dcaee:	f816 5b01 	ldrb.w	r5, [r6], #1
   dcaf2:	42ab      	cmp	r3, r5
   dcaf4:	d1f7      	bne.n	dcae6 <__strtok_r+0x32>
   dcaf6:	2b00      	cmp	r3, #0
   dcaf8:	d0f3      	beq.n	dcae2 <__strtok_r+0x2e>
   dcafa:	2300      	movs	r3, #0
   dcafc:	f804 3c01 	strb.w	r3, [r4, #-1]
   dcb00:	6014      	str	r4, [r2, #0]
   dcb02:	e7ed      	b.n	dcae0 <__strtok_r+0x2c>

000dcb04 <strtok_r>:
   dcb04:	2301      	movs	r3, #1
   dcb06:	f7ff bfd5 	b.w	dcab4 <__strtok_r>
	...

000dcb0c <_strtol_l.isra.0>:
   dcb0c:	e92d 47f0 	stmdb	sp!, {r4, r5, r6, r7, r8, r9, sl, lr}
   dcb10:	4e3a      	ldr	r6, [pc, #232]	; (dcbfc <_strtol_l.isra.0+0xf0>)
   dcb12:	4686      	mov	lr, r0
   dcb14:	468c      	mov	ip, r1
   dcb16:	4660      	mov	r0, ip
   dcb18:	f81c 4b01 	ldrb.w	r4, [ip], #1
   dcb1c:	5da5      	ldrb	r5, [r4, r6]
   dcb1e:	f015 0508 	ands.w	r5, r5, #8
   dcb22:	d1f8      	bne.n	dcb16 <_strtol_l.isra.0+0xa>
   dcb24:	2c2d      	cmp	r4, #45	; 0x2d
   dcb26:	d133      	bne.n	dcb90 <_strtol_l.isra.0+0x84>
   dcb28:	f89c 4000 	ldrb.w	r4, [ip]
   dcb2c:	f04f 0801 	mov.w	r8, #1
   dcb30:	f100 0c02 	add.w	ip, r0, #2
   dcb34:	2b00      	cmp	r3, #0
   dcb36:	d05c      	beq.n	dcbf2 <_strtol_l.isra.0+0xe6>
   dcb38:	2b10      	cmp	r3, #16
   dcb3a:	d10c      	bne.n	dcb56 <_strtol_l.isra.0+0x4a>
   dcb3c:	2c30      	cmp	r4, #48	; 0x30
   dcb3e:	d10a      	bne.n	dcb56 <_strtol_l.isra.0+0x4a>
   dcb40:	f89c 0000 	ldrb.w	r0, [ip]
   dcb44:	f000 00df 	and.w	r0, r0, #223	; 0xdf
   dcb48:	2858      	cmp	r0, #88	; 0x58
   dcb4a:	d14d      	bne.n	dcbe8 <_strtol_l.isra.0+0xdc>
   dcb4c:	f89c 4001 	ldrb.w	r4, [ip, #1]
   dcb50:	2310      	movs	r3, #16
   dcb52:	f10c 0c02 	add.w	ip, ip, #2
   dcb56:	f108 4700 	add.w	r7, r8, #2147483648	; 0x80000000
   dcb5a:	3f01      	subs	r7, #1
   dcb5c:	2600      	movs	r6, #0
   dcb5e:	fbb7 f9f3 	udiv	r9, r7, r3
   dcb62:	4630      	mov	r0, r6
   dcb64:	fb03 7a19 	mls	sl, r3, r9, r7
   dcb68:	f1a4 0530 	sub.w	r5, r4, #48	; 0x30
   dcb6c:	2d09      	cmp	r5, #9
   dcb6e:	d818      	bhi.n	dcba2 <_strtol_l.isra.0+0x96>
   dcb70:	462c      	mov	r4, r5
   dcb72:	42a3      	cmp	r3, r4
   dcb74:	dd24      	ble.n	dcbc0 <_strtol_l.isra.0+0xb4>
   dcb76:	1c75      	adds	r5, r6, #1
   dcb78:	d007      	beq.n	dcb8a <_strtol_l.isra.0+0x7e>
   dcb7a:	4581      	cmp	r9, r0
   dcb7c:	d31d      	bcc.n	dcbba <_strtol_l.isra.0+0xae>
   dcb7e:	d101      	bne.n	dcb84 <_strtol_l.isra.0+0x78>
   dcb80:	45a2      	cmp	sl, r4
   dcb82:	db1a      	blt.n	dcbba <_strtol_l.isra.0+0xae>
   dcb84:	fb00 4003 	mla	r0, r0, r3, r4
   dcb88:	2601      	movs	r6, #1
   dcb8a:	f81c 4b01 	ldrb.w	r4, [ip], #1
   dcb8e:	e7eb      	b.n	dcb68 <_strtol_l.isra.0+0x5c>
   dcb90:	2c2b      	cmp	r4, #43	; 0x2b
   dcb92:	bf08      	it	eq
   dcb94:	f89c 4000 	ldrbeq.w	r4, [ip]
   dcb98:	46a8      	mov	r8, r5
   dcb9a:	bf08      	it	eq
   dcb9c:	f100 0c02 	addeq.w	ip, r0, #2
   dcba0:	e7c8      	b.n	dcb34 <_strtol_l.isra.0+0x28>
   dcba2:	f1a4 0541 	sub.w	r5, r4, #65	; 0x41
   dcba6:	2d19      	cmp	r5, #25
   dcba8:	d801      	bhi.n	dcbae <_strtol_l.isra.0+0xa2>
   dcbaa:	3c37      	subs	r4, #55	; 0x37
   dcbac:	e7e1      	b.n	dcb72 <_strtol_l.isra.0+0x66>
   dcbae:	f1a4 0561 	sub.w	r5, r4, #97	; 0x61
   dcbb2:	2d19      	cmp	r5, #25
   dcbb4:	d804      	bhi.n	dcbc0 <_strtol_l.isra.0+0xb4>
   dcbb6:	3c57      	subs	r4, #87	; 0x57
   dcbb8:	e7db      	b.n	dcb72 <_strtol_l.isra.0+0x66>
   dcbba:	f04f 36ff 	mov.w	r6, #4294967295	; 0xffffffff
   dcbbe:	e7e4      	b.n	dcb8a <_strtol_l.isra.0+0x7e>
   dcbc0:	1c73      	adds	r3, r6, #1
   dcbc2:	d106      	bne.n	dcbd2 <_strtol_l.isra.0+0xc6>
   dcbc4:	2322      	movs	r3, #34	; 0x22
   dcbc6:	f8ce 3000 	str.w	r3, [lr]
   dcbca:	4638      	mov	r0, r7
   dcbcc:	b942      	cbnz	r2, dcbe0 <_strtol_l.isra.0+0xd4>
   dcbce:	e8bd 87f0 	ldmia.w	sp!, {r4, r5, r6, r7, r8, r9, sl, pc}
   dcbd2:	f1b8 0f00 	cmp.w	r8, #0
   dcbd6:	d000      	beq.n	dcbda <_strtol_l.isra.0+0xce>
   dcbd8:	4240      	negs	r0, r0
   dcbda:	2a00      	cmp	r2, #0
   dcbdc:	d0f7      	beq.n	dcbce <_strtol_l.isra.0+0xc2>
   dcbde:	b10e      	cbz	r6, dcbe4 <_strtol_l.isra.0+0xd8>
   dcbe0:	f10c 31ff 	add.w	r1, ip, #4294967295	; 0xffffffff
   dcbe4:	6011      	str	r1, [r2, #0]
   dcbe6:	e7f2      	b.n	dcbce <_strtol_l.isra.0+0xc2>
   dcbe8:	2430      	movs	r4, #48	; 0x30
   dcbea:	2b00      	cmp	r3, #0
   dcbec:	d1b3      	bne.n	dcb56 <_strtol_l.isra.0+0x4a>
   dcbee:	2308      	movs	r3, #8
   dcbf0:	e7b1      	b.n	dcb56 <_strtol_l.isra.0+0x4a>
   dcbf2:	2c30      	cmp	r4, #48	; 0x30
   dcbf4:	d0a4      	beq.n	dcb40 <_strtol_l.isra.0+0x34>
   dcbf6:	230a      	movs	r3, #10
   dcbf8:	e7ad      	b.n	dcb56 <_strtol_l.isra.0+0x4a>
   dcbfa:	bf00      	nop
   dcbfc:	000ddb0f 	.word	0x000ddb0f

000dcc00 <strtol>:
   dcc00:	4613      	mov	r3, r2
   dcc02:	460a      	mov	r2, r1
   dcc04:	4601      	mov	r1, r0
   dcc06:	4802      	ldr	r0, [pc, #8]	; (dcc10 <strtol+0x10>)
   dcc08:	6800      	ldr	r0, [r0, #0]
   dcc0a:	f7ff bf7f 	b.w	dcb0c <_strtol_l.isra.0>
   dcc0e:	bf00      	nop
   dcc10:	2003dcf8 	.word	0x2003dcf8

000dcc14 <__register_exitproc>:
   dcc14:	e92d 43f8 	stmdb	sp!, {r3, r4, r5, r6, r7, r8, r9, lr}
   dcc18:	f8df 80b8 	ldr.w	r8, [pc, #184]	; dccd4 <__register_exitproc+0xc0>
   dcc1c:	4606      	mov	r6, r0
   dcc1e:	f8d8 0000 	ldr.w	r0, [r8]
   dcc22:	461f      	mov	r7, r3
   dcc24:	460d      	mov	r5, r1
   dcc26:	4691      	mov	r9, r2
   dcc28:	f000 f856 	bl	dccd8 <__retarget_lock_acquire_recursive>
   dcc2c:	4b25      	ldr	r3, [pc, #148]	; (dccc4 <__register_exitproc+0xb0>)
   dcc2e:	681c      	ldr	r4, [r3, #0]
   dcc30:	b934      	cbnz	r4, dcc40 <__register_exitproc+0x2c>
   dcc32:	4c25      	ldr	r4, [pc, #148]	; (dccc8 <__register_exitproc+0xb4>)
   dcc34:	601c      	str	r4, [r3, #0]
   dcc36:	4b25      	ldr	r3, [pc, #148]	; (dcccc <__register_exitproc+0xb8>)
   dcc38:	b113      	cbz	r3, dcc40 <__register_exitproc+0x2c>
   dcc3a:	681b      	ldr	r3, [r3, #0]
   dcc3c:	f8c4 3088 	str.w	r3, [r4, #136]	; 0x88
   dcc40:	6863      	ldr	r3, [r4, #4]
   dcc42:	2b1f      	cmp	r3, #31
   dcc44:	dd07      	ble.n	dcc56 <__register_exitproc+0x42>
   dcc46:	f8d8 0000 	ldr.w	r0, [r8]
   dcc4a:	f000 f847 	bl	dccdc <__retarget_lock_release_recursive>
   dcc4e:	f04f 30ff 	mov.w	r0, #4294967295	; 0xffffffff
   dcc52:	e8bd 83f8 	ldmia.w	sp!, {r3, r4, r5, r6, r7, r8, r9, pc}
   dcc56:	b34e      	cbz	r6, dccac <__register_exitproc+0x98>
   dcc58:	f8d4 0088 	ldr.w	r0, [r4, #136]	; 0x88
   dcc5c:	b988      	cbnz	r0, dcc82 <__register_exitproc+0x6e>
   dcc5e:	4b1c      	ldr	r3, [pc, #112]	; (dccd0 <__register_exitproc+0xbc>)
   dcc60:	b923      	cbnz	r3, dcc6c <__register_exitproc+0x58>
   dcc62:	f8d8 0000 	ldr.w	r0, [r8]
   dcc66:	f000 f838 	bl	dccda <__retarget_lock_release>
   dcc6a:	e7f0      	b.n	dcc4e <__register_exitproc+0x3a>
   dcc6c:	f44f 7084 	mov.w	r0, #264	; 0x108
   dcc70:	f7fc f8f6 	bl	d8e60 <malloc>
   dcc74:	2800      	cmp	r0, #0
   dcc76:	d0f4      	beq.n	dcc62 <__register_exitproc+0x4e>
   dcc78:	2300      	movs	r3, #0
   dcc7a:	e9c0 3340 	strd	r3, r3, [r0, #256]	; 0x100
   dcc7e:	f8c4 0088 	str.w	r0, [r4, #136]	; 0x88
   dcc82:	6863      	ldr	r3, [r4, #4]
   dcc84:	f840 9023 	str.w	r9, [r0, r3, lsl #2]
   dcc88:	2201      	movs	r2, #1
   dcc8a:	409a      	lsls	r2, r3
   dcc8c:	eb00 0183 	add.w	r1, r0, r3, lsl #2
   dcc90:	f8d0 3100 	ldr.w	r3, [r0, #256]	; 0x100
   dcc94:	4313      	orrs	r3, r2
   dcc96:	2e02      	cmp	r6, #2
   dcc98:	f8c0 3100 	str.w	r3, [r0, #256]	; 0x100
   dcc9c:	f8c1 7080 	str.w	r7, [r1, #128]	; 0x80
   dcca0:	bf02      	ittt	eq
   dcca2:	f8d0 3104 	ldreq.w	r3, [r0, #260]	; 0x104
   dcca6:	431a      	orreq	r2, r3
   dcca8:	f8c0 2104 	streq.w	r2, [r0, #260]	; 0x104
   dccac:	6863      	ldr	r3, [r4, #4]
   dccae:	f8d8 0000 	ldr.w	r0, [r8]
   dccb2:	1c5a      	adds	r2, r3, #1
   dccb4:	3302      	adds	r3, #2
   dccb6:	6062      	str	r2, [r4, #4]
   dccb8:	f844 5023 	str.w	r5, [r4, r3, lsl #2]
   dccbc:	f000 f80e 	bl	dccdc <__retarget_lock_release_recursive>
   dccc0:	2000      	movs	r0, #0
   dccc2:	e7c6      	b.n	dcc52 <__register_exitproc+0x3e>
   dccc4:	2003e7e0 	.word	0x2003e7e0
   dccc8:	2003e754 	.word	0x2003e754
   dcccc:	00000000 	.word	0x00000000
   dccd0:	000d8e61 	.word	0x000d8e61
   dccd4:	2003dd5c 	.word	0x2003dd5c

000dccd8 <__retarget_lock_acquire_recursive>:
   dccd8:	4770      	bx	lr

000dccda <__retarget_lock_release>:
   dccda:	4770      	bx	lr

000dccdc <__retarget_lock_release_recursive>:
   dccdc:	4770      	bx	lr

000dccde <link_code_end>:
	...

000dcce0 <dynalib_user>:
   dcce0:	4021 000d 405d 000d 4085 000d 4089 000d     !@..]@...@...@..
   dccf0:	0000 0000 7246 6d6f 2520 2073 6f74 2520     ....From %s to %
   dcd00:	0073 7453 7461 2065 7254 6e61 6973 6974     s.State Transiti
   dcd10:	6e6f 4500 5453 4535 5444 4d2c 2e33 2e32     on.EST5EDT,M3.2.
   dcd20:	2f30 3a32 3030 303a 2c30 314d 2e31 2e31     0/2:00:00,M11.1.
   dcd30:	2f30 3a32 3030 303a 0030 3630 303a 3a30     0/2:00:00.06:00:
   dcd40:	3030 3200 3a32 3935 353a 0039 7453 7261     00.22:59:59.Star
   dcd50:	7574 2070 6f63 706d 656c 6574 6120 2074     tup complete at 
   dcd60:	7325 7720 7469 2068 6162 7474 7265 2079     %s with battery 
   dcd70:	3425 322e 0066 6f6c 6163 206c 6974 656d     %4.2f.local time
   dcd80:	203a 7325 7400 6d69 2065 666f 6e20 7865     : %s.time of nex
   dcd90:	2074 7665 6e65 2074 7369 203a 7325 7720     t event is: %s w
   dcda0:	6968 6863 6920 2073 6c25 2075 6573 6f63     hich is %lu seco
   dcdb0:	646e 2073 7761 7961 5300 656c 7065 6620     nds away.Sleep f
   dcdc0:	726f 2520 2069 6573 6f63 646e 0073 6f57     or %i seconds.Wo
   dcdd0:	656b 7720 7469 2068 7375 7265 6220 7475     ke with user but
   dcde0:	6f74 206e 202d 6f6e 6d72 6c61 6f20 6570     ton - normal ope
   dcdf0:	6172 6974 6e6f 0073 6f4e 6564 6920 2073     rations.Node is 
   dce00:	7270 7065 7261 6e69 2067 6f74 7320 6e65     preparing to sen
   dce10:	2064 6572 6f70 7472 7720 7469 2068 2061     d report with a 
   dce20:	6172 646e 6d6f 6544 616c 2079 666f 2520     randomDelay of %
   dce30:	0069 3132 353a 3a39 3935 0000               i.21:59:59..

000dce3c <_ZTV8MB85RC64>:
	...
   dce44:	40d5 000d 40e9 000d 7175 000d 720b 000d     .@...@..uq...r..
   dce54:	728d 000d 6e69 7469 6620 6961 656c 0064     .r..init failed.
   dce64:	6f4c 4152 5220 6461 6f69 6920 696e 6974     LoRA Radio initi
   dce74:	6c61 7a69 6465 6120 2073 6f4e 6564 754e     alized as NodeNu
   dce84:	626d 7265 6f20 2066 6925 6120 646e 4420     mber of %i and D
   dce94:	7665 6369 4965 2044 666f 2520 0069 6552     eviceID of %i.Re
   dcea4:	6563 7669 6465 6620 6f72 206d 6f6e 6564     ceived from node
   dceb4:	2520 2064 6977 6874 7220 7373 3d69 6425      %d with rssi=%d
   dcec4:	2d20 6120 2520 2073 656d 7373 6761 2065      - a %s message 
   dced4:	666f 6c20 6e65 7467 2068 6425 5300 6e65     of length %d.Sen
   dcee4:	6964 676e 6420 7461 2061 6572 6f70 7472     ding data report
   dcef4:	7420 206f 6147 6574 6177 0079 6573 646e      to Gateway.send
   dcf04:	6e69 2067 656d 7373 6761 2065 6425 4400     ing message %d.D
   dcf14:	7461 2061 6572 6f70 7472 7320 6e65 2064     ata report send 
   dcf24:	6f74 6720 7461 7765 7961 7320 6375 6563     to gateway succe
   dcf34:	7373 7566 6c6c 0079 6144 6174 7220 7065     ssfully.Data rep
   dcf44:	726f 2074 6573 646e 7420 206f 6147 6574     ort send to Gate
   dcf54:	6177 2079 6166 6c69 6465 5400 6d69 2065     way failed.Time 
   dcf64:	6573 2074 6f74 2520 2073 6e61 2064 656e     set to %s and ne
   dcf74:	7478 7220 7065 726f 2074 7369 6920 206e     xt report is in 
   dcf84:	7525 6d20 6e69 7475 7365 4e00 206f 6572     %u minutes.No re
   dcf94:	6c70 2c79 6120 6572 7420 6568 6720 7461     ply, are the gat
   dcfa4:	7765 7961 2073 7572 6e6e 6e69 3f67 4900     eways running?.I
   dcfb4:	696e 6174 696c 697a 676e 7420 6568 7020     nitalizing the p
   dcfc4:	6e69 6f4d 6564 0073 6e49 7469 6169 696c     inModes.Initiali
   dcfd4:	697a 676e 5020 776f 7265 4320 6e6f 6966     zing Power Confi
   dcfe4:	0067                                        g.

000dcfe6 <BLUE_LED>:
   dcfe6:	0007                                        ..

000dcfe8 <BUTTON_PIN>:
   dcfe8:	0004                                        ..

000dcfea <RFM95_CS>:
   dcfea:	000e                                        ..

000dcfec <RFM95_INT>:
   dcfec:	0002                                        ..

000dcfee <TMP36_SENSE_PIN>:
   dcfee:	000f 6579 0073 6f6e 4900 636e 6572 7361     ..yes.no.Increas
   dcffe:	6e69 2067 6572 6f70 7472 6e69 2067 7266     ing reporting fr
   dd00e:	7165 6575 636e 2079 6f74 3120 2032 696d     equency to 12 mi
   dd01e:	756e 6574 0073 7349 4c20 776f 5020 776f     nutes.Is Low Pow
   dd02e:	7265 4d20 646f 2065 6573 3f74 2520 0073     er Mode set? %s.
   dd03e:	6f4d 6564 0000                              Mode..

000dd044 <_ZTVN5spark10LogHandlerE>:
	...
   dd054:	40a5 000d 4add 000d                         .@...J..

000dd05c <_ZTVN5spark16SerialLogHandlerE>:
	...
   dd064:	4ae9 000d 4b1d 000d ab95 000d 4adf 000d     .J...K.......J..
   dd074:	6f4c 6461 6e69 2067 7953 7473 6d65 4420     Loading System D
   dd084:	6665 7561 746c 0073 6f4c 6461 6e69 2067     efaults.Loading 
   dd094:	7973 7473 6d65 6420 6665 7561 746c 0073     system defaults.
   dd0a4:	7973 5373 6174 7375 6f20 6a62 6365 2074     sysStaus object 
   dd0b4:	7473 726f 6465 6120 646e 6820 7361 2068     stored and hash 
   dd0c4:	7075 6164 6574 0064 7563 7272 6e65 2074     updated.current 
   dd0d4:	626f 656a 7463 7320 6f74 6572 2064 6e61     object stored an
   dd0e4:	2064 6168 6873 7520 6470 7461 6465 4900     d hash updated.I
   dd0f4:	696e 6974 6c61 7a69 6e69 2067 6874 2065     nitializing the 
   dd104:	624f 656a 7463 5320 6f74 6572 4600 4152     Object Store.FRA
   dd114:	204d 696d 6d73 7461 6863 202c 7265 7361     M mismatch, eras
   dd124:	6e69 2067 6e61 2064 6f6c 6163 6966 676e     ing and locafing
   dd134:	6420 6665 7561 746c 2073 6669 6920 2074      defaults if it 
   dd144:	6863 6365 736b 6f20 7475 4600 4152 204d     checks out.FRAM 
   dd154:	6e69 7469 6169 696c 657a 2c64 6c20 616f     initialized, loa
   dd164:	6964 676e 6f20 6a62 6365 7374 0000 0000     ding objects....

000dd174 <_ZL17FRAMversionNumber>:
   dd174:	0001 0000 6e55 6e6b 776f 006e 6f4e 656e     ....Unknown.None
   dd184:	5700 4669 0069 5347 004d 4d55 5354 4300     .WiFi.GSM.UMTS.C
   dd194:	4d44 0041 544c 0045 4549 4545 3038 3132     DMA.LTE.IEEE8021
   dd1a4:	3435 4c00 4554 435f 5441 4d5f 0031 544c     54.LTE_CAT_M1.LT
   dd1b4:	5f45 4143 5f54 424e 0031 6f4e 2074 6843     E_CAT_NB1.Not Ch
   dd1c4:	7261 6967 676e 4300 6168 6772 6465 4400     arging.Charged.D
   dd1d4:	7369 6863 7261 6967 676e 4600 7561 746c     ischarging.Fault
   dd1e4:	4400 6369 6e6f 656e 7463 6465 2500 2073     .Diconnected.%s 
   dd1f4:	3a53 3225 302e 2566 2c25 5120 253a 2e32     S:%2.0f%%, Q:%2.
   dd204:	6630 2525 0020 6925 4320 4900 746e 7265     0f%% .%i C.Inter
   dd214:	616e 206c 6554 706d 7265 7461 7275 2065     nal Temperature 
   dd224:	7369 2520 0073 0000 d178 000d d180 000d     is %s...x.......
   dd234:	d185 000d d18a 000d d18e 000d d193 000d     ................
   dd244:	d198 000d d19c 000d d1a7 000d d1b2 000d     ................
   dd254:	6166 6c69 6465 7420 206f 6572 6461 7220     failed to read r
   dd264:	6765 6441 7264 253d 3230 2078 6f63 6e75     egAddr=%02x coun
   dd274:	3d74 7525 6600 6961 656c 2064 6f74 7220     t=%u.failed to r
   dd284:	6165 2064 6572 4167 6464 3d72 3025 7832     ead regAddr=%02x
   dd294:	7320 6174 3d74 6425 4600 554f 2054 6964      stat=%d.FOUT di
   dd2a4:	2064 6f6e 2074 6f67 4820 4749 0048 6f6e     d not go HIGH.no
   dd2b4:	2074 6564 6574 7463 6465 6600 6961 656c     t detected.faile
   dd2c4:	2064 6f74 7720 6972 6574 7220 6765 6441     d to write regAd
   dd2d4:	7264 253d 3230 2078 7473 7461 253d 0064     dr=%02x stat=%d.
   dd2e4:	6573 5774 5444 2520 0064 6177 6374 6468     setWDT %d.watchd
   dd2f4:	676f 6320 656c 7261 6465 6220 6552 7573     og cleared bResu
   dd304:	746c 253d 0064 6177 6374 6468 676f 7320     lt=%d.watchdog s
   dd314:	7465 6620 756f 5372 6365 3d73 6425 6220     et fourSecs=%d b
   dd324:	6552 7573 746c 253d 0064 6572 6573 4374     Result=%d.resetC
   dd334:	6e6f 6966 2867 7830 3025 6c38 2978 5700     onfig(0x%08lx).W
   dd344:	5441 4843 4f44 0047 4544 5045 505f 574f     ATCHDOG.DEEP_POW
   dd354:	5245 445f 574f 004e 4f43 4e55 4454 574f     ER_DOWN.COUNTDOW
   dd364:	5f4e 4954 454d 0052 4c41 5241 004d 6166     N_TIMER.ALARM.fa
   dd374:	6c69 7275 2065 6e69 7520 6470 7461 5765     ilure in updateW
   dd384:	6b61 5265 6165 6f73 206e 6425 7700 6b61     akeReason %d.wak
   dd394:	2065 6572 7361 6e6f 3d20 2520 0073 3025     e reason = %s.%0
   dd3a4:	6434 252d 3230 2d64 3025 6432 2520 3230     4d-%02d-%02d %02
   dd3b4:	3a64 3025 6432 253a 3230 0064 6567 5274     d:%02d:%02d.getR
   dd3c4:	6374 7341 6d54 2520 0073 6573 2074 7973     tcAsTm %s.set sy
   dd3d4:	7473 6d65 6320 6f6c 6b63 6620 6f72 206d     stem clock from 
   dd3e4:	5452 2043 7325 6600 6961 656c 2064 6f74     RTC %s.failed to
   dd3f4:	6420 7465 6365 2074 4241 3831 3530 7300      detect AB1805.s
   dd404:	7465 7452 4163 5473 206d 7325 6600 6961     etRtcAsTm %s.fai
   dd414:	756c 6572 6920 206e 6573 5274 6374 7246     lure in setRtcFr
   dd424:	6d6f 6d54 2520 0064 6573 2074 5452 2043     omTm %d.set RTC 
   dd434:	7266 6d6f 6320 6f6c 6475 2520 0073 7061     from cloud %s.ap
   dd444:	2e70 6261 3831 3530 0000 0000               p.ab1805....

000dd450 <_ZTV6AB1805>:
	...
   dd458:	51c1 000d 51c3 000d 572f 000d 57b5 000d     .Q...Q../W...W..
   dd468:	6425 253a 3a64 6425 3000 3a30 3030 303a     %d:%d:%d.00:00:0
   dd478:	0030 3332 353a 3a39 3935 4d00 6425 252e     0.23:59:59.M%d.%
   dd488:	2e64 6425 2c00 5a00 2500 302b 6433 253a     d.%d.,.Z.%+03d:%
   dd498:	3230 0075 6576 7463 726f 3a3a 4d5f 725f     02u.vector::_M_r
   dd4a8:	6165 6c6c 636f 695f 736e 7265 0074 0000     ealloc_insert...

000dd4b8 <_ZTV9LocalTime>:
	...
   dd4c0:	5c21 000d 5c39 000d                         !\..9\..

000dd4c8 <_ZTV12LocalTimeHMS>:
	...
   dd4d0:	5bc1 000d 5bd3 000d                         .[...[..

000dd4d8 <_ZTV15LocalTimeChange>:
	...
   dd4e0:	5bc3 000d 5be1 000d                         .[...[..

000dd4e8 <_ZTV22LocalTimePosixTimezone>:
	...
   dd4f0:	5bf1 000d 5c0d 000d 7277 7469 4465 7461     .[...\..writeDat
   dd500:	2061 6166 6c69 6465 6420 7275 6e69 2067     a failed during 
   dd510:	7265 7361 2065 7266 6d61 6441 7264 253d     erase framAddr=%
   dd520:	0075 0000                                   u...

000dd524 <_ZTV6MB85RC>:
	...
   dd52c:	70c3 000d 70c5 000d 7175 000d 720b 000d     .p...p..uq...r..
   dd53c:	728d 000d                                   .r..

000dd540 <_ZTV15RHGenericDriver>:
	...
   dd550:	7445 000d 40a5 000d 40a5 000d 40a5 000d     Et...@...@...@..
   dd560:	40a5 000d 74a7 000d 7449 000d 74f7 000d     .@...t..It...t..
   dd570:	74c5 000d 751b 000d 7453 000d 745b 000d     .t...u..St..[t..
   dd580:	745f 000d 7463 000d 7467 000d 746b 000d     _t..ct..gt..kt..
   dd590:	7457 000d 7477 000d 747b 000d 747f 000d     Wt..wt..{t...t..
   dd5a0:	7483 000d 7487 000d 748d 000d 7491 000d     .t...t...t...t..
   dd5b0:	7453 000d 7495 000d 749b 000d 74a1 000d     St...t...t...t..

000dd5c0 <_ZTV12RHGenericSPI>:
	...
   dd5c8:	40a5 000d 7579 000d 757b 000d 40a5 000d     .@..yu..{u...@..
   dd5d8:	40a5 000d 7583 000d 7587 000d 758b 000d     .@...u...u...u..
   dd5e8:	757d 000d 757f 000d 7581 000d 6564 6166     }u...u...u..defa
   dd5f8:	6c75 2074 4d00 4253 4c00 4253 3c00 5053     ult .MSB.LSB.<SP
   dd608:	5349 7465 6974 676e 2073 6564 6166 6c75     ISettings defaul
   dd618:	3e74 3c00 5053 5349 7465 6974 676e 2073     t>.<SPISettings 
   dd628:	7325 7525 2520 2073 4f4d 4544 7525 003e     %s%u %s MODE%u>.

000dd638 <_ZTVN8particle11SPISettingsE>:
	...
   dd640:	75d1 000d 75a5 000d 75a7 000d               .u...u...u..

000dd64c <_ZTV13RHHardwareSPI>:
	...
   dd654:	7685 000d 7699 000d 76a7 000d 76b5 000d     .v...v...v...v..
   dd664:	7721 000d 7583 000d 7587 000d 758b 000d     !w...u...u...u..
   dd674:	772f 000d 7743 000d 7751 000d               /w..Cw..Qw..

000dd680 <_ZTV6RHMesh>:
	...
   dd688:	7821 000d 7b29 000d 777d 000d 7769 000d     !x..){..}w..iw..

000dd698 <_ZTV8RHRouter>:
	...
   dd6a0:	7d8f 000d 7dd3 000d                         .}...}..

000dd6a8 <_ZTV11RHSPIDriver>:
	...
   dd6b8:	8071 000d 40a5 000d 40a5 000d 40a5 000d     q....@...@...@..
   dd6c8:	40a5 000d 74a7 000d 7449 000d 74f7 000d     .@...t..It...t..
   dd6d8:	74c5 000d 751b 000d 7453 000d 745b 000d     .t...u..St..[t..
   dd6e8:	745f 000d 7463 000d 7467 000d 746b 000d     _t..ct..gt..kt..
   dd6f8:	7457 000d 7477 000d 747b 000d 747f 000d     Wt..wt..{t...t..
   dd708:	7483 000d 7487 000d 748d 000d 7491 000d     .t...t...t...t..
   dd718:	7453 000d 7495 000d 749b 000d 74a1 000d     St...t...t...t..
   dd728:	809d 000d 80a7 000d                         ........

000dd730 <_ZL18MODEM_CONFIG_TABLE>:
   dd730:	7472 9204 0474 9448 7804 0cc4 b472 0004     rt..t.H..x..r...

000dd740 <_ZTV7RH_RF95>:
	...
   dd748:	820f 000d 8247 000d 8709 000d 856f 000d     ....G.......o...
   dd758:	827d 000d 85b7 000d 820b 000d 74a7 000d     }............t..
   dd768:	7449 000d 74f7 000d 74c5 000d 751b 000d     It...t...t...u..
   dd778:	8211 000d 745b 000d 745f 000d 7463 000d     ....[t.._t..ct..
   dd788:	7467 000d 746b 000d 7457 000d 7477 000d     gt..kt..Wt..wt..
   dd798:	747b 000d 747f 000d 7483 000d 7487 000d     {t...t...t...t..
   dd7a8:	748d 000d 7491 000d 8257 000d 7495 000d     .t...t..W....t..
   dd7b8:	749b 000d 74a1 000d 809d 000d 80a7 000d     .t...t..........
   dd7c8:	8207 000d                                   ....

000dd7cc <_ZTVN5spark13CellularClassE>:
	...
   dd7d4:	8feb 000d 8fe1 000d 8fd7 000d 8f8d 000d     ................
   dd7e4:	8fcb 000d 8fbf 000d aeed 000d aef5 000d     ................
   dd7f4:	8fb3 000d 8fab 000d 8fa1 000d 8f97 000d     ................
   dd804:	af25 000d                                   %...

000dd808 <_ZTV14CellularSignal>:
	...
   dd810:	9099 000d 90c1 000d 909b 000d 90d1 000d     ................
   dd820:	9105 000d 9131 000d 9165 000d 91b5 000d     ....1...e.......
   dd830:	909f 000d 90bb 000d fffc ffff 0000 0000     ................
   dd840:	91db 000d                                   ....

000dd844 <_ZTVSt15_Sp_counted_ptrIPN8particle6detail10FutureImplIbNS1_13FutureContextEEELN9__gnu_cxx12_Lock_policyE0EE>:
	...
   dd84c:	91fb 000d 9201 000d 9251 000d 920f 000d     ........Q.......
   dd85c:	91fd 000d                                   ....

000dd860 <_ZTVN5spark13EthernetClassE>:
	...
   dd868:	97c7 000d 97bd 000d 97b3 000d 97a9 000d     ................
   dd878:	979d 000d 9791 000d aeed 000d aef5 000d     ................
   dd888:	9785 000d 977d 000d 9773 000d 9769 000d     ....}...s...i...
   dd898:	af25 000d                                   %...

000dd89c <_ZTV7TwoWire>:
	...
   dd8a4:	996b 000d 99b5 000d 998d 000d 996d 000d     k...........m...
   dd8b4:	9995 000d 999d 000d 99a5 000d 99ad 000d     ................

000dd8c4 <_ZTV9IPAddress>:
	...
   dd8cc:	9b19 000d 9b09 000d 9b0b 000d 2575 3430     ............u%04
   dd8dc:	0078 6162 6475 5300 7265 6169 006c 6553     x.baud.Serial.Se
   dd8ec:	6972 6c61 0031 534a 4e4f 7453 6572 6d61     rial1.JSONStream
   dd8fc:	6f4c 4867 6e61 6c64 7265 6100 7070 2500     LogHandler.app.%
   dd90c:	3130 7530 0020 205d 2c00 0020 2928 203a     010u .] ., .(): 
   dd91c:	2000 005b 6f63 6564 3d20 0020 6564 6174     . [.code = .deta
   dd92c:	6c69 2073 203d 0d00 000a 006d 0063 6e6c     ils = ....m.c.ln
   dd93c:	6600 006e 6f63 6564 6400 7465 6961 006c     .fn.code.detail.

000dd94c <_ZTVN5spark16JSONStreamWriterE>:
	...
   dd954:	9fd5 000d 9ffb 000d 9fb9 000d 9c19 000d     ................

000dd964 <_ZTVN5spark16StreamLogHandlerE>:
	...
   dd96c:	a3b1 000d a3c9 000d ab95 000d 4adf 000d     .............J..

000dd97c <_ZTVN5spark20JSONStreamLogHandlerE>:
	...
   dd984:	a3dd 000d a3f1 000d ad39 000d 9fc1 000d     ........9.......

000dd994 <_ZTVN5spark24DefaultLogHandlerFactoryE>:
	...
   dd99c:	9fd3 000d a009 000d aad1 000d 9fc3 000d     ................

000dd9ac <_ZTVN5spark26DefaultOutputStreamFactoryE>:
	...
   dd9b4:	9fd1 000d a017 000d a2f9 000d a035 000d     ............5...

000dd9c4 <_ZTVN5spark12NetworkClassE>:
	...
   dd9cc:	aead 000d aeb7 000d aec1 000d aecb 000d     ................
   dd9dc:	aed5 000d aee1 000d aeed 000d aef5 000d     ................
   dd9ec:	aefd 000d af09 000d af11 000d af1b 000d     ................
   dd9fc:	af25 000d                                   %...

000dda00 <_ZN12_GLOBAL__N_1L14clock_divisorsE>:
   dda00:	0800 1810 2820 3830 6977 6972 676e 5300     .... (08wiring.S
   dda10:	7379 6574 206d 6c73 6565 2070 6f63 666e     ystem sleep conf
   dda20:	6769 7275 7461 6f69 206e 7369 6920 766e     iguration is inv
   dda30:	6c61 6469 002e 5925 252d 2d6d 6425 2554     alid..%Y-%m-%dT%
   dda40:	3a48 4d25 253a 2553 007a 7361 7463 6d69     H:%M:%S%z.asctim
   dda50:	0065 0000                                   e...

000dda54 <_ZTV11USARTSerial>:
	...
   dda5c:	b9e5 000d ba53 000d ba2b 000d b16b 000d     ....S...+...k...
   dda6c:	b9fb 000d ba17 000d ba09 000d ba25 000d     ............%...
   dda7c:	b9e7 000d b9ed 000d                         ........

000dda84 <_ZTV9USBSerial>:
	...
   dda8c:	baf3 000d bb5b 000d bb31 000d b16b 000d     ....[...1...k...
   dda9c:	bb23 000d baf5 000d bb05 000d bb55 000d     #...........U...
   ddaac:	bb15 000d baed 000d                         ........

000ddab4 <_ZSt7nothrow>:
   ddab4:	2500 332e 2073 2e25 7333 3325 2064 2e25     .%.3s %.3s%3d %.
   ddac4:	6432 253a 322e 3a64 2e25 6432 2520 0a64     2d:%.2d:%.2d %d.
	...

000ddad5 <day_name.6145>:
   ddad5:	7553 4d6e 6e6f 7554 5765 6465 6854 4675     SunMonTueWedThuF
   ddae5:	6972 6153                                    riSat

000ddaea <mon_name.6146>:
   ddaea:	614a 466e 6265 614d 4172 7270 614d 4a79     JanFebMarAprMayJ
   ddafa:	6e75 754a 416c 6775 6553 4f70 7463 6f4e     unJulAugSepOctNo
   ddb0a:	4476 6365                                   vDec

000ddb0e <_ctype_>:
   ddb0e:	2000 2020 2020 2020 2020 2828 2828 2028     .         ((((( 
   ddb1e:	2020 2020 2020 2020 2020 2020 2020 2020                     
   ddb2e:	8820 1010 1010 1010 1010 1010 1010 1010      ...............
   ddb3e:	0410 0404 0404 0404 0404 1004 1010 1010     ................
   ddb4e:	1010 4141 4141 4141 0101 0101 0101 0101     ..AAAAAA........
   ddb5e:	0101 0101 0101 0101 0101 0101 1010 1010     ................
   ddb6e:	1010 4242 4242 4242 0202 0202 0202 0202     ..BBBBBB........
   ddb7e:	0202 0202 0202 0202 0202 0202 1010 1010     ................
   ddb8e:	0020 0000 0000 0000 0000 0000 0000 0000      ...............
	...

000ddc0f <link_const_variable_data_end>:
	...

000ddc10 <link_constructors_location>:
   ddc10:	000d429d 	.word	0x000d429d
   ddc14:	000d4a05 	.word	0x000d4a05
   ddc18:	000d4cfd 	.word	0x000d4cfd
   ddc1c:	000d4e41 	.word	0x000d4e41
   ddc20:	000d51b5 	.word	0x000d51b5
   ddc24:	000d5bb1 	.word	0x000d5bb1
   ddc28:	000d7759 	.word	0x000d7759
   ddc2c:	000d8f7d 	.word	0x000d8f7d
   ddc30:	000d9069 	.word	0x000d9069
   ddc34:	000d97d1 	.word	0x000d97d1
   ddc38:	000dab85 	.word	0x000dab85
   ddc3c:	000daff9 	.word	0x000daff9
   ddc40:	000db2a9 	.word	0x000db2a9
   ddc44:	000db745 	.word	0x000db745
   ddc48:	000db9d1 	.word	0x000db9d1

000ddc4c <link_constructors_end>:
   ddc4c:	00000000 	.word	0x00000000
